
generated/rv32ui-p-sll:     file format elf32-littleriscv


Disassembly of section .text.init:

00000000 <_start>:
   0:	00000093          	li	ra,0
   4:	00000113          	li	sp,0
   8:	00000193          	li	gp,0
   c:	00000213          	li	tp,0
  10:	00000293          	li	t0,0
  14:	00000313          	li	t1,0
  18:	00000393          	li	t2,0
  1c:	00000413          	li	s0,0
  20:	00000493          	li	s1,0
  24:	00000513          	li	a0,0
  28:	00000593          	li	a1,0
  2c:	00000613          	li	a2,0
  30:	00000693          	li	a3,0
  34:	00000713          	li	a4,0
  38:	00000793          	li	a5,0
  3c:	00000813          	li	a6,0
  40:	00000893          	li	a7,0
  44:	00000913          	li	s2,0
  48:	00000993          	li	s3,0
  4c:	00000a13          	li	s4,0
  50:	00000a93          	li	s5,0
  54:	00000b13          	li	s6,0
  58:	00000b93          	li	s7,0
  5c:	00000c13          	li	s8,0
  60:	00000c93          	li	s9,0
  64:	00000d13          	li	s10,0
  68:	00000d93          	li	s11,0
  6c:	00000e13          	li	t3,0
  70:	00000e93          	li	t4,0
  74:	00000f13          	li	t5,0
  78:	00000f93          	li	t6,0
  7c:	00000293          	li	t0,0
  80:	30529073          	csrw	mtvec,t0

00000084 <test_2>:
  84:	00200193          	li	gp,2
  88:	00100093          	li	ra,1
  8c:	00000113          	li	sp,0
  90:	00209733          	sll	a4,ra,sp
  94:	00100393          	li	t2,1
  98:	52771e63          	bne	a4,t2,5d4 <fail>

0000009c <test_3>:
  9c:	00300193          	li	gp,3
  a0:	00100093          	li	ra,1
  a4:	00100113          	li	sp,1
  a8:	00209733          	sll	a4,ra,sp
  ac:	00200393          	li	t2,2
  b0:	52771263          	bne	a4,t2,5d4 <fail>

000000b4 <test_4>:
  b4:	00400193          	li	gp,4
  b8:	00100093          	li	ra,1
  bc:	00700113          	li	sp,7
  c0:	00209733          	sll	a4,ra,sp
  c4:	08000393          	li	t2,128
  c8:	50771663          	bne	a4,t2,5d4 <fail>

000000cc <test_5>:
  cc:	00500193          	li	gp,5
  d0:	00100093          	li	ra,1
  d4:	00e00113          	li	sp,14
  d8:	00209733          	sll	a4,ra,sp
  dc:	000043b7          	lui	t2,0x4
  e0:	4e771a63          	bne	a4,t2,5d4 <fail>

000000e4 <test_6>:
  e4:	00600193          	li	gp,6
  e8:	00100093          	li	ra,1
  ec:	01f00113          	li	sp,31
  f0:	00209733          	sll	a4,ra,sp
  f4:	800003b7          	lui	t2,0x80000
  f8:	4c771e63          	bne	a4,t2,5d4 <fail>

000000fc <test_7>:
  fc:	00700193          	li	gp,7
 100:	fff00093          	li	ra,-1
 104:	00000113          	li	sp,0
 108:	00209733          	sll	a4,ra,sp
 10c:	fff00393          	li	t2,-1
 110:	4c771263          	bne	a4,t2,5d4 <fail>

00000114 <test_8>:
 114:	00800193          	li	gp,8
 118:	fff00093          	li	ra,-1
 11c:	00100113          	li	sp,1
 120:	00209733          	sll	a4,ra,sp
 124:	ffe00393          	li	t2,-2
 128:	4a771663          	bne	a4,t2,5d4 <fail>

0000012c <test_9>:
 12c:	00900193          	li	gp,9
 130:	fff00093          	li	ra,-1
 134:	00700113          	li	sp,7
 138:	00209733          	sll	a4,ra,sp
 13c:	f8000393          	li	t2,-128
 140:	48771a63          	bne	a4,t2,5d4 <fail>

00000144 <test_10>:
 144:	00a00193          	li	gp,10
 148:	fff00093          	li	ra,-1
 14c:	00e00113          	li	sp,14
 150:	00209733          	sll	a4,ra,sp
 154:	ffffc3b7          	lui	t2,0xffffc
 158:	46771e63          	bne	a4,t2,5d4 <fail>

0000015c <test_11>:
 15c:	00b00193          	li	gp,11
 160:	fff00093          	li	ra,-1
 164:	01f00113          	li	sp,31
 168:	00209733          	sll	a4,ra,sp
 16c:	800003b7          	lui	t2,0x80000
 170:	46771263          	bne	a4,t2,5d4 <fail>

00000174 <test_12>:
 174:	00c00193          	li	gp,12
 178:	212120b7          	lui	ra,0x21212
 17c:	12108093          	addi	ra,ra,289 # 21212121 <begin_signature+0x21211ad1>
 180:	00000113          	li	sp,0
 184:	00209733          	sll	a4,ra,sp
 188:	212123b7          	lui	t2,0x21212
 18c:	12138393          	addi	t2,t2,289 # 21212121 <begin_signature+0x21211ad1>
 190:	44771263          	bne	a4,t2,5d4 <fail>

00000194 <test_13>:
 194:	00d00193          	li	gp,13
 198:	212120b7          	lui	ra,0x21212
 19c:	12108093          	addi	ra,ra,289 # 21212121 <begin_signature+0x21211ad1>
 1a0:	00100113          	li	sp,1
 1a4:	00209733          	sll	a4,ra,sp
 1a8:	424243b7          	lui	t2,0x42424
 1ac:	24238393          	addi	t2,t2,578 # 42424242 <begin_signature+0x42423bf2>
 1b0:	42771263          	bne	a4,t2,5d4 <fail>

000001b4 <test_14>:
 1b4:	00e00193          	li	gp,14
 1b8:	212120b7          	lui	ra,0x21212
 1bc:	12108093          	addi	ra,ra,289 # 21212121 <begin_signature+0x21211ad1>
 1c0:	00700113          	li	sp,7
 1c4:	00209733          	sll	a4,ra,sp
 1c8:	909093b7          	lui	t2,0x90909
 1cc:	08038393          	addi	t2,t2,128 # 90909080 <begin_signature+0x90908a30>
 1d0:	40771263          	bne	a4,t2,5d4 <fail>

000001d4 <test_15>:
 1d4:	00f00193          	li	gp,15
 1d8:	212120b7          	lui	ra,0x21212
 1dc:	12108093          	addi	ra,ra,289 # 21212121 <begin_signature+0x21211ad1>
 1e0:	00e00113          	li	sp,14
 1e4:	00209733          	sll	a4,ra,sp
 1e8:	484843b7          	lui	t2,0x48484
 1ec:	3e771463          	bne	a4,t2,5d4 <fail>

000001f0 <test_16>:
 1f0:	01000193          	li	gp,16
 1f4:	212120b7          	lui	ra,0x21212
 1f8:	12108093          	addi	ra,ra,289 # 21212121 <begin_signature+0x21211ad1>
 1fc:	01f00113          	li	sp,31
 200:	00209733          	sll	a4,ra,sp
 204:	800003b7          	lui	t2,0x80000
 208:	3c771663          	bne	a4,t2,5d4 <fail>

0000020c <test_17>:
 20c:	01100193          	li	gp,17
 210:	212120b7          	lui	ra,0x21212
 214:	12108093          	addi	ra,ra,289 # 21212121 <begin_signature+0x21211ad1>
 218:	fc000113          	li	sp,-64
 21c:	00209733          	sll	a4,ra,sp
 220:	212123b7          	lui	t2,0x21212
 224:	12138393          	addi	t2,t2,289 # 21212121 <begin_signature+0x21211ad1>
 228:	3a771663          	bne	a4,t2,5d4 <fail>

0000022c <test_18>:
 22c:	01200193          	li	gp,18
 230:	212120b7          	lui	ra,0x21212
 234:	12108093          	addi	ra,ra,289 # 21212121 <begin_signature+0x21211ad1>
 238:	fc100113          	li	sp,-63
 23c:	00209733          	sll	a4,ra,sp
 240:	424243b7          	lui	t2,0x42424
 244:	24238393          	addi	t2,t2,578 # 42424242 <begin_signature+0x42423bf2>
 248:	38771663          	bne	a4,t2,5d4 <fail>

0000024c <test_19>:
 24c:	01300193          	li	gp,19
 250:	212120b7          	lui	ra,0x21212
 254:	12108093          	addi	ra,ra,289 # 21212121 <begin_signature+0x21211ad1>
 258:	fc700113          	li	sp,-57
 25c:	00209733          	sll	a4,ra,sp
 260:	909093b7          	lui	t2,0x90909
 264:	08038393          	addi	t2,t2,128 # 90909080 <begin_signature+0x90908a30>
 268:	36771663          	bne	a4,t2,5d4 <fail>

0000026c <test_20>:
 26c:	01400193          	li	gp,20
 270:	212120b7          	lui	ra,0x21212
 274:	12108093          	addi	ra,ra,289 # 21212121 <begin_signature+0x21211ad1>
 278:	fce00113          	li	sp,-50
 27c:	00209733          	sll	a4,ra,sp
 280:	484843b7          	lui	t2,0x48484
 284:	34771863          	bne	a4,t2,5d4 <fail>

00000288 <test_22>:
 288:	01600193          	li	gp,22
 28c:	00100093          	li	ra,1
 290:	00700113          	li	sp,7
 294:	002090b3          	sll	ra,ra,sp
 298:	08000393          	li	t2,128
 29c:	32709c63          	bne	ra,t2,5d4 <fail>

000002a0 <test_23>:
 2a0:	01700193          	li	gp,23
 2a4:	00100093          	li	ra,1
 2a8:	00e00113          	li	sp,14
 2ac:	00209133          	sll	sp,ra,sp
 2b0:	000043b7          	lui	t2,0x4
 2b4:	32711063          	bne	sp,t2,5d4 <fail>

000002b8 <test_24>:
 2b8:	01800193          	li	gp,24
 2bc:	00300093          	li	ra,3
 2c0:	001090b3          	sll	ra,ra,ra
 2c4:	01800393          	li	t2,24
 2c8:	30709663          	bne	ra,t2,5d4 <fail>

000002cc <test_25>:
 2cc:	01900193          	li	gp,25
 2d0:	00000213          	li	tp,0
 2d4:	00100093          	li	ra,1
 2d8:	00700113          	li	sp,7
 2dc:	00209733          	sll	a4,ra,sp
 2e0:	00070313          	mv	t1,a4
 2e4:	00120213          	addi	tp,tp,1 # 1 <_start+0x1>
 2e8:	00200293          	li	t0,2
 2ec:	fe5214e3          	bne	tp,t0,2d4 <test_25+0x8>
 2f0:	08000393          	li	t2,128
 2f4:	2e731063          	bne	t1,t2,5d4 <fail>

000002f8 <test_26>:
 2f8:	01a00193          	li	gp,26
 2fc:	00000213          	li	tp,0
 300:	00100093          	li	ra,1
 304:	00e00113          	li	sp,14
 308:	00209733          	sll	a4,ra,sp
 30c:	00000013          	nop
 310:	00070313          	mv	t1,a4
 314:	00120213          	addi	tp,tp,1 # 1 <_start+0x1>
 318:	00200293          	li	t0,2
 31c:	fe5212e3          	bne	tp,t0,300 <test_26+0x8>
 320:	000043b7          	lui	t2,0x4
 324:	2a731863          	bne	t1,t2,5d4 <fail>

00000328 <test_27>:
 328:	01b00193          	li	gp,27
 32c:	00000213          	li	tp,0
 330:	00100093          	li	ra,1
 334:	01f00113          	li	sp,31
 338:	00209733          	sll	a4,ra,sp
 33c:	00000013          	nop
 340:	00000013          	nop
 344:	00070313          	mv	t1,a4
 348:	00120213          	addi	tp,tp,1 # 1 <_start+0x1>
 34c:	00200293          	li	t0,2
 350:	fe5210e3          	bne	tp,t0,330 <test_27+0x8>
 354:	800003b7          	lui	t2,0x80000
 358:	26731e63          	bne	t1,t2,5d4 <fail>

0000035c <test_28>:
 35c:	01c00193          	li	gp,28
 360:	00000213          	li	tp,0
 364:	00100093          	li	ra,1
 368:	00700113          	li	sp,7
 36c:	00209733          	sll	a4,ra,sp
 370:	00120213          	addi	tp,tp,1 # 1 <_start+0x1>
 374:	00200293          	li	t0,2
 378:	fe5216e3          	bne	tp,t0,364 <test_28+0x8>
 37c:	08000393          	li	t2,128
 380:	24771a63          	bne	a4,t2,5d4 <fail>

00000384 <test_29>:
 384:	01d00193          	li	gp,29
 388:	00000213          	li	tp,0
 38c:	00100093          	li	ra,1
 390:	00e00113          	li	sp,14
 394:	00000013          	nop
 398:	00209733          	sll	a4,ra,sp
 39c:	00120213          	addi	tp,tp,1 # 1 <_start+0x1>
 3a0:	00200293          	li	t0,2
 3a4:	fe5214e3          	bne	tp,t0,38c <test_29+0x8>
 3a8:	000043b7          	lui	t2,0x4
 3ac:	22771463          	bne	a4,t2,5d4 <fail>

000003b0 <test_30>:
 3b0:	01e00193          	li	gp,30
 3b4:	00000213          	li	tp,0
 3b8:	00100093          	li	ra,1
 3bc:	01f00113          	li	sp,31
 3c0:	00000013          	nop
 3c4:	00000013          	nop
 3c8:	00209733          	sll	a4,ra,sp
 3cc:	00120213          	addi	tp,tp,1 # 1 <_start+0x1>
 3d0:	00200293          	li	t0,2
 3d4:	fe5212e3          	bne	tp,t0,3b8 <test_30+0x8>
 3d8:	800003b7          	lui	t2,0x80000
 3dc:	1e771c63          	bne	a4,t2,5d4 <fail>

000003e0 <test_31>:
 3e0:	01f00193          	li	gp,31
 3e4:	00000213          	li	tp,0
 3e8:	00100093          	li	ra,1
 3ec:	00000013          	nop
 3f0:	00700113          	li	sp,7
 3f4:	00209733          	sll	a4,ra,sp
 3f8:	00120213          	addi	tp,tp,1 # 1 <_start+0x1>
 3fc:	00200293          	li	t0,2
 400:	fe5214e3          	bne	tp,t0,3e8 <test_31+0x8>
 404:	08000393          	li	t2,128
 408:	1c771663          	bne	a4,t2,5d4 <fail>

0000040c <test_32>:
 40c:	02000193          	li	gp,32
 410:	00000213          	li	tp,0
 414:	00100093          	li	ra,1
 418:	00000013          	nop
 41c:	00e00113          	li	sp,14
 420:	00000013          	nop
 424:	00209733          	sll	a4,ra,sp
 428:	00120213          	addi	tp,tp,1 # 1 <_start+0x1>
 42c:	00200293          	li	t0,2
 430:	fe5212e3          	bne	tp,t0,414 <test_32+0x8>
 434:	000043b7          	lui	t2,0x4
 438:	18771e63          	bne	a4,t2,5d4 <fail>

0000043c <test_33>:
 43c:	02100193          	li	gp,33
 440:	00000213          	li	tp,0
 444:	00100093          	li	ra,1
 448:	00000013          	nop
 44c:	00000013          	nop
 450:	01f00113          	li	sp,31
 454:	00209733          	sll	a4,ra,sp
 458:	00120213          	addi	tp,tp,1 # 1 <_start+0x1>
 45c:	00200293          	li	t0,2
 460:	fe5212e3          	bne	tp,t0,444 <test_33+0x8>
 464:	800003b7          	lui	t2,0x80000
 468:	16771663          	bne	a4,t2,5d4 <fail>

0000046c <test_34>:
 46c:	02200193          	li	gp,34
 470:	00000213          	li	tp,0
 474:	00700113          	li	sp,7
 478:	00100093          	li	ra,1
 47c:	00209733          	sll	a4,ra,sp
 480:	00120213          	addi	tp,tp,1 # 1 <_start+0x1>
 484:	00200293          	li	t0,2
 488:	fe5216e3          	bne	tp,t0,474 <test_34+0x8>
 48c:	08000393          	li	t2,128
 490:	14771263          	bne	a4,t2,5d4 <fail>

00000494 <test_35>:
 494:	02300193          	li	gp,35
 498:	00000213          	li	tp,0
 49c:	00e00113          	li	sp,14
 4a0:	00100093          	li	ra,1
 4a4:	00000013          	nop
 4a8:	00209733          	sll	a4,ra,sp
 4ac:	00120213          	addi	tp,tp,1 # 1 <_start+0x1>
 4b0:	00200293          	li	t0,2
 4b4:	fe5214e3          	bne	tp,t0,49c <test_35+0x8>
 4b8:	000043b7          	lui	t2,0x4
 4bc:	10771c63          	bne	a4,t2,5d4 <fail>

000004c0 <test_36>:
 4c0:	02400193          	li	gp,36
 4c4:	00000213          	li	tp,0
 4c8:	01f00113          	li	sp,31
 4cc:	00100093          	li	ra,1
 4d0:	00000013          	nop
 4d4:	00000013          	nop
 4d8:	00209733          	sll	a4,ra,sp
 4dc:	00120213          	addi	tp,tp,1 # 1 <_start+0x1>
 4e0:	00200293          	li	t0,2
 4e4:	fe5212e3          	bne	tp,t0,4c8 <test_36+0x8>
 4e8:	800003b7          	lui	t2,0x80000
 4ec:	0e771463          	bne	a4,t2,5d4 <fail>

000004f0 <test_37>:
 4f0:	02500193          	li	gp,37
 4f4:	00000213          	li	tp,0
 4f8:	00700113          	li	sp,7
 4fc:	00000013          	nop
 500:	00100093          	li	ra,1
 504:	00209733          	sll	a4,ra,sp
 508:	00120213          	addi	tp,tp,1 # 1 <_start+0x1>
 50c:	00200293          	li	t0,2
 510:	fe5214e3          	bne	tp,t0,4f8 <test_37+0x8>
 514:	08000393          	li	t2,128
 518:	0a771e63          	bne	a4,t2,5d4 <fail>

0000051c <test_38>:
 51c:	02600193          	li	gp,38
 520:	00000213          	li	tp,0
 524:	00e00113          	li	sp,14
 528:	00000013          	nop
 52c:	00100093          	li	ra,1
 530:	00000013          	nop
 534:	00209733          	sll	a4,ra,sp
 538:	00120213          	addi	tp,tp,1 # 1 <_start+0x1>
 53c:	00200293          	li	t0,2
 540:	fe5212e3          	bne	tp,t0,524 <test_38+0x8>
 544:	000043b7          	lui	t2,0x4
 548:	08771663          	bne	a4,t2,5d4 <fail>

0000054c <test_39>:
 54c:	02700193          	li	gp,39
 550:	00000213          	li	tp,0
 554:	01f00113          	li	sp,31
 558:	00000013          	nop
 55c:	00000013          	nop
 560:	00100093          	li	ra,1
 564:	00209733          	sll	a4,ra,sp
 568:	00120213          	addi	tp,tp,1 # 1 <_start+0x1>
 56c:	00200293          	li	t0,2
 570:	fe5212e3          	bne	tp,t0,554 <test_39+0x8>
 574:	800003b7          	lui	t2,0x80000
 578:	04771e63          	bne	a4,t2,5d4 <fail>

0000057c <test_40>:
 57c:	02800193          	li	gp,40
 580:	00f00093          	li	ra,15
 584:	00101133          	sll	sp,zero,ra
 588:	00000393          	li	t2,0
 58c:	04711463          	bne	sp,t2,5d4 <fail>

00000590 <test_41>:
 590:	02900193          	li	gp,41
 594:	02000093          	li	ra,32
 598:	00009133          	sll	sp,ra,zero
 59c:	02000393          	li	t2,32
 5a0:	02711a63          	bne	sp,t2,5d4 <fail>

000005a4 <test_42>:
 5a4:	02a00193          	li	gp,42
 5a8:	000010b3          	sll	ra,zero,zero
 5ac:	00000393          	li	t2,0
 5b0:	02709263          	bne	ra,t2,5d4 <fail>

000005b4 <test_43>:
 5b4:	02b00193          	li	gp,43
 5b8:	40000093          	li	ra,1024
 5bc:	00001137          	lui	sp,0x1
 5c0:	80010113          	addi	sp,sp,-2048 # 800 <begin_signature+0x1b0>
 5c4:	00209033          	sll	zero,ra,sp
 5c8:	00000393          	li	t2,0
 5cc:	00701463          	bne	zero,t2,5d4 <fail>
 5d0:	00301863          	bne	zero,gp,5e0 <pass>

000005d4 <fail>:
 5d4:	00100e13          	li	t3,1
 5d8:	00200e93          	li	t4,2
 5dc:	0000006f          	j	5dc <fail+0x8>

000005e0 <pass>:
 5e0:	00100e13          	li	t3,1
 5e4:	00100e93          	li	t4,1
 5e8:	0000006f          	j	5e8 <pass+0x8>
 5ec:	c0001073          	unimp
 5f0:	0000                	unimp
 5f2:	0000                	unimp
 5f4:	0000                	unimp
 5f6:	0000                	unimp
 5f8:	0000                	unimp
 5fa:	0000                	unimp
 5fc:	0000                	unimp
 5fe:	0000                	unimp
