
generated/rv32ui-p-lw:     file format elf32-littleriscv


Disassembly of section .text.init:

00000000 <_start>:
   0:	00000093          	li	ra,0
   4:	00000113          	li	sp,0
   8:	00000193          	li	gp,0
   c:	00000213          	li	tp,0
  10:	00000293          	li	t0,0
  14:	00000313          	li	t1,0
  18:	00000393          	li	t2,0
  1c:	00000413          	li	s0,0
  20:	00000493          	li	s1,0
  24:	00000513          	li	a0,0
  28:	00000593          	li	a1,0
  2c:	00000613          	li	a2,0
  30:	00000693          	li	a3,0
  34:	00000713          	li	a4,0
  38:	00000793          	li	a5,0
  3c:	00000813          	li	a6,0
  40:	00000893          	li	a7,0
  44:	00000913          	li	s2,0
  48:	00000993          	li	s3,0
  4c:	00000a13          	li	s4,0
  50:	00000a93          	li	s5,0
  54:	00000b13          	li	s6,0
  58:	00000b93          	li	s7,0
  5c:	00000c13          	li	s8,0
  60:	00000c93          	li	s9,0
  64:	00000d13          	li	s10,0
  68:	00000d93          	li	s11,0
  6c:	00000e13          	li	t3,0
  70:	00000e93          	li	t4,0
  74:	00000f13          	li	t5,0
  78:	00000f93          	li	t6,0
  7c:	00000293          	li	t0,0
  80:	30529073          	csrw	mtvec,t0

00000084 <test_2>:
  84:	00200193          	li	gp,2
  88:	00ff07b7          	lui	a5,0xff0
  8c:	0ff78793          	addi	a5,a5,255 # ff00ff <_end+0xfefd5f>
  90:	39000093          	li	ra,912
  94:	0000a703          	lw	a4,0(ra)
  98:	00ff03b7          	lui	t2,0xff0
  9c:	0ff38393          	addi	t2,t2,255 # ff00ff <_end+0xfefd5f>
  a0:	26771463          	bne	a4,t2,308 <fail>

000000a4 <test_3>:
  a4:	00300193          	li	gp,3
  a8:	ff0107b7          	lui	a5,0xff010
  ac:	f0078793          	addi	a5,a5,-256 # ff00ff00 <_end+0xff00fb60>
  b0:	39000093          	li	ra,912
  b4:	0040a703          	lw	a4,4(ra)
  b8:	ff0103b7          	lui	t2,0xff010
  bc:	f0038393          	addi	t2,t2,-256 # ff00ff00 <_end+0xff00fb60>
  c0:	24771463          	bne	a4,t2,308 <fail>

000000c4 <test_4>:
  c4:	00400193          	li	gp,4
  c8:	0ff017b7          	lui	a5,0xff01
  cc:	ff078793          	addi	a5,a5,-16 # ff00ff0 <_end+0xff00c50>
  d0:	39000093          	li	ra,912
  d4:	0080a703          	lw	a4,8(ra)
  d8:	0ff013b7          	lui	t2,0xff01
  dc:	ff038393          	addi	t2,t2,-16 # ff00ff0 <_end+0xff00c50>
  e0:	22771463          	bne	a4,t2,308 <fail>

000000e4 <test_5>:
  e4:	00500193          	li	gp,5
  e8:	f00ff7b7          	lui	a5,0xf00ff
  ec:	00f78793          	addi	a5,a5,15 # f00ff00f <_end+0xf00fec6f>
  f0:	39000093          	li	ra,912
  f4:	00c0a703          	lw	a4,12(ra)
  f8:	f00ff3b7          	lui	t2,0xf00ff
  fc:	00f38393          	addi	t2,t2,15 # f00ff00f <_end+0xf00fec6f>
 100:	20771463          	bne	a4,t2,308 <fail>

00000104 <test_6>:
 104:	00600193          	li	gp,6
 108:	00ff07b7          	lui	a5,0xff0
 10c:	0ff78793          	addi	a5,a5,255 # ff00ff <_end+0xfefd5f>
 110:	39c00093          	li	ra,924
 114:	ff40a703          	lw	a4,-12(ra)
 118:	00ff03b7          	lui	t2,0xff0
 11c:	0ff38393          	addi	t2,t2,255 # ff00ff <_end+0xfefd5f>
 120:	1e771463          	bne	a4,t2,308 <fail>

00000124 <test_7>:
 124:	00700193          	li	gp,7
 128:	ff0107b7          	lui	a5,0xff010
 12c:	f0078793          	addi	a5,a5,-256 # ff00ff00 <_end+0xff00fb60>
 130:	39c00093          	li	ra,924
 134:	ff80a703          	lw	a4,-8(ra)
 138:	ff0103b7          	lui	t2,0xff010
 13c:	f0038393          	addi	t2,t2,-256 # ff00ff00 <_end+0xff00fb60>
 140:	1c771463          	bne	a4,t2,308 <fail>

00000144 <test_8>:
 144:	00800193          	li	gp,8
 148:	0ff017b7          	lui	a5,0xff01
 14c:	ff078793          	addi	a5,a5,-16 # ff00ff0 <_end+0xff00c50>
 150:	39c00093          	li	ra,924
 154:	ffc0a703          	lw	a4,-4(ra)
 158:	0ff013b7          	lui	t2,0xff01
 15c:	ff038393          	addi	t2,t2,-16 # ff00ff0 <_end+0xff00c50>
 160:	1a771463          	bne	a4,t2,308 <fail>

00000164 <test_9>:
 164:	00900193          	li	gp,9
 168:	f00ff7b7          	lui	a5,0xf00ff
 16c:	00f78793          	addi	a5,a5,15 # f00ff00f <_end+0xf00fec6f>
 170:	39c00093          	li	ra,924
 174:	0000a703          	lw	a4,0(ra)
 178:	f00ff3b7          	lui	t2,0xf00ff
 17c:	00f38393          	addi	t2,t2,15 # f00ff00f <_end+0xf00fec6f>
 180:	18771463          	bne	a4,t2,308 <fail>

00000184 <test_10>:
 184:	00a00193          	li	gp,10
 188:	39000093          	li	ra,912
 18c:	fe008093          	addi	ra,ra,-32
 190:	0200a283          	lw	t0,32(ra)
 194:	00ff03b7          	lui	t2,0xff0
 198:	0ff38393          	addi	t2,t2,255 # ff00ff <_end+0xfefd5f>
 19c:	16729663          	bne	t0,t2,308 <fail>

000001a0 <test_11>:
 1a0:	00b00193          	li	gp,11
 1a4:	39000093          	li	ra,912
 1a8:	ffd08093          	addi	ra,ra,-3
 1ac:	0070a283          	lw	t0,7(ra)
 1b0:	ff0103b7          	lui	t2,0xff010
 1b4:	f0038393          	addi	t2,t2,-256 # ff00ff00 <_end+0xff00fb60>
 1b8:	14729863          	bne	t0,t2,308 <fail>

000001bc <test_12>:
 1bc:	00c00193          	li	gp,12
 1c0:	00000213          	li	tp,0
 1c4:	39400093          	li	ra,916
 1c8:	0040a703          	lw	a4,4(ra)
 1cc:	00070313          	mv	t1,a4
 1d0:	0ff013b7          	lui	t2,0xff01
 1d4:	ff038393          	addi	t2,t2,-16 # ff00ff0 <_end+0xff00c50>
 1d8:	12731863          	bne	t1,t2,308 <fail>
 1dc:	00120213          	addi	tp,tp,1 # 1 <_start+0x1>
 1e0:	00200293          	li	t0,2
 1e4:	fe5210e3          	bne	tp,t0,1c4 <test_12+0x8>

000001e8 <test_13>:
 1e8:	00d00193          	li	gp,13
 1ec:	00000213          	li	tp,0
 1f0:	39800093          	li	ra,920
 1f4:	0040a703          	lw	a4,4(ra)
 1f8:	00000013          	nop
 1fc:	00070313          	mv	t1,a4
 200:	f00ff3b7          	lui	t2,0xf00ff
 204:	00f38393          	addi	t2,t2,15 # f00ff00f <_end+0xf00fec6f>
 208:	10731063          	bne	t1,t2,308 <fail>
 20c:	00120213          	addi	tp,tp,1 # 1 <_start+0x1>
 210:	00200293          	li	t0,2
 214:	fc521ee3          	bne	tp,t0,1f0 <test_13+0x8>

00000218 <test_14>:
 218:	00e00193          	li	gp,14
 21c:	00000213          	li	tp,0
 220:	39000093          	li	ra,912
 224:	0040a703          	lw	a4,4(ra)
 228:	00000013          	nop
 22c:	00000013          	nop
 230:	00070313          	mv	t1,a4
 234:	ff0103b7          	lui	t2,0xff010
 238:	f0038393          	addi	t2,t2,-256 # ff00ff00 <_end+0xff00fb60>
 23c:	0c731663          	bne	t1,t2,308 <fail>
 240:	00120213          	addi	tp,tp,1 # 1 <_start+0x1>
 244:	00200293          	li	t0,2
 248:	fc521ce3          	bne	tp,t0,220 <test_14+0x8>

0000024c <test_15>:
 24c:	00f00193          	li	gp,15
 250:	00000213          	li	tp,0
 254:	39400093          	li	ra,916
 258:	0040a703          	lw	a4,4(ra)
 25c:	0ff013b7          	lui	t2,0xff01
 260:	ff038393          	addi	t2,t2,-16 # ff00ff0 <_end+0xff00c50>
 264:	0a771263          	bne	a4,t2,308 <fail>
 268:	00120213          	addi	tp,tp,1 # 1 <_start+0x1>
 26c:	00200293          	li	t0,2
 270:	fe5212e3          	bne	tp,t0,254 <test_15+0x8>

00000274 <test_16>:
 274:	01000193          	li	gp,16
 278:	00000213          	li	tp,0
 27c:	39800093          	li	ra,920
 280:	00000013          	nop
 284:	0040a703          	lw	a4,4(ra)
 288:	f00ff3b7          	lui	t2,0xf00ff
 28c:	00f38393          	addi	t2,t2,15 # f00ff00f <_end+0xf00fec6f>
 290:	06771c63          	bne	a4,t2,308 <fail>
 294:	00120213          	addi	tp,tp,1 # 1 <_start+0x1>
 298:	00200293          	li	t0,2
 29c:	fe5210e3          	bne	tp,t0,27c <test_16+0x8>

000002a0 <test_17>:
 2a0:	01100193          	li	gp,17
 2a4:	00000213          	li	tp,0
 2a8:	39000093          	li	ra,912
 2ac:	00000013          	nop
 2b0:	00000013          	nop
 2b4:	0040a703          	lw	a4,4(ra)
 2b8:	ff0103b7          	lui	t2,0xff010
 2bc:	f0038393          	addi	t2,t2,-256 # ff00ff00 <_end+0xff00fb60>
 2c0:	04771463          	bne	a4,t2,308 <fail>
 2c4:	00120213          	addi	tp,tp,1 # 1 <_start+0x1>
 2c8:	00200293          	li	t0,2
 2cc:	fc521ee3          	bne	tp,t0,2a8 <test_17+0x8>

000002d0 <test_18>:
 2d0:	01200193          	li	gp,18
 2d4:	39000293          	li	t0,912
 2d8:	0002a103          	lw	sp,0(t0)
 2dc:	00200113          	li	sp,2
 2e0:	00200393          	li	t2,2
 2e4:	02711263          	bne	sp,t2,308 <fail>

000002e8 <test_19>:
 2e8:	01300193          	li	gp,19
 2ec:	39000293          	li	t0,912
 2f0:	0002a103          	lw	sp,0(t0)
 2f4:	00000013          	nop
 2f8:	00200113          	li	sp,2
 2fc:	00200393          	li	t2,2
 300:	00711463          	bne	sp,t2,308 <fail>
 304:	00301863          	bne	zero,gp,314 <pass>

00000308 <fail>:
 308:	00100e13          	li	t3,1
 30c:	00200e93          	li	t4,2
 310:	0000006f          	j	310 <fail+0x8>

00000314 <pass>:
 314:	00100e13          	li	t3,1
 318:	00100e93          	li	t4,1
 31c:	0000006f          	j	31c <pass+0x8>
 320:	c0001073          	unimp
 324:	0000                	unimp
 326:	0000                	unimp
 328:	0000                	unimp
 32a:	0000                	unimp
 32c:	0000                	unimp
 32e:	0000                	unimp
 330:	0000                	unimp
 332:	0000                	unimp
 334:	0000                	unimp
 336:	0000                	unimp

Disassembly of section .data:

00000390 <begin_signature>:
 390:	00ff                	0xff
 392:	00ff                	0xff

00000394 <tdat2>:
 394:	ff00                	fsw	fs0,56(a4)
 396:	ff00                	fsw	fs0,56(a4)

00000398 <tdat3>:
 398:	0ff0                	addi	a2,sp,988
 39a:	0ff0                	addi	a2,sp,988

0000039c <tdat4>:
 39c:	f00ff00f          	0xf00ff00f
