
generated/rv32ui-p-lw:     file format elf32-littleriscv


Disassembly of section .text.init:

00000000 <_start>:
   0:	00000093          	li	ra,0
   4:	00000113          	li	sp,0
   8:	00000193          	li	gp,0
   c:	00000213          	li	tp,0
  10:	00000293          	li	t0,0
  14:	00000313          	li	t1,0
  18:	00000393          	li	t2,0
  1c:	00000413          	li	s0,0
  20:	00000493          	li	s1,0
  24:	00000513          	li	a0,0
  28:	00000593          	li	a1,0
  2c:	00000613          	li	a2,0
  30:	00000693          	li	a3,0
  34:	00000713          	li	a4,0
  38:	00000793          	li	a5,0
  3c:	00000813          	li	a6,0
  40:	00000893          	li	a7,0
  44:	00000913          	li	s2,0
  48:	00000993          	li	s3,0
  4c:	00000a13          	li	s4,0
  50:	00000a93          	li	s5,0
  54:	00000b13          	li	s6,0
  58:	00000b93          	li	s7,0
  5c:	00000c13          	li	s8,0
  60:	00000c93          	li	s9,0
  64:	00000d13          	li	s10,0
  68:	00000d93          	li	s11,0
  6c:	00000e13          	li	t3,0
  70:	00000e93          	li	t4,0
  74:	00000f13          	li	t5,0
  78:	00000f93          	li	t6,0

0000007c <test_2>:
  7c:	00200193          	li	gp,2
  80:	00ff07b7          	lui	a5,0xff0
  84:	0ff78793          	addi	a5,a5,255 # ff00ff <_end+0xfee0ef>
  88:	00002097          	auipc	ra,0x2
  8c:	f7808093          	addi	ra,ra,-136 # 2000 <begin_signature>
  90:	0000a703          	lw	a4,0(ra)
  94:	00ff03b7          	lui	t2,0xff0
  98:	0ff38393          	addi	t2,t2,255 # ff00ff <_end+0xfee0ef>
  9c:	2a771663          	bne	a4,t2,348 <fail>

000000a0 <test_3>:
  a0:	00300193          	li	gp,3
  a4:	ff0107b7          	lui	a5,0xff010
  a8:	f0078793          	addi	a5,a5,-256 # ff00ff00 <_end+0xff00def0>
  ac:	00002097          	auipc	ra,0x2
  b0:	f5408093          	addi	ra,ra,-172 # 2000 <begin_signature>
  b4:	0040a703          	lw	a4,4(ra)
  b8:	ff0103b7          	lui	t2,0xff010
  bc:	f0038393          	addi	t2,t2,-256 # ff00ff00 <_end+0xff00def0>
  c0:	28771463          	bne	a4,t2,348 <fail>

000000c4 <test_4>:
  c4:	00400193          	li	gp,4
  c8:	0ff017b7          	lui	a5,0xff01
  cc:	ff078793          	addi	a5,a5,-16 # ff00ff0 <_end+0xfefefe0>
  d0:	00002097          	auipc	ra,0x2
  d4:	f3008093          	addi	ra,ra,-208 # 2000 <begin_signature>
  d8:	0080a703          	lw	a4,8(ra)
  dc:	0ff013b7          	lui	t2,0xff01
  e0:	ff038393          	addi	t2,t2,-16 # ff00ff0 <_end+0xfefefe0>
  e4:	26771263          	bne	a4,t2,348 <fail>

000000e8 <test_5>:
  e8:	00500193          	li	gp,5
  ec:	f00ff7b7          	lui	a5,0xf00ff
  f0:	00f78793          	addi	a5,a5,15 # f00ff00f <_end+0xf00fcfff>
  f4:	00002097          	auipc	ra,0x2
  f8:	f0c08093          	addi	ra,ra,-244 # 2000 <begin_signature>
  fc:	00c0a703          	lw	a4,12(ra)
 100:	f00ff3b7          	lui	t2,0xf00ff
 104:	00f38393          	addi	t2,t2,15 # f00ff00f <_end+0xf00fcfff>
 108:	24771063          	bne	a4,t2,348 <fail>

0000010c <test_6>:
 10c:	00600193          	li	gp,6
 110:	00ff07b7          	lui	a5,0xff0
 114:	0ff78793          	addi	a5,a5,255 # ff00ff <_end+0xfee0ef>
 118:	00002097          	auipc	ra,0x2
 11c:	ef408093          	addi	ra,ra,-268 # 200c <tdat4>
 120:	ff40a703          	lw	a4,-12(ra)
 124:	00ff03b7          	lui	t2,0xff0
 128:	0ff38393          	addi	t2,t2,255 # ff00ff <_end+0xfee0ef>
 12c:	20771e63          	bne	a4,t2,348 <fail>

00000130 <test_7>:
 130:	00700193          	li	gp,7
 134:	ff0107b7          	lui	a5,0xff010
 138:	f0078793          	addi	a5,a5,-256 # ff00ff00 <_end+0xff00def0>
 13c:	00002097          	auipc	ra,0x2
 140:	ed008093          	addi	ra,ra,-304 # 200c <tdat4>
 144:	ff80a703          	lw	a4,-8(ra)
 148:	ff0103b7          	lui	t2,0xff010
 14c:	f0038393          	addi	t2,t2,-256 # ff00ff00 <_end+0xff00def0>
 150:	1e771c63          	bne	a4,t2,348 <fail>

00000154 <test_8>:
 154:	00800193          	li	gp,8
 158:	0ff017b7          	lui	a5,0xff01
 15c:	ff078793          	addi	a5,a5,-16 # ff00ff0 <_end+0xfefefe0>
 160:	00002097          	auipc	ra,0x2
 164:	eac08093          	addi	ra,ra,-340 # 200c <tdat4>
 168:	ffc0a703          	lw	a4,-4(ra)
 16c:	0ff013b7          	lui	t2,0xff01
 170:	ff038393          	addi	t2,t2,-16 # ff00ff0 <_end+0xfefefe0>
 174:	1c771a63          	bne	a4,t2,348 <fail>

00000178 <test_9>:
 178:	00900193          	li	gp,9
 17c:	f00ff7b7          	lui	a5,0xf00ff
 180:	00f78793          	addi	a5,a5,15 # f00ff00f <_end+0xf00fcfff>
 184:	00002097          	auipc	ra,0x2
 188:	e8808093          	addi	ra,ra,-376 # 200c <tdat4>
 18c:	0000a703          	lw	a4,0(ra)
 190:	f00ff3b7          	lui	t2,0xf00ff
 194:	00f38393          	addi	t2,t2,15 # f00ff00f <_end+0xf00fcfff>
 198:	1a771863          	bne	a4,t2,348 <fail>

0000019c <test_10>:
 19c:	00a00193          	li	gp,10
 1a0:	00002097          	auipc	ra,0x2
 1a4:	e6008093          	addi	ra,ra,-416 # 2000 <begin_signature>
 1a8:	fe008093          	addi	ra,ra,-32
 1ac:	0200a283          	lw	t0,32(ra)
 1b0:	00ff03b7          	lui	t2,0xff0
 1b4:	0ff38393          	addi	t2,t2,255 # ff00ff <_end+0xfee0ef>
 1b8:	18729863          	bne	t0,t2,348 <fail>

000001bc <test_11>:
 1bc:	00b00193          	li	gp,11
 1c0:	00002097          	auipc	ra,0x2
 1c4:	e4008093          	addi	ra,ra,-448 # 2000 <begin_signature>
 1c8:	ffd08093          	addi	ra,ra,-3
 1cc:	0070a283          	lw	t0,7(ra)
 1d0:	ff0103b7          	lui	t2,0xff010
 1d4:	f0038393          	addi	t2,t2,-256 # ff00ff00 <_end+0xff00def0>
 1d8:	16729863          	bne	t0,t2,348 <fail>

000001dc <test_12>:
 1dc:	00c00193          	li	gp,12
 1e0:	00000213          	li	tp,0
 1e4:	00002097          	auipc	ra,0x2
 1e8:	e2008093          	addi	ra,ra,-480 # 2004 <tdat2>
 1ec:	0040a703          	lw	a4,4(ra)
 1f0:	00070313          	mv	t1,a4
 1f4:	0ff013b7          	lui	t2,0xff01
 1f8:	ff038393          	addi	t2,t2,-16 # ff00ff0 <_end+0xfefefe0>
 1fc:	14731663          	bne	t1,t2,348 <fail>
 200:	00120213          	addi	tp,tp,1 # 1 <_start+0x1>
 204:	00200293          	li	t0,2
 208:	fc521ee3          	bne	tp,t0,1e4 <test_12+0x8>

0000020c <test_13>:
 20c:	00d00193          	li	gp,13
 210:	00000213          	li	tp,0
 214:	00002097          	auipc	ra,0x2
 218:	df408093          	addi	ra,ra,-524 # 2008 <tdat3>
 21c:	0040a703          	lw	a4,4(ra)
 220:	00000013          	nop
 224:	00070313          	mv	t1,a4
 228:	f00ff3b7          	lui	t2,0xf00ff
 22c:	00f38393          	addi	t2,t2,15 # f00ff00f <_end+0xf00fcfff>
 230:	10731c63          	bne	t1,t2,348 <fail>
 234:	00120213          	addi	tp,tp,1 # 1 <_start+0x1>
 238:	00200293          	li	t0,2
 23c:	fc521ce3          	bne	tp,t0,214 <test_13+0x8>

00000240 <test_14>:
 240:	00e00193          	li	gp,14
 244:	00000213          	li	tp,0
 248:	00002097          	auipc	ra,0x2
 24c:	db808093          	addi	ra,ra,-584 # 2000 <begin_signature>
 250:	0040a703          	lw	a4,4(ra)
 254:	00000013          	nop
 258:	00000013          	nop
 25c:	00070313          	mv	t1,a4
 260:	ff0103b7          	lui	t2,0xff010
 264:	f0038393          	addi	t2,t2,-256 # ff00ff00 <_end+0xff00def0>
 268:	0e731063          	bne	t1,t2,348 <fail>
 26c:	00120213          	addi	tp,tp,1 # 1 <_start+0x1>
 270:	00200293          	li	t0,2
 274:	fc521ae3          	bne	tp,t0,248 <test_14+0x8>

00000278 <test_15>:
 278:	00f00193          	li	gp,15
 27c:	00000213          	li	tp,0
 280:	00002097          	auipc	ra,0x2
 284:	d8408093          	addi	ra,ra,-636 # 2004 <tdat2>
 288:	0040a703          	lw	a4,4(ra)
 28c:	0ff013b7          	lui	t2,0xff01
 290:	ff038393          	addi	t2,t2,-16 # ff00ff0 <_end+0xfefefe0>
 294:	0a771a63          	bne	a4,t2,348 <fail>
 298:	00120213          	addi	tp,tp,1 # 1 <_start+0x1>
 29c:	00200293          	li	t0,2
 2a0:	fe5210e3          	bne	tp,t0,280 <test_15+0x8>

000002a4 <test_16>:
 2a4:	01000193          	li	gp,16
 2a8:	00000213          	li	tp,0
 2ac:	00002097          	auipc	ra,0x2
 2b0:	d5c08093          	addi	ra,ra,-676 # 2008 <tdat3>
 2b4:	00000013          	nop
 2b8:	0040a703          	lw	a4,4(ra)
 2bc:	f00ff3b7          	lui	t2,0xf00ff
 2c0:	00f38393          	addi	t2,t2,15 # f00ff00f <_end+0xf00fcfff>
 2c4:	08771263          	bne	a4,t2,348 <fail>
 2c8:	00120213          	addi	tp,tp,1 # 1 <_start+0x1>
 2cc:	00200293          	li	t0,2
 2d0:	fc521ee3          	bne	tp,t0,2ac <test_16+0x8>

000002d4 <test_17>:
 2d4:	01100193          	li	gp,17
 2d8:	00000213          	li	tp,0
 2dc:	00002097          	auipc	ra,0x2
 2e0:	d2408093          	addi	ra,ra,-732 # 2000 <begin_signature>
 2e4:	00000013          	nop
 2e8:	00000013          	nop
 2ec:	0040a703          	lw	a4,4(ra)
 2f0:	ff0103b7          	lui	t2,0xff010
 2f4:	f0038393          	addi	t2,t2,-256 # ff00ff00 <_end+0xff00def0>
 2f8:	04771863          	bne	a4,t2,348 <fail>
 2fc:	00120213          	addi	tp,tp,1 # 1 <_start+0x1>
 300:	00200293          	li	t0,2
 304:	fc521ce3          	bne	tp,t0,2dc <test_17+0x8>

00000308 <test_18>:
 308:	01200193          	li	gp,18
 30c:	00002297          	auipc	t0,0x2
 310:	cf428293          	addi	t0,t0,-780 # 2000 <begin_signature>
 314:	0002a103          	lw	sp,0(t0)
 318:	00200113          	li	sp,2
 31c:	00200393          	li	t2,2
 320:	02711463          	bne	sp,t2,348 <fail>

00000324 <test_19>:
 324:	01300193          	li	gp,19
 328:	00002297          	auipc	t0,0x2
 32c:	cd828293          	addi	t0,t0,-808 # 2000 <begin_signature>
 330:	0002a103          	lw	sp,0(t0)
 334:	00000013          	nop
 338:	00200113          	li	sp,2
 33c:	00200393          	li	t2,2
 340:	00711463          	bne	sp,t2,348 <fail>
 344:	00301863          	bne	zero,gp,354 <pass>

00000348 <fail>:
 348:	00100e13          	li	t3,1
 34c:	00000e93          	li	t4,0

00000350 <fail_loop>:
 350:	0000006f          	j	350 <fail_loop>

00000354 <pass>:
 354:	00100e13          	li	t3,1
 358:	00100e93          	li	t4,1

0000035c <pass_loop>:
 35c:	0000006f          	j	35c <pass_loop>
 360:	c0001073          	unimp
 364:	0000                	unimp
 366:	0000                	unimp
 368:	0000                	unimp
 36a:	0000                	unimp
 36c:	0000                	unimp
 36e:	0000                	unimp
 370:	0000                	unimp
 372:	0000                	unimp
 374:	0000                	unimp
 376:	0000                	unimp
 378:	0000                	unimp
 37a:	0000                	unimp
 37c:	0000                	unimp
 37e:	0000                	unimp
 380:	0000                	unimp
 382:	0000                	unimp
