
generated/rv32ui-p-lbu:     file format elf32-littleriscv


Disassembly of section .text.init:

00000000 <_start>:
   0:	00000093          	li	ra,0
   4:	00000113          	li	sp,0
   8:	00000193          	li	gp,0
   c:	00000213          	li	tp,0
  10:	00000293          	li	t0,0
  14:	00000313          	li	t1,0
  18:	00000393          	li	t2,0
  1c:	00000413          	li	s0,0
  20:	00000493          	li	s1,0
  24:	00000513          	li	a0,0
  28:	00000593          	li	a1,0
  2c:	00000613          	li	a2,0
  30:	00000693          	li	a3,0
  34:	00000713          	li	a4,0
  38:	00000793          	li	a5,0
  3c:	00000813          	li	a6,0
  40:	00000893          	li	a7,0
  44:	00000913          	li	s2,0
  48:	00000993          	li	s3,0
  4c:	00000a13          	li	s4,0
  50:	00000a93          	li	s5,0
  54:	00000b13          	li	s6,0
  58:	00000b93          	li	s7,0
  5c:	00000c13          	li	s8,0
  60:	00000c93          	li	s9,0
  64:	00000d13          	li	s10,0
  68:	00000d93          	li	s11,0
  6c:	00000e13          	li	t3,0
  70:	00000e93          	li	t4,0
  74:	00000f13          	li	t5,0
  78:	00000f93          	li	t6,0
  7c:	00000293          	li	t0,0
  80:	30529073          	csrw	mtvec,t0

00000084 <test_2>:
  84:	00200193          	li	gp,2
  88:	0ff00793          	li	a5,255
  8c:	35000093          	li	ra,848
  90:	0000c703          	lbu	a4,0(ra)
  94:	0ff00393          	li	t2,255
  98:	20771863          	bne	a4,t2,2a8 <fail>

0000009c <test_3>:
  9c:	00300193          	li	gp,3
  a0:	00000793          	li	a5,0
  a4:	35000093          	li	ra,848
  a8:	0010c703          	lbu	a4,1(ra)
  ac:	00000393          	li	t2,0
  b0:	1e771c63          	bne	a4,t2,2a8 <fail>

000000b4 <test_4>:
  b4:	00400193          	li	gp,4
  b8:	0f000793          	li	a5,240
  bc:	35000093          	li	ra,848
  c0:	0020c703          	lbu	a4,2(ra)
  c4:	0f000393          	li	t2,240
  c8:	1e771063          	bne	a4,t2,2a8 <fail>

000000cc <test_5>:
  cc:	00500193          	li	gp,5
  d0:	00f00793          	li	a5,15
  d4:	35000093          	li	ra,848
  d8:	0030c703          	lbu	a4,3(ra)
  dc:	00f00393          	li	t2,15
  e0:	1c771463          	bne	a4,t2,2a8 <fail>

000000e4 <test_6>:
  e4:	00600193          	li	gp,6
  e8:	0ff00793          	li	a5,255
  ec:	35300093          	li	ra,851
  f0:	ffd0c703          	lbu	a4,-3(ra)
  f4:	0ff00393          	li	t2,255
  f8:	1a771863          	bne	a4,t2,2a8 <fail>

000000fc <test_7>:
  fc:	00700193          	li	gp,7
 100:	00000793          	li	a5,0
 104:	35300093          	li	ra,851
 108:	ffe0c703          	lbu	a4,-2(ra)
 10c:	00000393          	li	t2,0
 110:	18771c63          	bne	a4,t2,2a8 <fail>

00000114 <test_8>:
 114:	00800193          	li	gp,8
 118:	0f000793          	li	a5,240
 11c:	35300093          	li	ra,851
 120:	fff0c703          	lbu	a4,-1(ra)
 124:	0f000393          	li	t2,240
 128:	18771063          	bne	a4,t2,2a8 <fail>

0000012c <test_9>:
 12c:	00900193          	li	gp,9
 130:	00f00793          	li	a5,15
 134:	35300093          	li	ra,851
 138:	0000c703          	lbu	a4,0(ra)
 13c:	00f00393          	li	t2,15
 140:	16771463          	bne	a4,t2,2a8 <fail>

00000144 <test_10>:
 144:	00a00193          	li	gp,10
 148:	35000093          	li	ra,848
 14c:	fe008093          	addi	ra,ra,-32
 150:	0200c283          	lbu	t0,32(ra)
 154:	0ff00393          	li	t2,255
 158:	14729863          	bne	t0,t2,2a8 <fail>

0000015c <test_11>:
 15c:	00b00193          	li	gp,11
 160:	35000093          	li	ra,848
 164:	ffa08093          	addi	ra,ra,-6
 168:	0070c283          	lbu	t0,7(ra)
 16c:	00000393          	li	t2,0
 170:	12729c63          	bne	t0,t2,2a8 <fail>

00000174 <test_12>:
 174:	00c00193          	li	gp,12
 178:	00000213          	li	tp,0
 17c:	35100093          	li	ra,849
 180:	0010c703          	lbu	a4,1(ra)
 184:	00070313          	mv	t1,a4
 188:	0f000393          	li	t2,240
 18c:	10731e63          	bne	t1,t2,2a8 <fail>
 190:	00120213          	addi	tp,tp,1 # 1 <_start+0x1>
 194:	00200293          	li	t0,2
 198:	fe5212e3          	bne	tp,t0,17c <test_12+0x8>

0000019c <test_13>:
 19c:	00d00193          	li	gp,13
 1a0:	00000213          	li	tp,0
 1a4:	35200093          	li	ra,850
 1a8:	0010c703          	lbu	a4,1(ra)
 1ac:	00000013          	nop
 1b0:	00070313          	mv	t1,a4
 1b4:	00f00393          	li	t2,15
 1b8:	0e731863          	bne	t1,t2,2a8 <fail>
 1bc:	00120213          	addi	tp,tp,1 # 1 <_start+0x1>
 1c0:	00200293          	li	t0,2
 1c4:	fe5210e3          	bne	tp,t0,1a4 <test_13+0x8>

000001c8 <test_14>:
 1c8:	00e00193          	li	gp,14
 1cc:	00000213          	li	tp,0
 1d0:	35000093          	li	ra,848
 1d4:	0010c703          	lbu	a4,1(ra)
 1d8:	00000013          	nop
 1dc:	00000013          	nop
 1e0:	00070313          	mv	t1,a4
 1e4:	00000393          	li	t2,0
 1e8:	0c731063          	bne	t1,t2,2a8 <fail>
 1ec:	00120213          	addi	tp,tp,1 # 1 <_start+0x1>
 1f0:	00200293          	li	t0,2
 1f4:	fc521ee3          	bne	tp,t0,1d0 <test_14+0x8>

000001f8 <test_15>:
 1f8:	00f00193          	li	gp,15
 1fc:	00000213          	li	tp,0
 200:	35100093          	li	ra,849
 204:	0010c703          	lbu	a4,1(ra)
 208:	0f000393          	li	t2,240
 20c:	08771e63          	bne	a4,t2,2a8 <fail>
 210:	00120213          	addi	tp,tp,1 # 1 <_start+0x1>
 214:	00200293          	li	t0,2
 218:	fe5214e3          	bne	tp,t0,200 <test_15+0x8>

0000021c <test_16>:
 21c:	01000193          	li	gp,16
 220:	00000213          	li	tp,0
 224:	35200093          	li	ra,850
 228:	00000013          	nop
 22c:	0010c703          	lbu	a4,1(ra)
 230:	00f00393          	li	t2,15
 234:	06771a63          	bne	a4,t2,2a8 <fail>
 238:	00120213          	addi	tp,tp,1 # 1 <_start+0x1>
 23c:	00200293          	li	t0,2
 240:	fe5212e3          	bne	tp,t0,224 <test_16+0x8>

00000244 <test_17>:
 244:	01100193          	li	gp,17
 248:	00000213          	li	tp,0
 24c:	35000093          	li	ra,848
 250:	00000013          	nop
 254:	00000013          	nop
 258:	0010c703          	lbu	a4,1(ra)
 25c:	00000393          	li	t2,0
 260:	04771463          	bne	a4,t2,2a8 <fail>
 264:	00120213          	addi	tp,tp,1 # 1 <_start+0x1>
 268:	00200293          	li	t0,2
 26c:	fe5210e3          	bne	tp,t0,24c <test_17+0x8>

00000270 <test_18>:
 270:	01200193          	li	gp,18
 274:	35000293          	li	t0,848
 278:	0002c103          	lbu	sp,0(t0)
 27c:	00200113          	li	sp,2
 280:	00200393          	li	t2,2
 284:	02711263          	bne	sp,t2,2a8 <fail>

00000288 <test_19>:
 288:	01300193          	li	gp,19
 28c:	35000293          	li	t0,848
 290:	0002c103          	lbu	sp,0(t0)
 294:	00000013          	nop
 298:	00200113          	li	sp,2
 29c:	00200393          	li	t2,2
 2a0:	00711463          	bne	sp,t2,2a8 <fail>
 2a4:	00301863          	bne	zero,gp,2b4 <pass>

000002a8 <fail>:
 2a8:	00100e13          	li	t3,1
 2ac:	00200e93          	li	t4,2
 2b0:	0000006f          	j	2b0 <fail+0x8>

000002b4 <pass>:
 2b4:	00100e13          	li	t3,1
 2b8:	00100e93          	li	t4,1
 2bc:	0000006f          	j	2bc <pass+0x8>
 2c0:	c0001073          	unimp
 2c4:	0000                	unimp
 2c6:	0000                	unimp
 2c8:	0000                	unimp
 2ca:	0000                	unimp
 2cc:	0000                	unimp
 2ce:	0000                	unimp
 2d0:	0000                	unimp
 2d2:	0000                	unimp
 2d4:	0000                	unimp
 2d6:	0000                	unimp
 2d8:	0000                	unimp
 2da:	0000                	unimp
 2dc:	0000                	unimp
 2de:	0000                	unimp
 2e0:	0000                	unimp
 2e2:	0000                	unimp
 2e4:	0000                	unimp
 2e6:	0000                	unimp
 2e8:	0000                	unimp
 2ea:	0000                	unimp
 2ec:	0000                	unimp
 2ee:	0000                	unimp
 2f0:	0000                	unimp
 2f2:	0000                	unimp
 2f4:	0000                	unimp
 2f6:	0000                	unimp

Disassembly of section .data:

00000350 <begin_signature>:
 350:	                	0xff

00000351 <tdat2>:
 351:	                	fsw	fs0,32(s0)

00000352 <tdat3>:
 352:	                	addi	a2,sp,988

00000353 <tdat4>:
 353:	0000000f          	fence	unknown,unknown
 357:	0000                	unimp
 359:	0000                	unimp
 35b:	0000                	unimp
 35d:	0000                	unimp
 35f:	00              	Address 0x000000000000035f is out of bounds.

