
generated/rv32ui-p-lhu:     file format elf32-littleriscv


Disassembly of section .text.init:

00000000 <_start>:
   0:	00000093          	li	ra,0
   4:	00000113          	li	sp,0
   8:	00000193          	li	gp,0
   c:	00000213          	li	tp,0
  10:	00000293          	li	t0,0
  14:	00000313          	li	t1,0
  18:	00000393          	li	t2,0
  1c:	00000413          	li	s0,0
  20:	00000493          	li	s1,0
  24:	00000513          	li	a0,0
  28:	00000593          	li	a1,0
  2c:	00000613          	li	a2,0
  30:	00000693          	li	a3,0
  34:	00000713          	li	a4,0
  38:	00000793          	li	a5,0
  3c:	00000813          	li	a6,0
  40:	00000893          	li	a7,0
  44:	00000913          	li	s2,0
  48:	00000993          	li	s3,0
  4c:	00000a13          	li	s4,0
  50:	00000a93          	li	s5,0
  54:	00000b13          	li	s6,0
  58:	00000b93          	li	s7,0
  5c:	00000c13          	li	s8,0
  60:	00000c93          	li	s9,0
  64:	00000d13          	li	s10,0
  68:	00000d93          	li	s11,0
  6c:	00000e13          	li	t3,0
  70:	00000e93          	li	t4,0
  74:	00000f13          	li	t5,0
  78:	00000f93          	li	t6,0
  7c:	00000293          	li	t0,0
  80:	30529073          	csrw	mtvec,t0

00000084 <test_2>:
  84:	00200193          	li	gp,2
  88:	0ff00793          	li	a5,255
  8c:	39000093          	li	ra,912
  90:	0000d703          	lhu	a4,0(ra)
  94:	0ff00393          	li	t2,255
  98:	24771e63          	bne	a4,t2,2f4 <fail>

0000009c <test_3>:
  9c:	00300193          	li	gp,3
  a0:	000107b7          	lui	a5,0x10
  a4:	f0078793          	addi	a5,a5,-256 # ff00 <_end+0xfb60>
  a8:	39000093          	li	ra,912
  ac:	0020d703          	lhu	a4,2(ra)
  b0:	000103b7          	lui	t2,0x10
  b4:	f0038393          	addi	t2,t2,-256 # ff00 <_end+0xfb60>
  b8:	22771e63          	bne	a4,t2,2f4 <fail>

000000bc <test_4>:
  bc:	00400193          	li	gp,4
  c0:	000017b7          	lui	a5,0x1
  c4:	ff078793          	addi	a5,a5,-16 # ff0 <_end+0xc50>
  c8:	39000093          	li	ra,912
  cc:	0040d703          	lhu	a4,4(ra)
  d0:	000013b7          	lui	t2,0x1
  d4:	ff038393          	addi	t2,t2,-16 # ff0 <_end+0xc50>
  d8:	20771e63          	bne	a4,t2,2f4 <fail>

000000dc <test_5>:
  dc:	00500193          	li	gp,5
  e0:	0000f7b7          	lui	a5,0xf
  e4:	00f78793          	addi	a5,a5,15 # f00f <_end+0xec6f>
  e8:	39000093          	li	ra,912
  ec:	0060d703          	lhu	a4,6(ra)
  f0:	0000f3b7          	lui	t2,0xf
  f4:	00f38393          	addi	t2,t2,15 # f00f <_end+0xec6f>
  f8:	1e771e63          	bne	a4,t2,2f4 <fail>

000000fc <test_6>:
  fc:	00600193          	li	gp,6
 100:	0ff00793          	li	a5,255
 104:	39600093          	li	ra,918
 108:	ffa0d703          	lhu	a4,-6(ra)
 10c:	0ff00393          	li	t2,255
 110:	1e771263          	bne	a4,t2,2f4 <fail>

00000114 <test_7>:
 114:	00700193          	li	gp,7
 118:	000107b7          	lui	a5,0x10
 11c:	f0078793          	addi	a5,a5,-256 # ff00 <_end+0xfb60>
 120:	39600093          	li	ra,918
 124:	ffc0d703          	lhu	a4,-4(ra)
 128:	000103b7          	lui	t2,0x10
 12c:	f0038393          	addi	t2,t2,-256 # ff00 <_end+0xfb60>
 130:	1c771263          	bne	a4,t2,2f4 <fail>

00000134 <test_8>:
 134:	00800193          	li	gp,8
 138:	000017b7          	lui	a5,0x1
 13c:	ff078793          	addi	a5,a5,-16 # ff0 <_end+0xc50>
 140:	39600093          	li	ra,918
 144:	ffe0d703          	lhu	a4,-2(ra)
 148:	000013b7          	lui	t2,0x1
 14c:	ff038393          	addi	t2,t2,-16 # ff0 <_end+0xc50>
 150:	1a771263          	bne	a4,t2,2f4 <fail>

00000154 <test_9>:
 154:	00900193          	li	gp,9
 158:	0000f7b7          	lui	a5,0xf
 15c:	00f78793          	addi	a5,a5,15 # f00f <_end+0xec6f>
 160:	39600093          	li	ra,918
 164:	0000d703          	lhu	a4,0(ra)
 168:	0000f3b7          	lui	t2,0xf
 16c:	00f38393          	addi	t2,t2,15 # f00f <_end+0xec6f>
 170:	18771263          	bne	a4,t2,2f4 <fail>

00000174 <test_10>:
 174:	00a00193          	li	gp,10
 178:	39000093          	li	ra,912
 17c:	fe008093          	addi	ra,ra,-32
 180:	0200d283          	lhu	t0,32(ra)
 184:	0ff00393          	li	t2,255
 188:	16729663          	bne	t0,t2,2f4 <fail>

0000018c <test_11>:
 18c:	00b00193          	li	gp,11
 190:	39000093          	li	ra,912
 194:	ffb08093          	addi	ra,ra,-5
 198:	0070d283          	lhu	t0,7(ra)
 19c:	000103b7          	lui	t2,0x10
 1a0:	f0038393          	addi	t2,t2,-256 # ff00 <_end+0xfb60>
 1a4:	14729863          	bne	t0,t2,2f4 <fail>

000001a8 <test_12>:
 1a8:	00c00193          	li	gp,12
 1ac:	00000213          	li	tp,0
 1b0:	39200093          	li	ra,914
 1b4:	0020d703          	lhu	a4,2(ra)
 1b8:	00070313          	mv	t1,a4
 1bc:	000013b7          	lui	t2,0x1
 1c0:	ff038393          	addi	t2,t2,-16 # ff0 <_end+0xc50>
 1c4:	12731863          	bne	t1,t2,2f4 <fail>
 1c8:	00120213          	addi	tp,tp,1 # 1 <_start+0x1>
 1cc:	00200293          	li	t0,2
 1d0:	fe5210e3          	bne	tp,t0,1b0 <test_12+0x8>

000001d4 <test_13>:
 1d4:	00d00193          	li	gp,13
 1d8:	00000213          	li	tp,0
 1dc:	39400093          	li	ra,916
 1e0:	0020d703          	lhu	a4,2(ra)
 1e4:	00000013          	nop
 1e8:	00070313          	mv	t1,a4
 1ec:	0000f3b7          	lui	t2,0xf
 1f0:	00f38393          	addi	t2,t2,15 # f00f <_end+0xec6f>
 1f4:	10731063          	bne	t1,t2,2f4 <fail>
 1f8:	00120213          	addi	tp,tp,1 # 1 <_start+0x1>
 1fc:	00200293          	li	t0,2
 200:	fc521ee3          	bne	tp,t0,1dc <test_13+0x8>

00000204 <test_14>:
 204:	00e00193          	li	gp,14
 208:	00000213          	li	tp,0
 20c:	39000093          	li	ra,912
 210:	0020d703          	lhu	a4,2(ra)
 214:	00000013          	nop
 218:	00000013          	nop
 21c:	00070313          	mv	t1,a4
 220:	000103b7          	lui	t2,0x10
 224:	f0038393          	addi	t2,t2,-256 # ff00 <_end+0xfb60>
 228:	0c731663          	bne	t1,t2,2f4 <fail>
 22c:	00120213          	addi	tp,tp,1 # 1 <_start+0x1>
 230:	00200293          	li	t0,2
 234:	fc521ce3          	bne	tp,t0,20c <test_14+0x8>

00000238 <test_15>:
 238:	00f00193          	li	gp,15
 23c:	00000213          	li	tp,0
 240:	39200093          	li	ra,914
 244:	0020d703          	lhu	a4,2(ra)
 248:	000013b7          	lui	t2,0x1
 24c:	ff038393          	addi	t2,t2,-16 # ff0 <_end+0xc50>
 250:	0a771263          	bne	a4,t2,2f4 <fail>
 254:	00120213          	addi	tp,tp,1 # 1 <_start+0x1>
 258:	00200293          	li	t0,2
 25c:	fe5212e3          	bne	tp,t0,240 <test_15+0x8>

00000260 <test_16>:
 260:	01000193          	li	gp,16
 264:	00000213          	li	tp,0
 268:	39400093          	li	ra,916
 26c:	00000013          	nop
 270:	0020d703          	lhu	a4,2(ra)
 274:	0000f3b7          	lui	t2,0xf
 278:	00f38393          	addi	t2,t2,15 # f00f <_end+0xec6f>
 27c:	06771c63          	bne	a4,t2,2f4 <fail>
 280:	00120213          	addi	tp,tp,1 # 1 <_start+0x1>
 284:	00200293          	li	t0,2
 288:	fe5210e3          	bne	tp,t0,268 <test_16+0x8>

0000028c <test_17>:
 28c:	01100193          	li	gp,17
 290:	00000213          	li	tp,0
 294:	39000093          	li	ra,912
 298:	00000013          	nop
 29c:	00000013          	nop
 2a0:	0020d703          	lhu	a4,2(ra)
 2a4:	000103b7          	lui	t2,0x10
 2a8:	f0038393          	addi	t2,t2,-256 # ff00 <_end+0xfb60>
 2ac:	04771463          	bne	a4,t2,2f4 <fail>
 2b0:	00120213          	addi	tp,tp,1 # 1 <_start+0x1>
 2b4:	00200293          	li	t0,2
 2b8:	fc521ee3          	bne	tp,t0,294 <test_17+0x8>

000002bc <test_18>:
 2bc:	01200193          	li	gp,18
 2c0:	39000293          	li	t0,912
 2c4:	0002d103          	lhu	sp,0(t0)
 2c8:	00200113          	li	sp,2
 2cc:	00200393          	li	t2,2
 2d0:	02711263          	bne	sp,t2,2f4 <fail>

000002d4 <test_19>:
 2d4:	01300193          	li	gp,19
 2d8:	39000293          	li	t0,912
 2dc:	0002d103          	lhu	sp,0(t0)
 2e0:	00000013          	nop
 2e4:	00200113          	li	sp,2
 2e8:	00200393          	li	t2,2
 2ec:	00711463          	bne	sp,t2,2f4 <fail>
 2f0:	00301863          	bne	zero,gp,300 <pass>

000002f4 <fail>:
 2f4:	00100e13          	li	t3,1
 2f8:	00200e93          	li	t4,2
 2fc:	0000006f          	j	2fc <fail+0x8>

00000300 <pass>:
 300:	00100e13          	li	t3,1
 304:	00100e93          	li	t4,1
 308:	0000006f          	j	308 <pass+0x8>
 30c:	c0001073          	unimp
 310:	0000                	unimp
 312:	0000                	unimp
 314:	0000                	unimp
 316:	0000                	unimp
 318:	0000                	unimp
 31a:	0000                	unimp
 31c:	0000                	unimp
 31e:	0000                	unimp
 320:	0000                	unimp
 322:	0000                	unimp
 324:	0000                	unimp
 326:	0000                	unimp
 328:	0000                	unimp
 32a:	0000                	unimp
 32c:	0000                	unimp
 32e:	0000                	unimp
 330:	0000                	unimp
 332:	0000                	unimp
 334:	0000                	unimp
 336:	0000                	unimp
