
generated/rv32ui-p-lbu:     file format elf32-littleriscv


Disassembly of section .text.init:

00000000 <_start>:
   0:	00000093          	li	ra,0
   4:	00000113          	li	sp,0
   8:	00000193          	li	gp,0
   c:	00000213          	li	tp,0
  10:	00000293          	li	t0,0
  14:	00000313          	li	t1,0
  18:	00000393          	li	t2,0
  1c:	00000413          	li	s0,0
  20:	00000493          	li	s1,0
  24:	00000513          	li	a0,0
  28:	00000593          	li	a1,0
  2c:	00000613          	li	a2,0
  30:	00000693          	li	a3,0
  34:	00000713          	li	a4,0
  38:	00000793          	li	a5,0
  3c:	00000813          	li	a6,0
  40:	00000893          	li	a7,0
  44:	00000913          	li	s2,0
  48:	00000993          	li	s3,0
  4c:	00000a13          	li	s4,0
  50:	00000a93          	li	s5,0
  54:	00000b13          	li	s6,0
  58:	00000b93          	li	s7,0
  5c:	00000c13          	li	s8,0
  60:	00000c93          	li	s9,0
  64:	00000d13          	li	s10,0
  68:	00000d93          	li	s11,0
  6c:	00000e13          	li	t3,0
  70:	00000e93          	li	t4,0
  74:	00000f13          	li	t5,0
  78:	00000f93          	li	t6,0

0000007c <test_2>:
  7c:	00200193          	li	gp,2
  80:	0ff00793          	li	a5,255
  84:	31000093          	li	ra,784
  88:	0000c703          	lbu	a4,0(ra)
  8c:	0ff00393          	li	t2,255
  90:	20771863          	bne	a4,t2,2a0 <fail>

00000094 <test_3>:
  94:	00300193          	li	gp,3
  98:	00000793          	li	a5,0
  9c:	31000093          	li	ra,784
  a0:	0010c703          	lbu	a4,1(ra)
  a4:	00000393          	li	t2,0
  a8:	1e771c63          	bne	a4,t2,2a0 <fail>

000000ac <test_4>:
  ac:	00400193          	li	gp,4
  b0:	0f000793          	li	a5,240
  b4:	31000093          	li	ra,784
  b8:	0020c703          	lbu	a4,2(ra)
  bc:	0f000393          	li	t2,240
  c0:	1e771063          	bne	a4,t2,2a0 <fail>

000000c4 <test_5>:
  c4:	00500193          	li	gp,5
  c8:	00f00793          	li	a5,15
  cc:	31000093          	li	ra,784
  d0:	0030c703          	lbu	a4,3(ra)
  d4:	00f00393          	li	t2,15
  d8:	1c771463          	bne	a4,t2,2a0 <fail>

000000dc <test_6>:
  dc:	00600193          	li	gp,6
  e0:	0ff00793          	li	a5,255
  e4:	31300093          	li	ra,787
  e8:	ffd0c703          	lbu	a4,-3(ra)
  ec:	0ff00393          	li	t2,255
  f0:	1a771863          	bne	a4,t2,2a0 <fail>

000000f4 <test_7>:
  f4:	00700193          	li	gp,7
  f8:	00000793          	li	a5,0
  fc:	31300093          	li	ra,787
 100:	ffe0c703          	lbu	a4,-2(ra)
 104:	00000393          	li	t2,0
 108:	18771c63          	bne	a4,t2,2a0 <fail>

0000010c <test_8>:
 10c:	00800193          	li	gp,8
 110:	0f000793          	li	a5,240
 114:	31300093          	li	ra,787
 118:	fff0c703          	lbu	a4,-1(ra)
 11c:	0f000393          	li	t2,240
 120:	18771063          	bne	a4,t2,2a0 <fail>

00000124 <test_9>:
 124:	00900193          	li	gp,9
 128:	00f00793          	li	a5,15
 12c:	31300093          	li	ra,787
 130:	0000c703          	lbu	a4,0(ra)
 134:	00f00393          	li	t2,15
 138:	16771463          	bne	a4,t2,2a0 <fail>

0000013c <test_10>:
 13c:	00a00193          	li	gp,10
 140:	31000093          	li	ra,784
 144:	fe008093          	addi	ra,ra,-32
 148:	0200c283          	lbu	t0,32(ra)
 14c:	0ff00393          	li	t2,255
 150:	14729863          	bne	t0,t2,2a0 <fail>

00000154 <test_11>:
 154:	00b00193          	li	gp,11
 158:	31000093          	li	ra,784
 15c:	ffa08093          	addi	ra,ra,-6
 160:	0070c283          	lbu	t0,7(ra)
 164:	00000393          	li	t2,0
 168:	12729c63          	bne	t0,t2,2a0 <fail>

0000016c <test_12>:
 16c:	00c00193          	li	gp,12
 170:	00000213          	li	tp,0
 174:	31100093          	li	ra,785
 178:	0010c703          	lbu	a4,1(ra)
 17c:	00070313          	mv	t1,a4
 180:	0f000393          	li	t2,240
 184:	10731e63          	bne	t1,t2,2a0 <fail>
 188:	00120213          	addi	tp,tp,1 # 1 <_start+0x1>
 18c:	00200293          	li	t0,2
 190:	fe5212e3          	bne	tp,t0,174 <test_12+0x8>

00000194 <test_13>:
 194:	00d00193          	li	gp,13
 198:	00000213          	li	tp,0
 19c:	31200093          	li	ra,786
 1a0:	0010c703          	lbu	a4,1(ra)
 1a4:	00000013          	nop
 1a8:	00070313          	mv	t1,a4
 1ac:	00f00393          	li	t2,15
 1b0:	0e731863          	bne	t1,t2,2a0 <fail>
 1b4:	00120213          	addi	tp,tp,1 # 1 <_start+0x1>
 1b8:	00200293          	li	t0,2
 1bc:	fe5210e3          	bne	tp,t0,19c <test_13+0x8>

000001c0 <test_14>:
 1c0:	00e00193          	li	gp,14
 1c4:	00000213          	li	tp,0
 1c8:	31000093          	li	ra,784
 1cc:	0010c703          	lbu	a4,1(ra)
 1d0:	00000013          	nop
 1d4:	00000013          	nop
 1d8:	00070313          	mv	t1,a4
 1dc:	00000393          	li	t2,0
 1e0:	0c731063          	bne	t1,t2,2a0 <fail>
 1e4:	00120213          	addi	tp,tp,1 # 1 <_start+0x1>
 1e8:	00200293          	li	t0,2
 1ec:	fc521ee3          	bne	tp,t0,1c8 <test_14+0x8>

000001f0 <test_15>:
 1f0:	00f00193          	li	gp,15
 1f4:	00000213          	li	tp,0
 1f8:	31100093          	li	ra,785
 1fc:	0010c703          	lbu	a4,1(ra)
 200:	0f000393          	li	t2,240
 204:	08771e63          	bne	a4,t2,2a0 <fail>
 208:	00120213          	addi	tp,tp,1 # 1 <_start+0x1>
 20c:	00200293          	li	t0,2
 210:	fe5214e3          	bne	tp,t0,1f8 <test_15+0x8>

00000214 <test_16>:
 214:	01000193          	li	gp,16
 218:	00000213          	li	tp,0
 21c:	31200093          	li	ra,786
 220:	00000013          	nop
 224:	0010c703          	lbu	a4,1(ra)
 228:	00f00393          	li	t2,15
 22c:	06771a63          	bne	a4,t2,2a0 <fail>
 230:	00120213          	addi	tp,tp,1 # 1 <_start+0x1>
 234:	00200293          	li	t0,2
 238:	fe5212e3          	bne	tp,t0,21c <test_16+0x8>

0000023c <test_17>:
 23c:	01100193          	li	gp,17
 240:	00000213          	li	tp,0
 244:	31000093          	li	ra,784
 248:	00000013          	nop
 24c:	00000013          	nop
 250:	0010c703          	lbu	a4,1(ra)
 254:	00000393          	li	t2,0
 258:	04771463          	bne	a4,t2,2a0 <fail>
 25c:	00120213          	addi	tp,tp,1 # 1 <_start+0x1>
 260:	00200293          	li	t0,2
 264:	fe5210e3          	bne	tp,t0,244 <test_17+0x8>

00000268 <test_18>:
 268:	01200193          	li	gp,18
 26c:	31000293          	li	t0,784
 270:	0002c103          	lbu	sp,0(t0)
 274:	00200113          	li	sp,2
 278:	00200393          	li	t2,2
 27c:	02711263          	bne	sp,t2,2a0 <fail>

00000280 <test_19>:
 280:	01300193          	li	gp,19
 284:	31000293          	li	t0,784
 288:	0002c103          	lbu	sp,0(t0)
 28c:	00000013          	nop
 290:	00200113          	li	sp,2
 294:	00200393          	li	t2,2
 298:	00711463          	bne	sp,t2,2a0 <fail>
 29c:	00301863          	bne	zero,gp,2ac <pass>

000002a0 <fail>:
 2a0:	00100e13          	li	t3,1
 2a4:	00200e93          	li	t4,2

000002a8 <fail_loop>:
 2a8:	0000006f          	j	2a8 <fail_loop>

000002ac <pass>:
 2ac:	00100e13          	li	t3,1
 2b0:	00100e93          	li	t4,1

000002b4 <pass_loop>:
 2b4:	0000006f          	j	2b4 <pass_loop>
 2b8:	c0001073          	unimp
