
generated/rv32ui-p-lh:     file format elf32-littleriscv


Disassembly of section .text.init:

00000000 <_start>:
   0:	00000093          	li	ra,0
   4:	00000113          	li	sp,0
   8:	00000193          	li	gp,0
   c:	00000213          	li	tp,0
  10:	00000293          	li	t0,0
  14:	00000313          	li	t1,0
  18:	00000393          	li	t2,0
  1c:	00000413          	li	s0,0
  20:	00000493          	li	s1,0
  24:	00000513          	li	a0,0
  28:	00000593          	li	a1,0
  2c:	00000613          	li	a2,0
  30:	00000693          	li	a3,0
  34:	00000713          	li	a4,0
  38:	00000793          	li	a5,0
  3c:	00000813          	li	a6,0
  40:	00000893          	li	a7,0
  44:	00000913          	li	s2,0
  48:	00000993          	li	s3,0
  4c:	00000a13          	li	s4,0
  50:	00000a93          	li	s5,0
  54:	00000b13          	li	s6,0
  58:	00000b93          	li	s7,0
  5c:	00000c13          	li	s8,0
  60:	00000c93          	li	s9,0
  64:	00000d13          	li	s10,0
  68:	00000d93          	li	s11,0
  6c:	00000e13          	li	t3,0
  70:	00000e93          	li	t4,0
  74:	00000f13          	li	t5,0
  78:	00000f93          	li	t6,0
  7c:	00000293          	li	t0,0
  80:	30529073          	csrw	mtvec,t0

00000084 <test_2>:
  84:	00200193          	li	gp,2
  88:	0ff00793          	li	a5,255
  8c:	35000093          	li	ra,848
  90:	00009703          	lh	a4,0(ra)
  94:	0ff00393          	li	t2,255
  98:	24771063          	bne	a4,t2,2d8 <fail>

0000009c <test_3>:
  9c:	00300193          	li	gp,3
  a0:	f0000793          	li	a5,-256
  a4:	35000093          	li	ra,848
  a8:	00209703          	lh	a4,2(ra)
  ac:	f0000393          	li	t2,-256
  b0:	22771463          	bne	a4,t2,2d8 <fail>

000000b4 <test_4>:
  b4:	00400193          	li	gp,4
  b8:	000017b7          	lui	a5,0x1
  bc:	ff078793          	addi	a5,a5,-16 # ff0 <_end+0xc90>
  c0:	35000093          	li	ra,848
  c4:	00409703          	lh	a4,4(ra)
  c8:	000013b7          	lui	t2,0x1
  cc:	ff038393          	addi	t2,t2,-16 # ff0 <_end+0xc90>
  d0:	20771463          	bne	a4,t2,2d8 <fail>

000000d4 <test_5>:
  d4:	00500193          	li	gp,5
  d8:	fffff7b7          	lui	a5,0xfffff
  dc:	00f78793          	addi	a5,a5,15 # fffff00f <_end+0xffffecaf>
  e0:	35000093          	li	ra,848
  e4:	00609703          	lh	a4,6(ra)
  e8:	fffff3b7          	lui	t2,0xfffff
  ec:	00f38393          	addi	t2,t2,15 # fffff00f <_end+0xffffecaf>
  f0:	1e771463          	bne	a4,t2,2d8 <fail>

000000f4 <test_6>:
  f4:	00600193          	li	gp,6
  f8:	0ff00793          	li	a5,255
  fc:	35600093          	li	ra,854
 100:	ffa09703          	lh	a4,-6(ra)
 104:	0ff00393          	li	t2,255
 108:	1c771863          	bne	a4,t2,2d8 <fail>

0000010c <test_7>:
 10c:	00700193          	li	gp,7
 110:	f0000793          	li	a5,-256
 114:	35600093          	li	ra,854
 118:	ffc09703          	lh	a4,-4(ra)
 11c:	f0000393          	li	t2,-256
 120:	1a771c63          	bne	a4,t2,2d8 <fail>

00000124 <test_8>:
 124:	00800193          	li	gp,8
 128:	000017b7          	lui	a5,0x1
 12c:	ff078793          	addi	a5,a5,-16 # ff0 <_end+0xc90>
 130:	35600093          	li	ra,854
 134:	ffe09703          	lh	a4,-2(ra)
 138:	000013b7          	lui	t2,0x1
 13c:	ff038393          	addi	t2,t2,-16 # ff0 <_end+0xc90>
 140:	18771c63          	bne	a4,t2,2d8 <fail>

00000144 <test_9>:
 144:	00900193          	li	gp,9
 148:	fffff7b7          	lui	a5,0xfffff
 14c:	00f78793          	addi	a5,a5,15 # fffff00f <_end+0xffffecaf>
 150:	35600093          	li	ra,854
 154:	00009703          	lh	a4,0(ra)
 158:	fffff3b7          	lui	t2,0xfffff
 15c:	00f38393          	addi	t2,t2,15 # fffff00f <_end+0xffffecaf>
 160:	16771c63          	bne	a4,t2,2d8 <fail>

00000164 <test_10>:
 164:	00a00193          	li	gp,10
 168:	35000093          	li	ra,848
 16c:	fe008093          	addi	ra,ra,-32
 170:	02009283          	lh	t0,32(ra)
 174:	0ff00393          	li	t2,255
 178:	16729063          	bne	t0,t2,2d8 <fail>

0000017c <test_11>:
 17c:	00b00193          	li	gp,11
 180:	35000093          	li	ra,848
 184:	ffb08093          	addi	ra,ra,-5
 188:	00709283          	lh	t0,7(ra)
 18c:	f0000393          	li	t2,-256
 190:	14729463          	bne	t0,t2,2d8 <fail>

00000194 <test_12>:
 194:	00c00193          	li	gp,12
 198:	00000213          	li	tp,0
 19c:	35200093          	li	ra,850
 1a0:	00209703          	lh	a4,2(ra)
 1a4:	00070313          	mv	t1,a4
 1a8:	000013b7          	lui	t2,0x1
 1ac:	ff038393          	addi	t2,t2,-16 # ff0 <_end+0xc90>
 1b0:	12731463          	bne	t1,t2,2d8 <fail>
 1b4:	00120213          	addi	tp,tp,1 # 1 <_start+0x1>
 1b8:	00200293          	li	t0,2
 1bc:	fe5210e3          	bne	tp,t0,19c <test_12+0x8>

000001c0 <test_13>:
 1c0:	00d00193          	li	gp,13
 1c4:	00000213          	li	tp,0
 1c8:	35400093          	li	ra,852
 1cc:	00209703          	lh	a4,2(ra)
 1d0:	00000013          	nop
 1d4:	00070313          	mv	t1,a4
 1d8:	fffff3b7          	lui	t2,0xfffff
 1dc:	00f38393          	addi	t2,t2,15 # fffff00f <_end+0xffffecaf>
 1e0:	0e731c63          	bne	t1,t2,2d8 <fail>
 1e4:	00120213          	addi	tp,tp,1 # 1 <_start+0x1>
 1e8:	00200293          	li	t0,2
 1ec:	fc521ee3          	bne	tp,t0,1c8 <test_13+0x8>

000001f0 <test_14>:
 1f0:	00e00193          	li	gp,14
 1f4:	00000213          	li	tp,0
 1f8:	35000093          	li	ra,848
 1fc:	00209703          	lh	a4,2(ra)
 200:	00000013          	nop
 204:	00000013          	nop
 208:	00070313          	mv	t1,a4
 20c:	f0000393          	li	t2,-256
 210:	0c731463          	bne	t1,t2,2d8 <fail>
 214:	00120213          	addi	tp,tp,1 # 1 <_start+0x1>
 218:	00200293          	li	t0,2
 21c:	fc521ee3          	bne	tp,t0,1f8 <test_14+0x8>

00000220 <test_15>:
 220:	00f00193          	li	gp,15
 224:	00000213          	li	tp,0
 228:	35200093          	li	ra,850
 22c:	00209703          	lh	a4,2(ra)
 230:	000013b7          	lui	t2,0x1
 234:	ff038393          	addi	t2,t2,-16 # ff0 <_end+0xc90>
 238:	0a771063          	bne	a4,t2,2d8 <fail>
 23c:	00120213          	addi	tp,tp,1 # 1 <_start+0x1>
 240:	00200293          	li	t0,2
 244:	fe5212e3          	bne	tp,t0,228 <test_15+0x8>

00000248 <test_16>:
 248:	01000193          	li	gp,16
 24c:	00000213          	li	tp,0
 250:	35400093          	li	ra,852
 254:	00000013          	nop
 258:	00209703          	lh	a4,2(ra)
 25c:	fffff3b7          	lui	t2,0xfffff
 260:	00f38393          	addi	t2,t2,15 # fffff00f <_end+0xffffecaf>
 264:	06771a63          	bne	a4,t2,2d8 <fail>
 268:	00120213          	addi	tp,tp,1 # 1 <_start+0x1>
 26c:	00200293          	li	t0,2
 270:	fe5210e3          	bne	tp,t0,250 <test_16+0x8>

00000274 <test_17>:
 274:	01100193          	li	gp,17
 278:	00000213          	li	tp,0
 27c:	35000093          	li	ra,848
 280:	00000013          	nop
 284:	00000013          	nop
 288:	00209703          	lh	a4,2(ra)
 28c:	f0000393          	li	t2,-256
 290:	04771463          	bne	a4,t2,2d8 <fail>
 294:	00120213          	addi	tp,tp,1 # 1 <_start+0x1>
 298:	00200293          	li	t0,2
 29c:	fe5210e3          	bne	tp,t0,27c <test_17+0x8>

000002a0 <test_18>:
 2a0:	01200193          	li	gp,18
 2a4:	35000293          	li	t0,848
 2a8:	00029103          	lh	sp,0(t0)
 2ac:	00200113          	li	sp,2
 2b0:	00200393          	li	t2,2
 2b4:	02711263          	bne	sp,t2,2d8 <fail>

000002b8 <test_19>:
 2b8:	01300193          	li	gp,19
 2bc:	35000293          	li	t0,848
 2c0:	00029103          	lh	sp,0(t0)
 2c4:	00000013          	nop
 2c8:	00200113          	li	sp,2
 2cc:	00200393          	li	t2,2
 2d0:	00711463          	bne	sp,t2,2d8 <fail>
 2d4:	00301863          	bne	zero,gp,2e4 <pass>

000002d8 <fail>:
 2d8:	00100e13          	li	t3,1
 2dc:	00200e93          	li	t4,2
 2e0:	0000006f          	j	2e0 <fail+0x8>

000002e4 <pass>:
 2e4:	00100e13          	li	t3,1
 2e8:	00100e93          	li	t4,1
 2ec:	0000006f          	j	2ec <pass+0x8>
 2f0:	c0001073          	unimp
 2f4:	0000                	unimp
 2f6:	0000                	unimp
