
generated/rv32ui-p-srl:     file format elf32-littleriscv


Disassembly of section .text.init:

00000000 <_start>:
   0:	00000093          	li	ra,0
   4:	00000113          	li	sp,0
   8:	00000193          	li	gp,0
   c:	00000213          	li	tp,0
  10:	00000293          	li	t0,0
  14:	00000313          	li	t1,0
  18:	00000393          	li	t2,0
  1c:	00000413          	li	s0,0
  20:	00000493          	li	s1,0
  24:	00000513          	li	a0,0
  28:	00000593          	li	a1,0
  2c:	00000613          	li	a2,0
  30:	00000693          	li	a3,0
  34:	00000713          	li	a4,0
  38:	00000793          	li	a5,0
  3c:	00000813          	li	a6,0
  40:	00000893          	li	a7,0
  44:	00000913          	li	s2,0
  48:	00000993          	li	s3,0
  4c:	00000a13          	li	s4,0
  50:	00000a93          	li	s5,0
  54:	00000b13          	li	s6,0
  58:	00000b93          	li	s7,0
  5c:	00000c13          	li	s8,0
  60:	00000c93          	li	s9,0
  64:	00000d13          	li	s10,0
  68:	00000d93          	li	s11,0
  6c:	00000e13          	li	t3,0
  70:	00000e93          	li	t4,0
  74:	00000f13          	li	t5,0
  78:	00000f93          	li	t6,0
  7c:	00000293          	li	t0,0
  80:	30529073          	csrw	mtvec,t0

00000084 <test_2>:
  84:	00200193          	li	gp,2
  88:	800000b7          	lui	ra,0x80000
  8c:	00000113          	li	sp,0
  90:	0020d733          	srl	a4,ra,sp
  94:	800003b7          	lui	t2,0x80000
  98:	56771863          	bne	a4,t2,608 <fail>

0000009c <test_3>:
  9c:	00300193          	li	gp,3
  a0:	800000b7          	lui	ra,0x80000
  a4:	00100113          	li	sp,1
  a8:	0020d733          	srl	a4,ra,sp
  ac:	400003b7          	lui	t2,0x40000
  b0:	54771c63          	bne	a4,t2,608 <fail>

000000b4 <test_4>:
  b4:	00400193          	li	gp,4
  b8:	800000b7          	lui	ra,0x80000
  bc:	00700113          	li	sp,7
  c0:	0020d733          	srl	a4,ra,sp
  c4:	010003b7          	lui	t2,0x1000
  c8:	54771063          	bne	a4,t2,608 <fail>

000000cc <test_5>:
  cc:	00500193          	li	gp,5
  d0:	800000b7          	lui	ra,0x80000
  d4:	00e00113          	li	sp,14
  d8:	0020d733          	srl	a4,ra,sp
  dc:	000203b7          	lui	t2,0x20
  e0:	52771463          	bne	a4,t2,608 <fail>

000000e4 <test_6>:
  e4:	00600193          	li	gp,6
  e8:	800000b7          	lui	ra,0x80000
  ec:	00108093          	addi	ra,ra,1 # 80000001 <begin_signature+0x7ffff971>
  f0:	01f00113          	li	sp,31
  f4:	0020d733          	srl	a4,ra,sp
  f8:	00100393          	li	t2,1
  fc:	50771663          	bne	a4,t2,608 <fail>

00000100 <test_7>:
 100:	00700193          	li	gp,7
 104:	fff00093          	li	ra,-1
 108:	00000113          	li	sp,0
 10c:	0020d733          	srl	a4,ra,sp
 110:	fff00393          	li	t2,-1
 114:	4e771a63          	bne	a4,t2,608 <fail>

00000118 <test_8>:
 118:	00800193          	li	gp,8
 11c:	fff00093          	li	ra,-1
 120:	00100113          	li	sp,1
 124:	0020d733          	srl	a4,ra,sp
 128:	800003b7          	lui	t2,0x80000
 12c:	fff38393          	addi	t2,t2,-1 # 7fffffff <begin_signature+0x7ffff96f>
 130:	4c771c63          	bne	a4,t2,608 <fail>

00000134 <test_9>:
 134:	00900193          	li	gp,9
 138:	fff00093          	li	ra,-1
 13c:	00700113          	li	sp,7
 140:	0020d733          	srl	a4,ra,sp
 144:	020003b7          	lui	t2,0x2000
 148:	fff38393          	addi	t2,t2,-1 # 1ffffff <begin_signature+0x1fff96f>
 14c:	4a771e63          	bne	a4,t2,608 <fail>

00000150 <test_10>:
 150:	00a00193          	li	gp,10
 154:	fff00093          	li	ra,-1
 158:	00e00113          	li	sp,14
 15c:	0020d733          	srl	a4,ra,sp
 160:	000403b7          	lui	t2,0x40
 164:	fff38393          	addi	t2,t2,-1 # 3ffff <begin_signature+0x3f96f>
 168:	4a771063          	bne	a4,t2,608 <fail>

0000016c <test_11>:
 16c:	00b00193          	li	gp,11
 170:	fff00093          	li	ra,-1
 174:	01f00113          	li	sp,31
 178:	0020d733          	srl	a4,ra,sp
 17c:	00100393          	li	t2,1
 180:	48771463          	bne	a4,t2,608 <fail>

00000184 <test_12>:
 184:	00c00193          	li	gp,12
 188:	212120b7          	lui	ra,0x21212
 18c:	12108093          	addi	ra,ra,289 # 21212121 <begin_signature+0x21211a91>
 190:	00000113          	li	sp,0
 194:	0020d733          	srl	a4,ra,sp
 198:	212123b7          	lui	t2,0x21212
 19c:	12138393          	addi	t2,t2,289 # 21212121 <begin_signature+0x21211a91>
 1a0:	46771463          	bne	a4,t2,608 <fail>

000001a4 <test_13>:
 1a4:	00d00193          	li	gp,13
 1a8:	212120b7          	lui	ra,0x21212
 1ac:	12108093          	addi	ra,ra,289 # 21212121 <begin_signature+0x21211a91>
 1b0:	00100113          	li	sp,1
 1b4:	0020d733          	srl	a4,ra,sp
 1b8:	109093b7          	lui	t2,0x10909
 1bc:	09038393          	addi	t2,t2,144 # 10909090 <begin_signature+0x10908a00>
 1c0:	44771463          	bne	a4,t2,608 <fail>

000001c4 <test_14>:
 1c4:	00e00193          	li	gp,14
 1c8:	212120b7          	lui	ra,0x21212
 1cc:	12108093          	addi	ra,ra,289 # 21212121 <begin_signature+0x21211a91>
 1d0:	00700113          	li	sp,7
 1d4:	0020d733          	srl	a4,ra,sp
 1d8:	004243b7          	lui	t2,0x424
 1dc:	24238393          	addi	t2,t2,578 # 424242 <begin_signature+0x423bb2>
 1e0:	42771463          	bne	a4,t2,608 <fail>

000001e4 <test_15>:
 1e4:	00f00193          	li	gp,15
 1e8:	212120b7          	lui	ra,0x21212
 1ec:	12108093          	addi	ra,ra,289 # 21212121 <begin_signature+0x21211a91>
 1f0:	00e00113          	li	sp,14
 1f4:	0020d733          	srl	a4,ra,sp
 1f8:	000083b7          	lui	t2,0x8
 1fc:	48438393          	addi	t2,t2,1156 # 8484 <begin_signature+0x7df4>
 200:	40771463          	bne	a4,t2,608 <fail>

00000204 <test_16>:
 204:	01000193          	li	gp,16
 208:	212120b7          	lui	ra,0x21212
 20c:	12108093          	addi	ra,ra,289 # 21212121 <begin_signature+0x21211a91>
 210:	01f00113          	li	sp,31
 214:	0020d733          	srl	a4,ra,sp
 218:	00000393          	li	t2,0
 21c:	3e771663          	bne	a4,t2,608 <fail>

00000220 <test_17>:
 220:	01100193          	li	gp,17
 224:	212120b7          	lui	ra,0x21212
 228:	12108093          	addi	ra,ra,289 # 21212121 <begin_signature+0x21211a91>
 22c:	fc000113          	li	sp,-64
 230:	0020d733          	srl	a4,ra,sp
 234:	212123b7          	lui	t2,0x21212
 238:	12138393          	addi	t2,t2,289 # 21212121 <begin_signature+0x21211a91>
 23c:	3c771663          	bne	a4,t2,608 <fail>

00000240 <test_18>:
 240:	01200193          	li	gp,18
 244:	212120b7          	lui	ra,0x21212
 248:	12108093          	addi	ra,ra,289 # 21212121 <begin_signature+0x21211a91>
 24c:	fc100113          	li	sp,-63
 250:	0020d733          	srl	a4,ra,sp
 254:	109093b7          	lui	t2,0x10909
 258:	09038393          	addi	t2,t2,144 # 10909090 <begin_signature+0x10908a00>
 25c:	3a771663          	bne	a4,t2,608 <fail>

00000260 <test_19>:
 260:	01300193          	li	gp,19
 264:	212120b7          	lui	ra,0x21212
 268:	12108093          	addi	ra,ra,289 # 21212121 <begin_signature+0x21211a91>
 26c:	fc700113          	li	sp,-57
 270:	0020d733          	srl	a4,ra,sp
 274:	004243b7          	lui	t2,0x424
 278:	24238393          	addi	t2,t2,578 # 424242 <begin_signature+0x423bb2>
 27c:	38771663          	bne	a4,t2,608 <fail>

00000280 <test_20>:
 280:	01400193          	li	gp,20
 284:	212120b7          	lui	ra,0x21212
 288:	12108093          	addi	ra,ra,289 # 21212121 <begin_signature+0x21211a91>
 28c:	fce00113          	li	sp,-50
 290:	0020d733          	srl	a4,ra,sp
 294:	000083b7          	lui	t2,0x8
 298:	48438393          	addi	t2,t2,1156 # 8484 <begin_signature+0x7df4>
 29c:	36771663          	bne	a4,t2,608 <fail>

000002a0 <test_21>:
 2a0:	01500193          	li	gp,21
 2a4:	212120b7          	lui	ra,0x21212
 2a8:	12108093          	addi	ra,ra,289 # 21212121 <begin_signature+0x21211a91>
 2ac:	fff00113          	li	sp,-1
 2b0:	0020d733          	srl	a4,ra,sp
 2b4:	00000393          	li	t2,0
 2b8:	34771863          	bne	a4,t2,608 <fail>

000002bc <test_22>:
 2bc:	01600193          	li	gp,22
 2c0:	800000b7          	lui	ra,0x80000
 2c4:	00700113          	li	sp,7
 2c8:	0020d0b3          	srl	ra,ra,sp
 2cc:	010003b7          	lui	t2,0x1000
 2d0:	32709c63          	bne	ra,t2,608 <fail>

000002d4 <test_23>:
 2d4:	01700193          	li	gp,23
 2d8:	800000b7          	lui	ra,0x80000
 2dc:	00e00113          	li	sp,14
 2e0:	0020d133          	srl	sp,ra,sp
 2e4:	000203b7          	lui	t2,0x20
 2e8:	32711063          	bne	sp,t2,608 <fail>

000002ec <test_24>:
 2ec:	01800193          	li	gp,24
 2f0:	00700093          	li	ra,7
 2f4:	0010d0b3          	srl	ra,ra,ra
 2f8:	00000393          	li	t2,0
 2fc:	30709663          	bne	ra,t2,608 <fail>

00000300 <test_25>:
 300:	01900193          	li	gp,25
 304:	00000213          	li	tp,0
 308:	800000b7          	lui	ra,0x80000
 30c:	00700113          	li	sp,7
 310:	0020d733          	srl	a4,ra,sp
 314:	00070313          	mv	t1,a4
 318:	00120213          	addi	tp,tp,1 # 1 <_start+0x1>
 31c:	00200293          	li	t0,2
 320:	fe5214e3          	bne	tp,t0,308 <test_25+0x8>
 324:	010003b7          	lui	t2,0x1000
 328:	2e731063          	bne	t1,t2,608 <fail>

0000032c <test_26>:
 32c:	01a00193          	li	gp,26
 330:	00000213          	li	tp,0
 334:	800000b7          	lui	ra,0x80000
 338:	00e00113          	li	sp,14
 33c:	0020d733          	srl	a4,ra,sp
 340:	00000013          	nop
 344:	00070313          	mv	t1,a4
 348:	00120213          	addi	tp,tp,1 # 1 <_start+0x1>
 34c:	00200293          	li	t0,2
 350:	fe5212e3          	bne	tp,t0,334 <test_26+0x8>
 354:	000203b7          	lui	t2,0x20
 358:	2a731863          	bne	t1,t2,608 <fail>

0000035c <test_27>:
 35c:	01b00193          	li	gp,27
 360:	00000213          	li	tp,0
 364:	800000b7          	lui	ra,0x80000
 368:	01f00113          	li	sp,31
 36c:	0020d733          	srl	a4,ra,sp
 370:	00000013          	nop
 374:	00000013          	nop
 378:	00070313          	mv	t1,a4
 37c:	00120213          	addi	tp,tp,1 # 1 <_start+0x1>
 380:	00200293          	li	t0,2
 384:	fe5210e3          	bne	tp,t0,364 <test_27+0x8>
 388:	00100393          	li	t2,1
 38c:	26731e63          	bne	t1,t2,608 <fail>

00000390 <test_28>:
 390:	01c00193          	li	gp,28
 394:	00000213          	li	tp,0
 398:	800000b7          	lui	ra,0x80000
 39c:	00700113          	li	sp,7
 3a0:	0020d733          	srl	a4,ra,sp
 3a4:	00120213          	addi	tp,tp,1 # 1 <_start+0x1>
 3a8:	00200293          	li	t0,2
 3ac:	fe5216e3          	bne	tp,t0,398 <test_28+0x8>
 3b0:	010003b7          	lui	t2,0x1000
 3b4:	24771a63          	bne	a4,t2,608 <fail>

000003b8 <test_29>:
 3b8:	01d00193          	li	gp,29
 3bc:	00000213          	li	tp,0
 3c0:	800000b7          	lui	ra,0x80000
 3c4:	00e00113          	li	sp,14
 3c8:	00000013          	nop
 3cc:	0020d733          	srl	a4,ra,sp
 3d0:	00120213          	addi	tp,tp,1 # 1 <_start+0x1>
 3d4:	00200293          	li	t0,2
 3d8:	fe5214e3          	bne	tp,t0,3c0 <test_29+0x8>
 3dc:	000203b7          	lui	t2,0x20
 3e0:	22771463          	bne	a4,t2,608 <fail>

000003e4 <test_30>:
 3e4:	01e00193          	li	gp,30
 3e8:	00000213          	li	tp,0
 3ec:	800000b7          	lui	ra,0x80000
 3f0:	01f00113          	li	sp,31
 3f4:	00000013          	nop
 3f8:	00000013          	nop
 3fc:	0020d733          	srl	a4,ra,sp
 400:	00120213          	addi	tp,tp,1 # 1 <_start+0x1>
 404:	00200293          	li	t0,2
 408:	fe5212e3          	bne	tp,t0,3ec <test_30+0x8>
 40c:	00100393          	li	t2,1
 410:	1e771c63          	bne	a4,t2,608 <fail>

00000414 <test_31>:
 414:	01f00193          	li	gp,31
 418:	00000213          	li	tp,0
 41c:	800000b7          	lui	ra,0x80000
 420:	00000013          	nop
 424:	00700113          	li	sp,7
 428:	0020d733          	srl	a4,ra,sp
 42c:	00120213          	addi	tp,tp,1 # 1 <_start+0x1>
 430:	00200293          	li	t0,2
 434:	fe5214e3          	bne	tp,t0,41c <test_31+0x8>
 438:	010003b7          	lui	t2,0x1000
 43c:	1c771663          	bne	a4,t2,608 <fail>

00000440 <test_32>:
 440:	02000193          	li	gp,32
 444:	00000213          	li	tp,0
 448:	800000b7          	lui	ra,0x80000
 44c:	00000013          	nop
 450:	00e00113          	li	sp,14
 454:	00000013          	nop
 458:	0020d733          	srl	a4,ra,sp
 45c:	00120213          	addi	tp,tp,1 # 1 <_start+0x1>
 460:	00200293          	li	t0,2
 464:	fe5212e3          	bne	tp,t0,448 <test_32+0x8>
 468:	000203b7          	lui	t2,0x20
 46c:	18771e63          	bne	a4,t2,608 <fail>

00000470 <test_33>:
 470:	02100193          	li	gp,33
 474:	00000213          	li	tp,0
 478:	800000b7          	lui	ra,0x80000
 47c:	00000013          	nop
 480:	00000013          	nop
 484:	01f00113          	li	sp,31
 488:	0020d733          	srl	a4,ra,sp
 48c:	00120213          	addi	tp,tp,1 # 1 <_start+0x1>
 490:	00200293          	li	t0,2
 494:	fe5212e3          	bne	tp,t0,478 <test_33+0x8>
 498:	00100393          	li	t2,1
 49c:	16771663          	bne	a4,t2,608 <fail>

000004a0 <test_34>:
 4a0:	02200193          	li	gp,34
 4a4:	00000213          	li	tp,0
 4a8:	00700113          	li	sp,7
 4ac:	800000b7          	lui	ra,0x80000
 4b0:	0020d733          	srl	a4,ra,sp
 4b4:	00120213          	addi	tp,tp,1 # 1 <_start+0x1>
 4b8:	00200293          	li	t0,2
 4bc:	fe5216e3          	bne	tp,t0,4a8 <test_34+0x8>
 4c0:	010003b7          	lui	t2,0x1000
 4c4:	14771263          	bne	a4,t2,608 <fail>

000004c8 <test_35>:
 4c8:	02300193          	li	gp,35
 4cc:	00000213          	li	tp,0
 4d0:	00e00113          	li	sp,14
 4d4:	800000b7          	lui	ra,0x80000
 4d8:	00000013          	nop
 4dc:	0020d733          	srl	a4,ra,sp
 4e0:	00120213          	addi	tp,tp,1 # 1 <_start+0x1>
 4e4:	00200293          	li	t0,2
 4e8:	fe5214e3          	bne	tp,t0,4d0 <test_35+0x8>
 4ec:	000203b7          	lui	t2,0x20
 4f0:	10771c63          	bne	a4,t2,608 <fail>

000004f4 <test_36>:
 4f4:	02400193          	li	gp,36
 4f8:	00000213          	li	tp,0
 4fc:	01f00113          	li	sp,31
 500:	800000b7          	lui	ra,0x80000
 504:	00000013          	nop
 508:	00000013          	nop
 50c:	0020d733          	srl	a4,ra,sp
 510:	00120213          	addi	tp,tp,1 # 1 <_start+0x1>
 514:	00200293          	li	t0,2
 518:	fe5212e3          	bne	tp,t0,4fc <test_36+0x8>
 51c:	00100393          	li	t2,1
 520:	0e771463          	bne	a4,t2,608 <fail>

00000524 <test_37>:
 524:	02500193          	li	gp,37
 528:	00000213          	li	tp,0
 52c:	00700113          	li	sp,7
 530:	00000013          	nop
 534:	800000b7          	lui	ra,0x80000
 538:	0020d733          	srl	a4,ra,sp
 53c:	00120213          	addi	tp,tp,1 # 1 <_start+0x1>
 540:	00200293          	li	t0,2
 544:	fe5214e3          	bne	tp,t0,52c <test_37+0x8>
 548:	010003b7          	lui	t2,0x1000
 54c:	0a771e63          	bne	a4,t2,608 <fail>

00000550 <test_38>:
 550:	02600193          	li	gp,38
 554:	00000213          	li	tp,0
 558:	00e00113          	li	sp,14
 55c:	00000013          	nop
 560:	800000b7          	lui	ra,0x80000
 564:	00000013          	nop
 568:	0020d733          	srl	a4,ra,sp
 56c:	00120213          	addi	tp,tp,1 # 1 <_start+0x1>
 570:	00200293          	li	t0,2
 574:	fe5212e3          	bne	tp,t0,558 <test_38+0x8>
 578:	000203b7          	lui	t2,0x20
 57c:	08771663          	bne	a4,t2,608 <fail>

00000580 <test_39>:
 580:	02700193          	li	gp,39
 584:	00000213          	li	tp,0
 588:	01f00113          	li	sp,31
 58c:	00000013          	nop
 590:	00000013          	nop
 594:	800000b7          	lui	ra,0x80000
 598:	0020d733          	srl	a4,ra,sp
 59c:	00120213          	addi	tp,tp,1 # 1 <_start+0x1>
 5a0:	00200293          	li	t0,2
 5a4:	fe5212e3          	bne	tp,t0,588 <test_39+0x8>
 5a8:	00100393          	li	t2,1
 5ac:	04771e63          	bne	a4,t2,608 <fail>

000005b0 <test_40>:
 5b0:	02800193          	li	gp,40
 5b4:	00f00093          	li	ra,15
 5b8:	00105133          	srl	sp,zero,ra
 5bc:	00000393          	li	t2,0
 5c0:	04711463          	bne	sp,t2,608 <fail>

000005c4 <test_41>:
 5c4:	02900193          	li	gp,41
 5c8:	02000093          	li	ra,32
 5cc:	0000d133          	srl	sp,ra,zero
 5d0:	02000393          	li	t2,32
 5d4:	02711a63          	bne	sp,t2,608 <fail>

000005d8 <test_42>:
 5d8:	02a00193          	li	gp,42
 5dc:	000050b3          	srl	ra,zero,zero
 5e0:	00000393          	li	t2,0
 5e4:	02709263          	bne	ra,t2,608 <fail>

000005e8 <test_43>:
 5e8:	02b00193          	li	gp,43
 5ec:	40000093          	li	ra,1024
 5f0:	00001137          	lui	sp,0x1
 5f4:	80010113          	addi	sp,sp,-2048 # 800 <begin_signature+0x170>
 5f8:	0020d033          	srl	zero,ra,sp
 5fc:	00000393          	li	t2,0
 600:	00701463          	bne	zero,t2,608 <fail>
 604:	00301863          	bne	zero,gp,614 <pass>

00000608 <fail>:
 608:	00100e13          	li	t3,1
 60c:	00200e93          	li	t4,2
 610:	0000006f          	j	610 <fail+0x8>

00000614 <pass>:
 614:	00100e13          	li	t3,1
 618:	00100e93          	li	t4,1
 61c:	0000006f          	j	61c <pass+0x8>
 620:	c0001073          	unimp
 624:	0000                	unimp
 626:	0000                	unimp
 628:	0000                	unimp
 62a:	0000                	unimp
 62c:	0000                	unimp
 62e:	0000                	unimp
 630:	0000                	unimp
 632:	0000                	unimp
 634:	0000                	unimp
 636:	0000                	unimp
 638:	0000                	unimp
 63a:	0000                	unimp
 63c:	0000                	unimp
 63e:	0000                	unimp
