
generated/rv32ui-p-sh:     file format elf32-littleriscv


Disassembly of section .text.init:

00000000 <_start>:
   0:	00000093          	li	ra,0
   4:	00000113          	li	sp,0
   8:	00000193          	li	gp,0
   c:	00000213          	li	tp,0
  10:	00000293          	li	t0,0
  14:	00000313          	li	t1,0
  18:	00000393          	li	t2,0
  1c:	00000413          	li	s0,0
  20:	00000493          	li	s1,0
  24:	00000513          	li	a0,0
  28:	00000593          	li	a1,0
  2c:	00000613          	li	a2,0
  30:	00000693          	li	a3,0
  34:	00000713          	li	a4,0
  38:	00000793          	li	a5,0
  3c:	00000813          	li	a6,0
  40:	00000893          	li	a7,0
  44:	00000913          	li	s2,0
  48:	00000993          	li	s3,0
  4c:	00000a13          	li	s4,0
  50:	00000a93          	li	s5,0
  54:	00000b13          	li	s6,0
  58:	00000b93          	li	s7,0
  5c:	00000c13          	li	s8,0
  60:	00000c93          	li	s9,0
  64:	00000d13          	li	s10,0
  68:	00000d93          	li	s11,0
  6c:	00000e13          	li	t3,0
  70:	00000e93          	li	t4,0
  74:	00000f13          	li	t5,0
  78:	00000f93          	li	t6,0
  7c:	00000293          	li	t0,0
  80:	30529073          	csrw	mtvec,t0

00000084 <test_2>:
  84:	00200193          	li	gp,2
  88:	5d000093          	li	ra,1488
  8c:	0aa00113          	li	sp,170
  90:	00000797          	auipc	a5,0x0
  94:	01478793          	addi	a5,a5,20 # a4 <test_2+0x20>
  98:	00209023          	sh	sp,0(ra)
  9c:	00009703          	lh	a4,0(ra)
  a0:	0080006f          	j	a8 <test_2+0x24>
  a4:	00010713          	mv	a4,sp
  a8:	0aa00393          	li	t2,170
  ac:	46771863          	bne	a4,t2,51c <fail>

000000b0 <test_3>:
  b0:	00300193          	li	gp,3
  b4:	5d000093          	li	ra,1488
  b8:	ffffb137          	lui	sp,0xffffb
  bc:	a0010113          	addi	sp,sp,-1536 # ffffaa00 <_end+0xffffa410>
  c0:	00000797          	auipc	a5,0x0
  c4:	01478793          	addi	a5,a5,20 # d4 <test_3+0x24>
  c8:	00209123          	sh	sp,2(ra)
  cc:	00209703          	lh	a4,2(ra)
  d0:	0080006f          	j	d8 <test_3+0x28>
  d4:	00010713          	mv	a4,sp
  d8:	ffffb3b7          	lui	t2,0xffffb
  dc:	a0038393          	addi	t2,t2,-1536 # ffffaa00 <_end+0xffffa410>
  e0:	42771e63          	bne	a4,t2,51c <fail>

000000e4 <test_4>:
  e4:	00400193          	li	gp,4
  e8:	5d000093          	li	ra,1488
  ec:	beef1137          	lui	sp,0xbeef1
  f0:	aa010113          	addi	sp,sp,-1376 # beef0aa0 <_end+0xbeef04b0>
  f4:	00000797          	auipc	a5,0x0
  f8:	01478793          	addi	a5,a5,20 # 108 <test_4+0x24>
  fc:	00209223          	sh	sp,4(ra)
 100:	0040a703          	lw	a4,4(ra)
 104:	0080006f          	j	10c <test_4+0x28>
 108:	00010713          	mv	a4,sp
 10c:	beef13b7          	lui	t2,0xbeef1
 110:	aa038393          	addi	t2,t2,-1376 # beef0aa0 <_end+0xbeef04b0>
 114:	40771463          	bne	a4,t2,51c <fail>

00000118 <test_5>:
 118:	00500193          	li	gp,5
 11c:	5d000093          	li	ra,1488
 120:	ffffa137          	lui	sp,0xffffa
 124:	00a10113          	addi	sp,sp,10 # ffffa00a <_end+0xffff9a1a>
 128:	00000797          	auipc	a5,0x0
 12c:	01478793          	addi	a5,a5,20 # 13c <test_5+0x24>
 130:	00209323          	sh	sp,6(ra)
 134:	00609703          	lh	a4,6(ra)
 138:	0080006f          	j	140 <test_5+0x28>
 13c:	00010713          	mv	a4,sp
 140:	ffffa3b7          	lui	t2,0xffffa
 144:	00a38393          	addi	t2,t2,10 # ffffa00a <_end+0xffff9a1a>
 148:	3c771a63          	bne	a4,t2,51c <fail>

0000014c <test_6>:
 14c:	00600193          	li	gp,6
 150:	5de00093          	li	ra,1502
 154:	0aa00113          	li	sp,170
 158:	00000797          	auipc	a5,0x0
 15c:	01478793          	addi	a5,a5,20 # 16c <test_6+0x20>
 160:	fe209d23          	sh	sp,-6(ra)
 164:	ffa09703          	lh	a4,-6(ra)
 168:	0080006f          	j	170 <test_6+0x24>
 16c:	00010713          	mv	a4,sp
 170:	0aa00393          	li	t2,170
 174:	3a771463          	bne	a4,t2,51c <fail>

00000178 <test_7>:
 178:	00700193          	li	gp,7
 17c:	5de00093          	li	ra,1502
 180:	ffffb137          	lui	sp,0xffffb
 184:	a0010113          	addi	sp,sp,-1536 # ffffaa00 <_end+0xffffa410>
 188:	00000797          	auipc	a5,0x0
 18c:	01478793          	addi	a5,a5,20 # 19c <test_7+0x24>
 190:	fe209e23          	sh	sp,-4(ra)
 194:	ffc09703          	lh	a4,-4(ra)
 198:	0080006f          	j	1a0 <test_7+0x28>
 19c:	00010713          	mv	a4,sp
 1a0:	ffffb3b7          	lui	t2,0xffffb
 1a4:	a0038393          	addi	t2,t2,-1536 # ffffaa00 <_end+0xffffa410>
 1a8:	36771a63          	bne	a4,t2,51c <fail>

000001ac <test_8>:
 1ac:	00800193          	li	gp,8
 1b0:	5de00093          	li	ra,1502
 1b4:	00001137          	lui	sp,0x1
 1b8:	aa010113          	addi	sp,sp,-1376 # aa0 <_end+0x4b0>
 1bc:	00000797          	auipc	a5,0x0
 1c0:	01478793          	addi	a5,a5,20 # 1d0 <test_8+0x24>
 1c4:	fe209f23          	sh	sp,-2(ra)
 1c8:	ffe09703          	lh	a4,-2(ra)
 1cc:	0080006f          	j	1d4 <test_8+0x28>
 1d0:	00010713          	mv	a4,sp
 1d4:	000013b7          	lui	t2,0x1
 1d8:	aa038393          	addi	t2,t2,-1376 # aa0 <_end+0x4b0>
 1dc:	34771063          	bne	a4,t2,51c <fail>

000001e0 <test_9>:
 1e0:	00900193          	li	gp,9
 1e4:	5de00093          	li	ra,1502
 1e8:	ffffa137          	lui	sp,0xffffa
 1ec:	00a10113          	addi	sp,sp,10 # ffffa00a <_end+0xffff9a1a>
 1f0:	00000797          	auipc	a5,0x0
 1f4:	01478793          	addi	a5,a5,20 # 204 <test_9+0x24>
 1f8:	00209023          	sh	sp,0(ra)
 1fc:	00009703          	lh	a4,0(ra)
 200:	0080006f          	j	208 <test_9+0x28>
 204:	00010713          	mv	a4,sp
 208:	ffffa3b7          	lui	t2,0xffffa
 20c:	00a38393          	addi	t2,t2,10 # ffffa00a <_end+0xffff9a1a>
 210:	30771663          	bne	a4,t2,51c <fail>

00000214 <test_10>:
 214:	00a00193          	li	gp,10
 218:	5e000093          	li	ra,1504
 21c:	12345137          	lui	sp,0x12345
 220:	67810113          	addi	sp,sp,1656 # 12345678 <_end+0x12345088>
 224:	fe008213          	addi	tp,ra,-32
 228:	02221023          	sh	sp,32(tp) # 20 <_start+0x20>
 22c:	00009283          	lh	t0,0(ra)
 230:	000053b7          	lui	t2,0x5
 234:	67838393          	addi	t2,t2,1656 # 5678 <_end+0x5088>
 238:	2e729263          	bne	t0,t2,51c <fail>

0000023c <test_11>:
 23c:	00b00193          	li	gp,11
 240:	5e000093          	li	ra,1504
 244:	00003137          	lui	sp,0x3
 248:	09810113          	addi	sp,sp,152 # 3098 <_end+0x2aa8>
 24c:	ffb08093          	addi	ra,ra,-5
 250:	002093a3          	sh	sp,7(ra)
 254:	5e200213          	li	tp,1506
 258:	00021283          	lh	t0,0(tp) # 0 <_start>
 25c:	000033b7          	lui	t2,0x3
 260:	09838393          	addi	t2,t2,152 # 3098 <_end+0x2aa8>
 264:	2a729c63          	bne	t0,t2,51c <fail>

00000268 <test_12>:
 268:	00c00193          	li	gp,12
 26c:	00000213          	li	tp,0
 270:	ffffd0b7          	lui	ra,0xffffd
 274:	cdd08093          	addi	ra,ra,-803 # ffffccdd <_end+0xffffc6ed>
 278:	5d000113          	li	sp,1488
 27c:	00111023          	sh	ra,0(sp)
 280:	00011703          	lh	a4,0(sp)
 284:	ffffd3b7          	lui	t2,0xffffd
 288:	cdd38393          	addi	t2,t2,-803 # ffffccdd <_end+0xffffc6ed>
 28c:	28771863          	bne	a4,t2,51c <fail>
 290:	00120213          	addi	tp,tp,1 # 1 <_start+0x1>
 294:	00200293          	li	t0,2
 298:	fc521ce3          	bne	tp,t0,270 <test_12+0x8>

0000029c <test_13>:
 29c:	00d00193          	li	gp,13
 2a0:	00000213          	li	tp,0
 2a4:	ffffc0b7          	lui	ra,0xffffc
 2a8:	ccd08093          	addi	ra,ra,-819 # ffffbccd <_end+0xffffb6dd>
 2ac:	5d000113          	li	sp,1488
 2b0:	00000013          	nop
 2b4:	00111123          	sh	ra,2(sp)
 2b8:	00211703          	lh	a4,2(sp)
 2bc:	ffffc3b7          	lui	t2,0xffffc
 2c0:	ccd38393          	addi	t2,t2,-819 # ffffbccd <_end+0xffffb6dd>
 2c4:	24771c63          	bne	a4,t2,51c <fail>
 2c8:	00120213          	addi	tp,tp,1 # 1 <_start+0x1>
 2cc:	00200293          	li	t0,2
 2d0:	fc521ae3          	bne	tp,t0,2a4 <test_13+0x8>

000002d4 <test_14>:
 2d4:	00e00193          	li	gp,14
 2d8:	00000213          	li	tp,0
 2dc:	ffffc0b7          	lui	ra,0xffffc
 2e0:	bcc08093          	addi	ra,ra,-1076 # ffffbbcc <_end+0xffffb5dc>
 2e4:	5d000113          	li	sp,1488
 2e8:	00000013          	nop
 2ec:	00000013          	nop
 2f0:	00111223          	sh	ra,4(sp)
 2f4:	00411703          	lh	a4,4(sp)
 2f8:	ffffc3b7          	lui	t2,0xffffc
 2fc:	bcc38393          	addi	t2,t2,-1076 # ffffbbcc <_end+0xffffb5dc>
 300:	20771e63          	bne	a4,t2,51c <fail>
 304:	00120213          	addi	tp,tp,1 # 1 <_start+0x1>
 308:	00200293          	li	t0,2
 30c:	fc5218e3          	bne	tp,t0,2dc <test_14+0x8>

00000310 <test_15>:
 310:	00f00193          	li	gp,15
 314:	00000213          	li	tp,0
 318:	ffffb0b7          	lui	ra,0xffffb
 31c:	bbc08093          	addi	ra,ra,-1092 # ffffabbc <_end+0xffffa5cc>
 320:	00000013          	nop
 324:	5d000113          	li	sp,1488
 328:	00111323          	sh	ra,6(sp)
 32c:	00611703          	lh	a4,6(sp)
 330:	ffffb3b7          	lui	t2,0xffffb
 334:	bbc38393          	addi	t2,t2,-1092 # ffffabbc <_end+0xffffa5cc>
 338:	1e771263          	bne	a4,t2,51c <fail>
 33c:	00120213          	addi	tp,tp,1 # 1 <_start+0x1>
 340:	00200293          	li	t0,2
 344:	fc521ae3          	bne	tp,t0,318 <test_15+0x8>

00000348 <test_16>:
 348:	01000193          	li	gp,16
 34c:	00000213          	li	tp,0
 350:	ffffb0b7          	lui	ra,0xffffb
 354:	abb08093          	addi	ra,ra,-1349 # ffffaabb <_end+0xffffa4cb>
 358:	00000013          	nop
 35c:	5d000113          	li	sp,1488
 360:	00000013          	nop
 364:	00111423          	sh	ra,8(sp)
 368:	00811703          	lh	a4,8(sp)
 36c:	ffffb3b7          	lui	t2,0xffffb
 370:	abb38393          	addi	t2,t2,-1349 # ffffaabb <_end+0xffffa4cb>
 374:	1a771463          	bne	a4,t2,51c <fail>
 378:	00120213          	addi	tp,tp,1 # 1 <_start+0x1>
 37c:	00200293          	li	t0,2
 380:	fc5218e3          	bne	tp,t0,350 <test_16+0x8>

00000384 <test_17>:
 384:	01100193          	li	gp,17
 388:	00000213          	li	tp,0
 38c:	ffffe0b7          	lui	ra,0xffffe
 390:	aab08093          	addi	ra,ra,-1365 # ffffdaab <_end+0xffffd4bb>
 394:	00000013          	nop
 398:	00000013          	nop
 39c:	5d000113          	li	sp,1488
 3a0:	00111523          	sh	ra,10(sp)
 3a4:	00a11703          	lh	a4,10(sp)
 3a8:	ffffe3b7          	lui	t2,0xffffe
 3ac:	aab38393          	addi	t2,t2,-1365 # ffffdaab <_end+0xffffd4bb>
 3b0:	16771663          	bne	a4,t2,51c <fail>
 3b4:	00120213          	addi	tp,tp,1 # 1 <_start+0x1>
 3b8:	00200293          	li	t0,2
 3bc:	fc5218e3          	bne	tp,t0,38c <test_17+0x8>

000003c0 <test_18>:
 3c0:	01200193          	li	gp,18
 3c4:	00000213          	li	tp,0
 3c8:	5d000113          	li	sp,1488
 3cc:	000020b7          	lui	ra,0x2
 3d0:	23308093          	addi	ra,ra,563 # 2233 <_end+0x1c43>
 3d4:	00111023          	sh	ra,0(sp)
 3d8:	00011703          	lh	a4,0(sp)
 3dc:	000023b7          	lui	t2,0x2
 3e0:	23338393          	addi	t2,t2,563 # 2233 <_end+0x1c43>
 3e4:	12771c63          	bne	a4,t2,51c <fail>
 3e8:	00120213          	addi	tp,tp,1 # 1 <_start+0x1>
 3ec:	00200293          	li	t0,2
 3f0:	fc521ce3          	bne	tp,t0,3c8 <test_18+0x8>

000003f4 <test_19>:
 3f4:	01300193          	li	gp,19
 3f8:	00000213          	li	tp,0
 3fc:	5d000113          	li	sp,1488
 400:	000010b7          	lui	ra,0x1
 404:	22308093          	addi	ra,ra,547 # 1223 <_end+0xc33>
 408:	00000013          	nop
 40c:	00111123          	sh	ra,2(sp)
 410:	00211703          	lh	a4,2(sp)
 414:	000013b7          	lui	t2,0x1
 418:	22338393          	addi	t2,t2,547 # 1223 <_end+0xc33>
 41c:	10771063          	bne	a4,t2,51c <fail>
 420:	00120213          	addi	tp,tp,1 # 1 <_start+0x1>
 424:	00200293          	li	t0,2
 428:	fc521ae3          	bne	tp,t0,3fc <test_19+0x8>

0000042c <test_20>:
 42c:	01400193          	li	gp,20
 430:	00000213          	li	tp,0
 434:	5d000113          	li	sp,1488
 438:	000010b7          	lui	ra,0x1
 43c:	12208093          	addi	ra,ra,290 # 1122 <_end+0xb32>
 440:	00000013          	nop
 444:	00000013          	nop
 448:	00111223          	sh	ra,4(sp)
 44c:	00411703          	lh	a4,4(sp)
 450:	000013b7          	lui	t2,0x1
 454:	12238393          	addi	t2,t2,290 # 1122 <_end+0xb32>
 458:	0c771263          	bne	a4,t2,51c <fail>
 45c:	00120213          	addi	tp,tp,1 # 1 <_start+0x1>
 460:	00200293          	li	t0,2
 464:	fc5218e3          	bne	tp,t0,434 <test_20+0x8>

00000468 <test_21>:
 468:	01500193          	li	gp,21
 46c:	00000213          	li	tp,0
 470:	5d000113          	li	sp,1488
 474:	00000013          	nop
 478:	11200093          	li	ra,274
 47c:	00111323          	sh	ra,6(sp)
 480:	00611703          	lh	a4,6(sp)
 484:	11200393          	li	t2,274
 488:	08771a63          	bne	a4,t2,51c <fail>
 48c:	00120213          	addi	tp,tp,1 # 1 <_start+0x1>
 490:	00200293          	li	t0,2
 494:	fc521ee3          	bne	tp,t0,470 <test_21+0x8>

00000498 <test_22>:
 498:	01600193          	li	gp,22
 49c:	00000213          	li	tp,0
 4a0:	5d000113          	li	sp,1488
 4a4:	00000013          	nop
 4a8:	01100093          	li	ra,17
 4ac:	00000013          	nop
 4b0:	00111423          	sh	ra,8(sp)
 4b4:	00811703          	lh	a4,8(sp)
 4b8:	01100393          	li	t2,17
 4bc:	06771063          	bne	a4,t2,51c <fail>
 4c0:	00120213          	addi	tp,tp,1 # 1 <_start+0x1>
 4c4:	00200293          	li	t0,2
 4c8:	fc521ce3          	bne	tp,t0,4a0 <test_22+0x8>

000004cc <test_23>:
 4cc:	01700193          	li	gp,23
 4d0:	00000213          	li	tp,0
 4d4:	5d000113          	li	sp,1488
 4d8:	00000013          	nop
 4dc:	00000013          	nop
 4e0:	000030b7          	lui	ra,0x3
 4e4:	00108093          	addi	ra,ra,1 # 3001 <_end+0x2a11>
 4e8:	00111523          	sh	ra,10(sp)
 4ec:	00a11703          	lh	a4,10(sp)
 4f0:	000033b7          	lui	t2,0x3
 4f4:	00138393          	addi	t2,t2,1 # 3001 <_end+0x2a11>
 4f8:	02771263          	bne	a4,t2,51c <fail>
 4fc:	00120213          	addi	tp,tp,1 # 1 <_start+0x1>
 500:	00200293          	li	t0,2
 504:	fc5218e3          	bne	tp,t0,4d4 <test_23+0x8>
 508:	0000c537          	lui	a0,0xc
 50c:	eef50513          	addi	a0,a0,-273 # beef <_end+0xb8ff>
 510:	5d000593          	li	a1,1488
 514:	00a59323          	sh	a0,6(a1)
 518:	00301863          	bne	zero,gp,528 <pass>

0000051c <fail>:
 51c:	00100e13          	li	t3,1
 520:	00200e93          	li	t4,2
 524:	0000006f          	j	524 <fail+0x8>

00000528 <pass>:
 528:	00100e13          	li	t3,1
 52c:	00100e93          	li	t4,1
 530:	0000006f          	j	530 <pass+0x8>
 534:	c0001073          	unimp
 538:	0000                	unimp
 53a:	0000                	unimp
 53c:	0000                	unimp
 53e:	0000                	unimp
 540:	0000                	unimp
 542:	0000                	unimp
 544:	0000                	unimp
 546:	0000                	unimp
 548:	0000                	unimp
 54a:	0000                	unimp
 54c:	0000                	unimp
 54e:	0000                	unimp
 550:	0000                	unimp
 552:	0000                	unimp
 554:	0000                	unimp
 556:	0000                	unimp
 558:	0000                	unimp
 55a:	0000                	unimp
 55c:	0000                	unimp
 55e:	0000                	unimp
