
generated/rv32ui-p-lh:     file format elf32-littleriscv


Disassembly of section .text.init:

00000000 <_start>:
   0:	00000093          	li	ra,0
   4:	00000113          	li	sp,0
   8:	00000193          	li	gp,0
   c:	00000213          	li	tp,0
  10:	00000293          	li	t0,0
  14:	00000313          	li	t1,0
  18:	00000393          	li	t2,0
  1c:	00000413          	li	s0,0
  20:	00000493          	li	s1,0
  24:	00000513          	li	a0,0
  28:	00000593          	li	a1,0
  2c:	00000613          	li	a2,0
  30:	00000693          	li	a3,0
  34:	00000713          	li	a4,0
  38:	00000793          	li	a5,0
  3c:	00000813          	li	a6,0
  40:	00000893          	li	a7,0
  44:	00000913          	li	s2,0
  48:	00000993          	li	s3,0
  4c:	00000a13          	li	s4,0
  50:	00000a93          	li	s5,0
  54:	00000b13          	li	s6,0
  58:	00000b93          	li	s7,0
  5c:	00000c13          	li	s8,0
  60:	00000c93          	li	s9,0
  64:	00000d13          	li	s10,0
  68:	00000d93          	li	s11,0
  6c:	00000e13          	li	t3,0
  70:	00000e93          	li	t4,0
  74:	00000f13          	li	t5,0
  78:	00000f93          	li	t6,0

0000007c <test_2>:
  7c:	00200193          	li	gp,2
  80:	0ff00793          	li	a5,255
  84:	35000093          	li	ra,848
  88:	00009703          	lh	a4,0(ra)
  8c:	0ff00393          	li	t2,255
  90:	24771063          	bne	a4,t2,2d0 <fail>

00000094 <test_3>:
  94:	00300193          	li	gp,3
  98:	f0000793          	li	a5,-256
  9c:	35000093          	li	ra,848
  a0:	00209703          	lh	a4,2(ra)
  a4:	f0000393          	li	t2,-256
  a8:	22771463          	bne	a4,t2,2d0 <fail>

000000ac <test_4>:
  ac:	00400193          	li	gp,4
  b0:	000017b7          	lui	a5,0x1
  b4:	ff078793          	addi	a5,a5,-16 # ff0 <_end+0xc90>
  b8:	35000093          	li	ra,848
  bc:	00409703          	lh	a4,4(ra)
  c0:	000013b7          	lui	t2,0x1
  c4:	ff038393          	addi	t2,t2,-16 # ff0 <_end+0xc90>
  c8:	20771463          	bne	a4,t2,2d0 <fail>

000000cc <test_5>:
  cc:	00500193          	li	gp,5
  d0:	fffff7b7          	lui	a5,0xfffff
  d4:	00f78793          	addi	a5,a5,15 # fffff00f <_end+0xffffecaf>
  d8:	35000093          	li	ra,848
  dc:	00609703          	lh	a4,6(ra)
  e0:	fffff3b7          	lui	t2,0xfffff
  e4:	00f38393          	addi	t2,t2,15 # fffff00f <_end+0xffffecaf>
  e8:	1e771463          	bne	a4,t2,2d0 <fail>

000000ec <test_6>:
  ec:	00600193          	li	gp,6
  f0:	0ff00793          	li	a5,255
  f4:	35600093          	li	ra,854
  f8:	ffa09703          	lh	a4,-6(ra)
  fc:	0ff00393          	li	t2,255
 100:	1c771863          	bne	a4,t2,2d0 <fail>

00000104 <test_7>:
 104:	00700193          	li	gp,7
 108:	f0000793          	li	a5,-256
 10c:	35600093          	li	ra,854
 110:	ffc09703          	lh	a4,-4(ra)
 114:	f0000393          	li	t2,-256
 118:	1a771c63          	bne	a4,t2,2d0 <fail>

0000011c <test_8>:
 11c:	00800193          	li	gp,8
 120:	000017b7          	lui	a5,0x1
 124:	ff078793          	addi	a5,a5,-16 # ff0 <_end+0xc90>
 128:	35600093          	li	ra,854
 12c:	ffe09703          	lh	a4,-2(ra)
 130:	000013b7          	lui	t2,0x1
 134:	ff038393          	addi	t2,t2,-16 # ff0 <_end+0xc90>
 138:	18771c63          	bne	a4,t2,2d0 <fail>

0000013c <test_9>:
 13c:	00900193          	li	gp,9
 140:	fffff7b7          	lui	a5,0xfffff
 144:	00f78793          	addi	a5,a5,15 # fffff00f <_end+0xffffecaf>
 148:	35600093          	li	ra,854
 14c:	00009703          	lh	a4,0(ra)
 150:	fffff3b7          	lui	t2,0xfffff
 154:	00f38393          	addi	t2,t2,15 # fffff00f <_end+0xffffecaf>
 158:	16771c63          	bne	a4,t2,2d0 <fail>

0000015c <test_10>:
 15c:	00a00193          	li	gp,10
 160:	35000093          	li	ra,848
 164:	fe008093          	addi	ra,ra,-32
 168:	02009283          	lh	t0,32(ra)
 16c:	0ff00393          	li	t2,255
 170:	16729063          	bne	t0,t2,2d0 <fail>

00000174 <test_11>:
 174:	00b00193          	li	gp,11
 178:	35000093          	li	ra,848
 17c:	ffb08093          	addi	ra,ra,-5
 180:	00709283          	lh	t0,7(ra)
 184:	f0000393          	li	t2,-256
 188:	14729463          	bne	t0,t2,2d0 <fail>

0000018c <test_12>:
 18c:	00c00193          	li	gp,12
 190:	00000213          	li	tp,0
 194:	35200093          	li	ra,850
 198:	00209703          	lh	a4,2(ra)
 19c:	00070313          	mv	t1,a4
 1a0:	000013b7          	lui	t2,0x1
 1a4:	ff038393          	addi	t2,t2,-16 # ff0 <_end+0xc90>
 1a8:	12731463          	bne	t1,t2,2d0 <fail>
 1ac:	00120213          	addi	tp,tp,1 # 1 <_start+0x1>
 1b0:	00200293          	li	t0,2
 1b4:	fe5210e3          	bne	tp,t0,194 <test_12+0x8>

000001b8 <test_13>:
 1b8:	00d00193          	li	gp,13
 1bc:	00000213          	li	tp,0
 1c0:	35400093          	li	ra,852
 1c4:	00209703          	lh	a4,2(ra)
 1c8:	00000013          	nop
 1cc:	00070313          	mv	t1,a4
 1d0:	fffff3b7          	lui	t2,0xfffff
 1d4:	00f38393          	addi	t2,t2,15 # fffff00f <_end+0xffffecaf>
 1d8:	0e731c63          	bne	t1,t2,2d0 <fail>
 1dc:	00120213          	addi	tp,tp,1 # 1 <_start+0x1>
 1e0:	00200293          	li	t0,2
 1e4:	fc521ee3          	bne	tp,t0,1c0 <test_13+0x8>

000001e8 <test_14>:
 1e8:	00e00193          	li	gp,14
 1ec:	00000213          	li	tp,0
 1f0:	35000093          	li	ra,848
 1f4:	00209703          	lh	a4,2(ra)
 1f8:	00000013          	nop
 1fc:	00000013          	nop
 200:	00070313          	mv	t1,a4
 204:	f0000393          	li	t2,-256
 208:	0c731463          	bne	t1,t2,2d0 <fail>
 20c:	00120213          	addi	tp,tp,1 # 1 <_start+0x1>
 210:	00200293          	li	t0,2
 214:	fc521ee3          	bne	tp,t0,1f0 <test_14+0x8>

00000218 <test_15>:
 218:	00f00193          	li	gp,15
 21c:	00000213          	li	tp,0
 220:	35200093          	li	ra,850
 224:	00209703          	lh	a4,2(ra)
 228:	000013b7          	lui	t2,0x1
 22c:	ff038393          	addi	t2,t2,-16 # ff0 <_end+0xc90>
 230:	0a771063          	bne	a4,t2,2d0 <fail>
 234:	00120213          	addi	tp,tp,1 # 1 <_start+0x1>
 238:	00200293          	li	t0,2
 23c:	fe5212e3          	bne	tp,t0,220 <test_15+0x8>

00000240 <test_16>:
 240:	01000193          	li	gp,16
 244:	00000213          	li	tp,0
 248:	35400093          	li	ra,852
 24c:	00000013          	nop
 250:	00209703          	lh	a4,2(ra)
 254:	fffff3b7          	lui	t2,0xfffff
 258:	00f38393          	addi	t2,t2,15 # fffff00f <_end+0xffffecaf>
 25c:	06771a63          	bne	a4,t2,2d0 <fail>
 260:	00120213          	addi	tp,tp,1 # 1 <_start+0x1>
 264:	00200293          	li	t0,2
 268:	fe5210e3          	bne	tp,t0,248 <test_16+0x8>

0000026c <test_17>:
 26c:	01100193          	li	gp,17
 270:	00000213          	li	tp,0
 274:	35000093          	li	ra,848
 278:	00000013          	nop
 27c:	00000013          	nop
 280:	00209703          	lh	a4,2(ra)
 284:	f0000393          	li	t2,-256
 288:	04771463          	bne	a4,t2,2d0 <fail>
 28c:	00120213          	addi	tp,tp,1 # 1 <_start+0x1>
 290:	00200293          	li	t0,2
 294:	fe5210e3          	bne	tp,t0,274 <test_17+0x8>

00000298 <test_18>:
 298:	01200193          	li	gp,18
 29c:	35000293          	li	t0,848
 2a0:	00029103          	lh	sp,0(t0)
 2a4:	00200113          	li	sp,2
 2a8:	00200393          	li	t2,2
 2ac:	02711263          	bne	sp,t2,2d0 <fail>

000002b0 <test_19>:
 2b0:	01300193          	li	gp,19
 2b4:	35000293          	li	t0,848
 2b8:	00029103          	lh	sp,0(t0)
 2bc:	00000013          	nop
 2c0:	00200113          	li	sp,2
 2c4:	00200393          	li	t2,2
 2c8:	00711463          	bne	sp,t2,2d0 <fail>
 2cc:	00301863          	bne	zero,gp,2dc <pass>

000002d0 <fail>:
 2d0:	00100e13          	li	t3,1
 2d4:	00000e93          	li	t4,0

000002d8 <fail_loop>:
 2d8:	0000006f          	j	2d8 <fail_loop>

000002dc <pass>:
 2dc:	00100e13          	li	t3,1
 2e0:	00100e93          	li	t4,1

000002e4 <pass_loop>:
 2e4:	0000006f          	j	2e4 <pass_loop>
 2e8:	c0001073          	unimp
 2ec:	0000                	unimp
 2ee:	0000                	unimp
 2f0:	0000                	unimp
 2f2:	0000                	unimp
 2f4:	0000                	unimp
 2f6:	0000                	unimp
 2f8:	0000                	unimp
 2fa:	0000                	unimp

Disassembly of section .data:

00000350 <begin_signature>:
 350:	00ff                	0xff

00000352 <tdat2>:
 352:	ff00                	fsw	fs0,56(a4)

00000354 <tdat3>:
 354:	0ff0                	addi	a2,sp,988

00000356 <tdat4>:
 356:	0000f00f          	0xf00f
 35a:	0000                	unimp
 35c:	0000                	unimp
 35e:	0000                	unimp
