
generated/rv32um-p-mulh:     file format elf32-littleriscv


Disassembly of section .text.init:

00000000 <_start>:
   0:	00000093          	li	ra,0
   4:	00000113          	li	sp,0
   8:	00000193          	li	gp,0
   c:	00000213          	li	tp,0
  10:	00000293          	li	t0,0
  14:	00000313          	li	t1,0
  18:	00000393          	li	t2,0
  1c:	00000413          	li	s0,0
  20:	00000493          	li	s1,0
  24:	00000513          	li	a0,0
  28:	00000593          	li	a1,0
  2c:	00000613          	li	a2,0
  30:	00000693          	li	a3,0
  34:	00000713          	li	a4,0
  38:	00000793          	li	a5,0
  3c:	00000813          	li	a6,0
  40:	00000893          	li	a7,0
  44:	00000913          	li	s2,0
  48:	00000993          	li	s3,0
  4c:	00000a13          	li	s4,0
  50:	00000a93          	li	s5,0
  54:	00000b13          	li	s6,0
  58:	00000b93          	li	s7,0
  5c:	00000c13          	li	s8,0
  60:	00000c93          	li	s9,0
  64:	00000d13          	li	s10,0
  68:	00000d93          	li	s11,0
  6c:	00000e13          	li	t3,0
  70:	00000e93          	li	t4,0
  74:	00000f13          	li	t5,0
  78:	00000f93          	li	t6,0
  7c:	00000293          	li	t0,0
  80:	30529073          	csrw	mtvec,t0

00000084 <test_2>:
  84:	00200193          	li	gp,2
  88:	00000093          	li	ra,0
  8c:	00000113          	li	sp,0
  90:	02209733          	mulh	a4,ra,sp
  94:	00000393          	li	t2,0
  98:	4a771a63          	bne	a4,t2,54c <fail>

0000009c <test_3>:
  9c:	00300193          	li	gp,3
  a0:	00100093          	li	ra,1
  a4:	00100113          	li	sp,1
  a8:	02209733          	mulh	a4,ra,sp
  ac:	00000393          	li	t2,0
  b0:	48771e63          	bne	a4,t2,54c <fail>

000000b4 <test_4>:
  b4:	00400193          	li	gp,4
  b8:	00300093          	li	ra,3
  bc:	00700113          	li	sp,7
  c0:	02209733          	mulh	a4,ra,sp
  c4:	00000393          	li	t2,0
  c8:	48771263          	bne	a4,t2,54c <fail>

000000cc <test_5>:
  cc:	00500193          	li	gp,5
  d0:	00000093          	li	ra,0
  d4:	ffff8137          	lui	sp,0xffff8
  d8:	02209733          	mulh	a4,ra,sp
  dc:	00000393          	li	t2,0
  e0:	46771663          	bne	a4,t2,54c <fail>

000000e4 <test_6>:
  e4:	00600193          	li	gp,6
  e8:	800000b7          	lui	ra,0x80000
  ec:	00000113          	li	sp,0
  f0:	02209733          	mulh	a4,ra,sp
  f4:	00000393          	li	t2,0
  f8:	44771a63          	bne	a4,t2,54c <fail>

000000fc <test_7>:
  fc:	00700193          	li	gp,7
 100:	800000b7          	lui	ra,0x80000
 104:	00000113          	li	sp,0
 108:	02209733          	mulh	a4,ra,sp
 10c:	00000393          	li	t2,0
 110:	42771e63          	bne	a4,t2,54c <fail>

00000114 <test_30>:
 114:	01e00193          	li	gp,30
 118:	aaaab0b7          	lui	ra,0xaaaab
 11c:	aab08093          	addi	ra,ra,-1365 # aaaaaaab <begin_signature+0xaaaaa4db>
 120:	00030137          	lui	sp,0x30
 124:	e7d10113          	addi	sp,sp,-387 # 2fe7d <begin_signature+0x2f8ad>
 128:	02209733          	mulh	a4,ra,sp
 12c:	ffff03b7          	lui	t2,0xffff0
 130:	08138393          	addi	t2,t2,129 # ffff0081 <begin_signature+0xfffefab1>
 134:	40771c63          	bne	a4,t2,54c <fail>

00000138 <test_31>:
 138:	01f00193          	li	gp,31
 13c:	000300b7          	lui	ra,0x30
 140:	e7d08093          	addi	ra,ra,-387 # 2fe7d <begin_signature+0x2f8ad>
 144:	aaaab137          	lui	sp,0xaaaab
 148:	aab10113          	addi	sp,sp,-1365 # aaaaaaab <begin_signature+0xaaaaa4db>
 14c:	02209733          	mulh	a4,ra,sp
 150:	ffff03b7          	lui	t2,0xffff0
 154:	08138393          	addi	t2,t2,129 # ffff0081 <begin_signature+0xfffefab1>
 158:	3e771a63          	bne	a4,t2,54c <fail>

0000015c <test_32>:
 15c:	02000193          	li	gp,32
 160:	ff0000b7          	lui	ra,0xff000
 164:	ff000137          	lui	sp,0xff000
 168:	02209733          	mulh	a4,ra,sp
 16c:	000103b7          	lui	t2,0x10
 170:	3c771e63          	bne	a4,t2,54c <fail>

00000174 <test_33>:
 174:	02100193          	li	gp,33
 178:	fff00093          	li	ra,-1
 17c:	fff00113          	li	sp,-1
 180:	02209733          	mulh	a4,ra,sp
 184:	00000393          	li	t2,0
 188:	3c771263          	bne	a4,t2,54c <fail>

0000018c <test_34>:
 18c:	02200193          	li	gp,34
 190:	fff00093          	li	ra,-1
 194:	00100113          	li	sp,1
 198:	02209733          	mulh	a4,ra,sp
 19c:	fff00393          	li	t2,-1
 1a0:	3a771663          	bne	a4,t2,54c <fail>

000001a4 <test_35>:
 1a4:	02300193          	li	gp,35
 1a8:	00100093          	li	ra,1
 1ac:	fff00113          	li	sp,-1
 1b0:	02209733          	mulh	a4,ra,sp
 1b4:	fff00393          	li	t2,-1
 1b8:	38771a63          	bne	a4,t2,54c <fail>

000001bc <test_8>:
 1bc:	00800193          	li	gp,8
 1c0:	00d000b7          	lui	ra,0xd00
 1c4:	00b00137          	lui	sp,0xb00
 1c8:	022090b3          	mulh	ra,ra,sp
 1cc:	000093b7          	lui	t2,0x9
 1d0:	f0038393          	addi	t2,t2,-256 # 8f00 <begin_signature+0x8930>
 1d4:	36709c63          	bne	ra,t2,54c <fail>

000001d8 <test_9>:
 1d8:	00900193          	li	gp,9
 1dc:	00e000b7          	lui	ra,0xe00
 1e0:	00b00137          	lui	sp,0xb00
 1e4:	02209133          	mulh	sp,ra,sp
 1e8:	0000a3b7          	lui	t2,0xa
 1ec:	a0038393          	addi	t2,t2,-1536 # 9a00 <begin_signature+0x9430>
 1f0:	34711e63          	bne	sp,t2,54c <fail>

000001f4 <test_10>:
 1f4:	00a00193          	li	gp,10
 1f8:	00d000b7          	lui	ra,0xd00
 1fc:	021090b3          	mulh	ra,ra,ra
 200:	0000b3b7          	lui	t2,0xb
 204:	90038393          	addi	t2,t2,-1792 # a900 <begin_signature+0xa330>
 208:	34709263          	bne	ra,t2,54c <fail>

0000020c <test_11>:
 20c:	00b00193          	li	gp,11
 210:	00000213          	li	tp,0
 214:	00d000b7          	lui	ra,0xd00
 218:	00b00137          	lui	sp,0xb00
 21c:	02209733          	mulh	a4,ra,sp
 220:	00070313          	mv	t1,a4
 224:	00120213          	addi	tp,tp,1 # 1 <_start+0x1>
 228:	00200293          	li	t0,2
 22c:	fe5214e3          	bne	tp,t0,214 <test_11+0x8>
 230:	000093b7          	lui	t2,0x9
 234:	f0038393          	addi	t2,t2,-256 # 8f00 <begin_signature+0x8930>
 238:	30731a63          	bne	t1,t2,54c <fail>

0000023c <test_12>:
 23c:	00c00193          	li	gp,12
 240:	00000213          	li	tp,0
 244:	00e000b7          	lui	ra,0xe00
 248:	00b00137          	lui	sp,0xb00
 24c:	02209733          	mulh	a4,ra,sp
 250:	00000013          	nop
 254:	00070313          	mv	t1,a4
 258:	00120213          	addi	tp,tp,1 # 1 <_start+0x1>
 25c:	00200293          	li	t0,2
 260:	fe5212e3          	bne	tp,t0,244 <test_12+0x8>
 264:	0000a3b7          	lui	t2,0xa
 268:	a0038393          	addi	t2,t2,-1536 # 9a00 <begin_signature+0x9430>
 26c:	2e731063          	bne	t1,t2,54c <fail>

00000270 <test_13>:
 270:	00d00193          	li	gp,13
 274:	00000213          	li	tp,0
 278:	00f000b7          	lui	ra,0xf00
 27c:	00b00137          	lui	sp,0xb00
 280:	02209733          	mulh	a4,ra,sp
 284:	00000013          	nop
 288:	00000013          	nop
 28c:	00070313          	mv	t1,a4
 290:	00120213          	addi	tp,tp,1 # 1 <_start+0x1>
 294:	00200293          	li	t0,2
 298:	fe5210e3          	bne	tp,t0,278 <test_13+0x8>
 29c:	0000a3b7          	lui	t2,0xa
 2a0:	50038393          	addi	t2,t2,1280 # a500 <begin_signature+0x9f30>
 2a4:	2a731463          	bne	t1,t2,54c <fail>

000002a8 <test_14>:
 2a8:	00e00193          	li	gp,14
 2ac:	00000213          	li	tp,0
 2b0:	00d000b7          	lui	ra,0xd00
 2b4:	00b00137          	lui	sp,0xb00
 2b8:	02209733          	mulh	a4,ra,sp
 2bc:	00120213          	addi	tp,tp,1 # 1 <_start+0x1>
 2c0:	00200293          	li	t0,2
 2c4:	fe5216e3          	bne	tp,t0,2b0 <test_14+0x8>
 2c8:	000093b7          	lui	t2,0x9
 2cc:	f0038393          	addi	t2,t2,-256 # 8f00 <begin_signature+0x8930>
 2d0:	26771e63          	bne	a4,t2,54c <fail>

000002d4 <test_15>:
 2d4:	00f00193          	li	gp,15
 2d8:	00000213          	li	tp,0
 2dc:	00e000b7          	lui	ra,0xe00
 2e0:	00b00137          	lui	sp,0xb00
 2e4:	00000013          	nop
 2e8:	02209733          	mulh	a4,ra,sp
 2ec:	00120213          	addi	tp,tp,1 # 1 <_start+0x1>
 2f0:	00200293          	li	t0,2
 2f4:	fe5214e3          	bne	tp,t0,2dc <test_15+0x8>
 2f8:	0000a3b7          	lui	t2,0xa
 2fc:	a0038393          	addi	t2,t2,-1536 # 9a00 <begin_signature+0x9430>
 300:	24771663          	bne	a4,t2,54c <fail>

00000304 <test_16>:
 304:	01000193          	li	gp,16
 308:	00000213          	li	tp,0
 30c:	00f000b7          	lui	ra,0xf00
 310:	00b00137          	lui	sp,0xb00
 314:	00000013          	nop
 318:	00000013          	nop
 31c:	02209733          	mulh	a4,ra,sp
 320:	00120213          	addi	tp,tp,1 # 1 <_start+0x1>
 324:	00200293          	li	t0,2
 328:	fe5212e3          	bne	tp,t0,30c <test_16+0x8>
 32c:	0000a3b7          	lui	t2,0xa
 330:	50038393          	addi	t2,t2,1280 # a500 <begin_signature+0x9f30>
 334:	20771c63          	bne	a4,t2,54c <fail>

00000338 <test_17>:
 338:	01100193          	li	gp,17
 33c:	00000213          	li	tp,0
 340:	00d000b7          	lui	ra,0xd00
 344:	00000013          	nop
 348:	00b00137          	lui	sp,0xb00
 34c:	02209733          	mulh	a4,ra,sp
 350:	00120213          	addi	tp,tp,1 # 1 <_start+0x1>
 354:	00200293          	li	t0,2
 358:	fe5214e3          	bne	tp,t0,340 <test_17+0x8>
 35c:	000093b7          	lui	t2,0x9
 360:	f0038393          	addi	t2,t2,-256 # 8f00 <begin_signature+0x8930>
 364:	1e771463          	bne	a4,t2,54c <fail>

00000368 <test_18>:
 368:	01200193          	li	gp,18
 36c:	00000213          	li	tp,0
 370:	00e000b7          	lui	ra,0xe00
 374:	00000013          	nop
 378:	00b00137          	lui	sp,0xb00
 37c:	00000013          	nop
 380:	02209733          	mulh	a4,ra,sp
 384:	00120213          	addi	tp,tp,1 # 1 <_start+0x1>
 388:	00200293          	li	t0,2
 38c:	fe5212e3          	bne	tp,t0,370 <test_18+0x8>
 390:	0000a3b7          	lui	t2,0xa
 394:	a0038393          	addi	t2,t2,-1536 # 9a00 <begin_signature+0x9430>
 398:	1a771a63          	bne	a4,t2,54c <fail>

0000039c <test_19>:
 39c:	01300193          	li	gp,19
 3a0:	00000213          	li	tp,0
 3a4:	00f000b7          	lui	ra,0xf00
 3a8:	00000013          	nop
 3ac:	00000013          	nop
 3b0:	00b00137          	lui	sp,0xb00
 3b4:	02209733          	mulh	a4,ra,sp
 3b8:	00120213          	addi	tp,tp,1 # 1 <_start+0x1>
 3bc:	00200293          	li	t0,2
 3c0:	fe5212e3          	bne	tp,t0,3a4 <test_19+0x8>
 3c4:	0000a3b7          	lui	t2,0xa
 3c8:	50038393          	addi	t2,t2,1280 # a500 <begin_signature+0x9f30>
 3cc:	18771063          	bne	a4,t2,54c <fail>

000003d0 <test_20>:
 3d0:	01400193          	li	gp,20
 3d4:	00000213          	li	tp,0
 3d8:	00b00137          	lui	sp,0xb00
 3dc:	00d000b7          	lui	ra,0xd00
 3e0:	02209733          	mulh	a4,ra,sp
 3e4:	00120213          	addi	tp,tp,1 # 1 <_start+0x1>
 3e8:	00200293          	li	t0,2
 3ec:	fe5216e3          	bne	tp,t0,3d8 <test_20+0x8>
 3f0:	000093b7          	lui	t2,0x9
 3f4:	f0038393          	addi	t2,t2,-256 # 8f00 <begin_signature+0x8930>
 3f8:	14771a63          	bne	a4,t2,54c <fail>

000003fc <test_21>:
 3fc:	01500193          	li	gp,21
 400:	00000213          	li	tp,0
 404:	00b00137          	lui	sp,0xb00
 408:	00e000b7          	lui	ra,0xe00
 40c:	00000013          	nop
 410:	02209733          	mulh	a4,ra,sp
 414:	00120213          	addi	tp,tp,1 # 1 <_start+0x1>
 418:	00200293          	li	t0,2
 41c:	fe5214e3          	bne	tp,t0,404 <test_21+0x8>
 420:	0000a3b7          	lui	t2,0xa
 424:	a0038393          	addi	t2,t2,-1536 # 9a00 <begin_signature+0x9430>
 428:	12771263          	bne	a4,t2,54c <fail>

0000042c <test_22>:
 42c:	01600193          	li	gp,22
 430:	00000213          	li	tp,0
 434:	00b00137          	lui	sp,0xb00
 438:	00f000b7          	lui	ra,0xf00
 43c:	00000013          	nop
 440:	00000013          	nop
 444:	02209733          	mulh	a4,ra,sp
 448:	00120213          	addi	tp,tp,1 # 1 <_start+0x1>
 44c:	00200293          	li	t0,2
 450:	fe5212e3          	bne	tp,t0,434 <test_22+0x8>
 454:	0000a3b7          	lui	t2,0xa
 458:	50038393          	addi	t2,t2,1280 # a500 <begin_signature+0x9f30>
 45c:	0e771863          	bne	a4,t2,54c <fail>

00000460 <test_23>:
 460:	01700193          	li	gp,23
 464:	00000213          	li	tp,0
 468:	00b00137          	lui	sp,0xb00
 46c:	00000013          	nop
 470:	00d000b7          	lui	ra,0xd00
 474:	02209733          	mulh	a4,ra,sp
 478:	00120213          	addi	tp,tp,1 # 1 <_start+0x1>
 47c:	00200293          	li	t0,2
 480:	fe5214e3          	bne	tp,t0,468 <test_23+0x8>
 484:	000093b7          	lui	t2,0x9
 488:	f0038393          	addi	t2,t2,-256 # 8f00 <begin_signature+0x8930>
 48c:	0c771063          	bne	a4,t2,54c <fail>

00000490 <test_24>:
 490:	01800193          	li	gp,24
 494:	00000213          	li	tp,0
 498:	00b00137          	lui	sp,0xb00
 49c:	00000013          	nop
 4a0:	00e000b7          	lui	ra,0xe00
 4a4:	00000013          	nop
 4a8:	02209733          	mulh	a4,ra,sp
 4ac:	00120213          	addi	tp,tp,1 # 1 <_start+0x1>
 4b0:	00200293          	li	t0,2
 4b4:	fe5212e3          	bne	tp,t0,498 <test_24+0x8>
 4b8:	0000a3b7          	lui	t2,0xa
 4bc:	a0038393          	addi	t2,t2,-1536 # 9a00 <begin_signature+0x9430>
 4c0:	08771663          	bne	a4,t2,54c <fail>

000004c4 <test_25>:
 4c4:	01900193          	li	gp,25
 4c8:	00000213          	li	tp,0
 4cc:	00b00137          	lui	sp,0xb00
 4d0:	00000013          	nop
 4d4:	00000013          	nop
 4d8:	00f000b7          	lui	ra,0xf00
 4dc:	02209733          	mulh	a4,ra,sp
 4e0:	00120213          	addi	tp,tp,1 # 1 <_start+0x1>
 4e4:	00200293          	li	t0,2
 4e8:	fe5212e3          	bne	tp,t0,4cc <test_25+0x8>
 4ec:	0000a3b7          	lui	t2,0xa
 4f0:	50038393          	addi	t2,t2,1280 # a500 <begin_signature+0x9f30>
 4f4:	04771c63          	bne	a4,t2,54c <fail>

000004f8 <test_26>:
 4f8:	01a00193          	li	gp,26
 4fc:	7c0000b7          	lui	ra,0x7c000
 500:	02101133          	mulh	sp,zero,ra
 504:	00000393          	li	t2,0
 508:	04711263          	bne	sp,t2,54c <fail>

0000050c <test_27>:
 50c:	01b00193          	li	gp,27
 510:	800000b7          	lui	ra,0x80000
 514:	02009133          	mulh	sp,ra,zero
 518:	00000393          	li	t2,0
 51c:	02711863          	bne	sp,t2,54c <fail>

00000520 <test_28>:
 520:	01c00193          	li	gp,28
 524:	020010b3          	mulh	ra,zero,zero
 528:	00000393          	li	t2,0
 52c:	02709063          	bne	ra,t2,54c <fail>

00000530 <test_29>:
 530:	01d00193          	li	gp,29
 534:	021000b7          	lui	ra,0x2100
 538:	02200137          	lui	sp,0x2200
 53c:	02209033          	mulh	zero,ra,sp
 540:	00000393          	li	t2,0
 544:	00701463          	bne	zero,t2,54c <fail>
 548:	00301863          	bne	zero,gp,558 <pass>

0000054c <fail>:
 54c:	00100e13          	li	t3,1
 550:	00200e93          	li	t4,2
 554:	0000006f          	j	554 <fail+0x8>

00000558 <pass>:
 558:	00100e13          	li	t3,1
 55c:	00100e93          	li	t4,1
 560:	0000006f          	j	560 <pass+0x8>
 564:	c0001073          	unimp
 568:	0000                	unimp
 56a:	0000                	unimp
 56c:	0000                	unimp
 56e:	0000                	unimp
 570:	0000                	unimp
 572:	0000                	unimp
 574:	0000                	unimp
 576:	0000                	unimp
 578:	0000                	unimp
 57a:	0000                	unimp
 57c:	0000                	unimp
 57e:	0000                	unimp
