
generated/rv32ui-p-xor:     file format elf32-littleriscv


Disassembly of section .text.init:

00000000 <_start>:
   0:	00000093          	li	ra,0
   4:	00000113          	li	sp,0
   8:	00000193          	li	gp,0
   c:	00000213          	li	tp,0
  10:	00000293          	li	t0,0
  14:	00000313          	li	t1,0
  18:	00000393          	li	t2,0
  1c:	00000413          	li	s0,0
  20:	00000493          	li	s1,0
  24:	00000513          	li	a0,0
  28:	00000593          	li	a1,0
  2c:	00000613          	li	a2,0
  30:	00000693          	li	a3,0
  34:	00000713          	li	a4,0
  38:	00000793          	li	a5,0
  3c:	00000813          	li	a6,0
  40:	00000893          	li	a7,0
  44:	00000913          	li	s2,0
  48:	00000993          	li	s3,0
  4c:	00000a13          	li	s4,0
  50:	00000a93          	li	s5,0
  54:	00000b13          	li	s6,0
  58:	00000b93          	li	s7,0
  5c:	00000c13          	li	s8,0
  60:	00000c93          	li	s9,0
  64:	00000d13          	li	s10,0
  68:	00000d93          	li	s11,0
  6c:	00000e13          	li	t3,0
  70:	00000e93          	li	t4,0
  74:	00000f13          	li	t5,0
  78:	00000f93          	li	t6,0
  7c:	00000293          	li	t0,0
  80:	30529073          	csrw	mtvec,t0

00000084 <test_2>:
  84:	00200193          	li	gp,2
  88:	ff0100b7          	lui	ra,0xff010
  8c:	f0008093          	addi	ra,ra,-256 # ff00ff00 <begin_signature+0xff00f930>
  90:	0f0f1137          	lui	sp,0xf0f1
  94:	f0f10113          	addi	sp,sp,-241 # f0f0f0f <begin_signature+0xf0f093f>
  98:	0020c733          	xor	a4,ra,sp
  9c:	f00ff3b7          	lui	t2,0xf00ff
  a0:	00f38393          	addi	t2,t2,15 # f00ff00f <begin_signature+0xf00fea3f>
  a4:	4a771063          	bne	a4,t2,544 <fail>

000000a8 <test_3>:
  a8:	00300193          	li	gp,3
  ac:	0ff010b7          	lui	ra,0xff01
  b0:	ff008093          	addi	ra,ra,-16 # ff00ff0 <begin_signature+0xff00a20>
  b4:	f0f0f137          	lui	sp,0xf0f0f
  b8:	0f010113          	addi	sp,sp,240 # f0f0f0f0 <begin_signature+0xf0f0eb20>
  bc:	0020c733          	xor	a4,ra,sp
  c0:	ff0103b7          	lui	t2,0xff010
  c4:	f0038393          	addi	t2,t2,-256 # ff00ff00 <begin_signature+0xff00f930>
  c8:	46771e63          	bne	a4,t2,544 <fail>

000000cc <test_4>:
  cc:	00400193          	li	gp,4
  d0:	00ff00b7          	lui	ra,0xff0
  d4:	0ff08093          	addi	ra,ra,255 # ff00ff <begin_signature+0xfefb2f>
  d8:	0f0f1137          	lui	sp,0xf0f1
  dc:	f0f10113          	addi	sp,sp,-241 # f0f0f0f <begin_signature+0xf0f093f>
  e0:	0020c733          	xor	a4,ra,sp
  e4:	0ff013b7          	lui	t2,0xff01
  e8:	ff038393          	addi	t2,t2,-16 # ff00ff0 <begin_signature+0xff00a20>
  ec:	44771c63          	bne	a4,t2,544 <fail>

000000f0 <test_5>:
  f0:	00500193          	li	gp,5
  f4:	f00ff0b7          	lui	ra,0xf00ff
  f8:	00f08093          	addi	ra,ra,15 # f00ff00f <begin_signature+0xf00fea3f>
  fc:	f0f0f137          	lui	sp,0xf0f0f
 100:	0f010113          	addi	sp,sp,240 # f0f0f0f0 <begin_signature+0xf0f0eb20>
 104:	0020c733          	xor	a4,ra,sp
 108:	00ff03b7          	lui	t2,0xff0
 10c:	0ff38393          	addi	t2,t2,255 # ff00ff <begin_signature+0xfefb2f>
 110:	42771a63          	bne	a4,t2,544 <fail>

00000114 <test_6>:
 114:	00600193          	li	gp,6
 118:	ff0100b7          	lui	ra,0xff010
 11c:	f0008093          	addi	ra,ra,-256 # ff00ff00 <begin_signature+0xff00f930>
 120:	0f0f1137          	lui	sp,0xf0f1
 124:	f0f10113          	addi	sp,sp,-241 # f0f0f0f <begin_signature+0xf0f093f>
 128:	0020c0b3          	xor	ra,ra,sp
 12c:	f00ff3b7          	lui	t2,0xf00ff
 130:	00f38393          	addi	t2,t2,15 # f00ff00f <begin_signature+0xf00fea3f>
 134:	40709863          	bne	ra,t2,544 <fail>

00000138 <test_7>:
 138:	00700193          	li	gp,7
 13c:	ff0100b7          	lui	ra,0xff010
 140:	f0008093          	addi	ra,ra,-256 # ff00ff00 <begin_signature+0xff00f930>
 144:	0f0f1137          	lui	sp,0xf0f1
 148:	f0f10113          	addi	sp,sp,-241 # f0f0f0f <begin_signature+0xf0f093f>
 14c:	0020c133          	xor	sp,ra,sp
 150:	f00ff3b7          	lui	t2,0xf00ff
 154:	00f38393          	addi	t2,t2,15 # f00ff00f <begin_signature+0xf00fea3f>
 158:	3e711663          	bne	sp,t2,544 <fail>

0000015c <test_8>:
 15c:	00800193          	li	gp,8
 160:	ff0100b7          	lui	ra,0xff010
 164:	f0008093          	addi	ra,ra,-256 # ff00ff00 <begin_signature+0xff00f930>
 168:	0010c0b3          	xor	ra,ra,ra
 16c:	00000393          	li	t2,0
 170:	3c709a63          	bne	ra,t2,544 <fail>

00000174 <test_9>:
 174:	00900193          	li	gp,9
 178:	00000213          	li	tp,0
 17c:	ff0100b7          	lui	ra,0xff010
 180:	f0008093          	addi	ra,ra,-256 # ff00ff00 <begin_signature+0xff00f930>
 184:	0f0f1137          	lui	sp,0xf0f1
 188:	f0f10113          	addi	sp,sp,-241 # f0f0f0f <begin_signature+0xf0f093f>
 18c:	0020c733          	xor	a4,ra,sp
 190:	00070313          	mv	t1,a4
 194:	00120213          	addi	tp,tp,1 # 1 <_start+0x1>
 198:	00200293          	li	t0,2
 19c:	fe5210e3          	bne	tp,t0,17c <test_9+0x8>
 1a0:	f00ff3b7          	lui	t2,0xf00ff
 1a4:	00f38393          	addi	t2,t2,15 # f00ff00f <begin_signature+0xf00fea3f>
 1a8:	38731e63          	bne	t1,t2,544 <fail>

000001ac <test_10>:
 1ac:	00a00193          	li	gp,10
 1b0:	00000213          	li	tp,0
 1b4:	0ff010b7          	lui	ra,0xff01
 1b8:	ff008093          	addi	ra,ra,-16 # ff00ff0 <begin_signature+0xff00a20>
 1bc:	f0f0f137          	lui	sp,0xf0f0f
 1c0:	0f010113          	addi	sp,sp,240 # f0f0f0f0 <begin_signature+0xf0f0eb20>
 1c4:	0020c733          	xor	a4,ra,sp
 1c8:	00000013          	nop
 1cc:	00070313          	mv	t1,a4
 1d0:	00120213          	addi	tp,tp,1 # 1 <_start+0x1>
 1d4:	00200293          	li	t0,2
 1d8:	fc521ee3          	bne	tp,t0,1b4 <test_10+0x8>
 1dc:	ff0103b7          	lui	t2,0xff010
 1e0:	f0038393          	addi	t2,t2,-256 # ff00ff00 <begin_signature+0xff00f930>
 1e4:	36731063          	bne	t1,t2,544 <fail>

000001e8 <test_11>:
 1e8:	00b00193          	li	gp,11
 1ec:	00000213          	li	tp,0
 1f0:	00ff00b7          	lui	ra,0xff0
 1f4:	0ff08093          	addi	ra,ra,255 # ff00ff <begin_signature+0xfefb2f>
 1f8:	0f0f1137          	lui	sp,0xf0f1
 1fc:	f0f10113          	addi	sp,sp,-241 # f0f0f0f <begin_signature+0xf0f093f>
 200:	0020c733          	xor	a4,ra,sp
 204:	00000013          	nop
 208:	00000013          	nop
 20c:	00070313          	mv	t1,a4
 210:	00120213          	addi	tp,tp,1 # 1 <_start+0x1>
 214:	00200293          	li	t0,2
 218:	fc521ce3          	bne	tp,t0,1f0 <test_11+0x8>
 21c:	0ff013b7          	lui	t2,0xff01
 220:	ff038393          	addi	t2,t2,-16 # ff00ff0 <begin_signature+0xff00a20>
 224:	32731063          	bne	t1,t2,544 <fail>

00000228 <test_12>:
 228:	00c00193          	li	gp,12
 22c:	00000213          	li	tp,0
 230:	ff0100b7          	lui	ra,0xff010
 234:	f0008093          	addi	ra,ra,-256 # ff00ff00 <begin_signature+0xff00f930>
 238:	0f0f1137          	lui	sp,0xf0f1
 23c:	f0f10113          	addi	sp,sp,-241 # f0f0f0f <begin_signature+0xf0f093f>
 240:	0020c733          	xor	a4,ra,sp
 244:	00120213          	addi	tp,tp,1 # 1 <_start+0x1>
 248:	00200293          	li	t0,2
 24c:	fe5212e3          	bne	tp,t0,230 <test_12+0x8>
 250:	f00ff3b7          	lui	t2,0xf00ff
 254:	00f38393          	addi	t2,t2,15 # f00ff00f <begin_signature+0xf00fea3f>
 258:	2e771663          	bne	a4,t2,544 <fail>

0000025c <test_13>:
 25c:	00d00193          	li	gp,13
 260:	00000213          	li	tp,0
 264:	0ff010b7          	lui	ra,0xff01
 268:	ff008093          	addi	ra,ra,-16 # ff00ff0 <begin_signature+0xff00a20>
 26c:	f0f0f137          	lui	sp,0xf0f0f
 270:	0f010113          	addi	sp,sp,240 # f0f0f0f0 <begin_signature+0xf0f0eb20>
 274:	00000013          	nop
 278:	0020c733          	xor	a4,ra,sp
 27c:	00120213          	addi	tp,tp,1 # 1 <_start+0x1>
 280:	00200293          	li	t0,2
 284:	fe5210e3          	bne	tp,t0,264 <test_13+0x8>
 288:	ff0103b7          	lui	t2,0xff010
 28c:	f0038393          	addi	t2,t2,-256 # ff00ff00 <begin_signature+0xff00f930>
 290:	2a771a63          	bne	a4,t2,544 <fail>

00000294 <test_14>:
 294:	00e00193          	li	gp,14
 298:	00000213          	li	tp,0
 29c:	00ff00b7          	lui	ra,0xff0
 2a0:	0ff08093          	addi	ra,ra,255 # ff00ff <begin_signature+0xfefb2f>
 2a4:	0f0f1137          	lui	sp,0xf0f1
 2a8:	f0f10113          	addi	sp,sp,-241 # f0f0f0f <begin_signature+0xf0f093f>
 2ac:	00000013          	nop
 2b0:	00000013          	nop
 2b4:	0020c733          	xor	a4,ra,sp
 2b8:	00120213          	addi	tp,tp,1 # 1 <_start+0x1>
 2bc:	00200293          	li	t0,2
 2c0:	fc521ee3          	bne	tp,t0,29c <test_14+0x8>
 2c4:	0ff013b7          	lui	t2,0xff01
 2c8:	ff038393          	addi	t2,t2,-16 # ff00ff0 <begin_signature+0xff00a20>
 2cc:	26771c63          	bne	a4,t2,544 <fail>

000002d0 <test_15>:
 2d0:	00f00193          	li	gp,15
 2d4:	00000213          	li	tp,0
 2d8:	ff0100b7          	lui	ra,0xff010
 2dc:	f0008093          	addi	ra,ra,-256 # ff00ff00 <begin_signature+0xff00f930>
 2e0:	00000013          	nop
 2e4:	0f0f1137          	lui	sp,0xf0f1
 2e8:	f0f10113          	addi	sp,sp,-241 # f0f0f0f <begin_signature+0xf0f093f>
 2ec:	0020c733          	xor	a4,ra,sp
 2f0:	00120213          	addi	tp,tp,1 # 1 <_start+0x1>
 2f4:	00200293          	li	t0,2
 2f8:	fe5210e3          	bne	tp,t0,2d8 <test_15+0x8>
 2fc:	f00ff3b7          	lui	t2,0xf00ff
 300:	00f38393          	addi	t2,t2,15 # f00ff00f <begin_signature+0xf00fea3f>
 304:	24771063          	bne	a4,t2,544 <fail>

00000308 <test_16>:
 308:	01000193          	li	gp,16
 30c:	00000213          	li	tp,0
 310:	0ff010b7          	lui	ra,0xff01
 314:	ff008093          	addi	ra,ra,-16 # ff00ff0 <begin_signature+0xff00a20>
 318:	00000013          	nop
 31c:	f0f0f137          	lui	sp,0xf0f0f
 320:	0f010113          	addi	sp,sp,240 # f0f0f0f0 <begin_signature+0xf0f0eb20>
 324:	00000013          	nop
 328:	0020c733          	xor	a4,ra,sp
 32c:	00120213          	addi	tp,tp,1 # 1 <_start+0x1>
 330:	00200293          	li	t0,2
 334:	fc521ee3          	bne	tp,t0,310 <test_16+0x8>
 338:	ff0103b7          	lui	t2,0xff010
 33c:	f0038393          	addi	t2,t2,-256 # ff00ff00 <begin_signature+0xff00f930>
 340:	20771263          	bne	a4,t2,544 <fail>

00000344 <test_17>:
 344:	01100193          	li	gp,17
 348:	00000213          	li	tp,0
 34c:	00ff00b7          	lui	ra,0xff0
 350:	0ff08093          	addi	ra,ra,255 # ff00ff <begin_signature+0xfefb2f>
 354:	00000013          	nop
 358:	00000013          	nop
 35c:	0f0f1137          	lui	sp,0xf0f1
 360:	f0f10113          	addi	sp,sp,-241 # f0f0f0f <begin_signature+0xf0f093f>
 364:	0020c733          	xor	a4,ra,sp
 368:	00120213          	addi	tp,tp,1 # 1 <_start+0x1>
 36c:	00200293          	li	t0,2
 370:	fc521ee3          	bne	tp,t0,34c <test_17+0x8>
 374:	0ff013b7          	lui	t2,0xff01
 378:	ff038393          	addi	t2,t2,-16 # ff00ff0 <begin_signature+0xff00a20>
 37c:	1c771463          	bne	a4,t2,544 <fail>

00000380 <test_18>:
 380:	01200193          	li	gp,18
 384:	00000213          	li	tp,0
 388:	0f0f1137          	lui	sp,0xf0f1
 38c:	f0f10113          	addi	sp,sp,-241 # f0f0f0f <begin_signature+0xf0f093f>
 390:	ff0100b7          	lui	ra,0xff010
 394:	f0008093          	addi	ra,ra,-256 # ff00ff00 <begin_signature+0xff00f930>
 398:	0020c733          	xor	a4,ra,sp
 39c:	00120213          	addi	tp,tp,1 # 1 <_start+0x1>
 3a0:	00200293          	li	t0,2
 3a4:	fe5212e3          	bne	tp,t0,388 <test_18+0x8>
 3a8:	f00ff3b7          	lui	t2,0xf00ff
 3ac:	00f38393          	addi	t2,t2,15 # f00ff00f <begin_signature+0xf00fea3f>
 3b0:	18771a63          	bne	a4,t2,544 <fail>

000003b4 <test_19>:
 3b4:	01300193          	li	gp,19
 3b8:	00000213          	li	tp,0
 3bc:	f0f0f137          	lui	sp,0xf0f0f
 3c0:	0f010113          	addi	sp,sp,240 # f0f0f0f0 <begin_signature+0xf0f0eb20>
 3c4:	0ff010b7          	lui	ra,0xff01
 3c8:	ff008093          	addi	ra,ra,-16 # ff00ff0 <begin_signature+0xff00a20>
 3cc:	00000013          	nop
 3d0:	0020c733          	xor	a4,ra,sp
 3d4:	00120213          	addi	tp,tp,1 # 1 <_start+0x1>
 3d8:	00200293          	li	t0,2
 3dc:	fe5210e3          	bne	tp,t0,3bc <test_19+0x8>
 3e0:	ff0103b7          	lui	t2,0xff010
 3e4:	f0038393          	addi	t2,t2,-256 # ff00ff00 <begin_signature+0xff00f930>
 3e8:	14771e63          	bne	a4,t2,544 <fail>

000003ec <test_20>:
 3ec:	01400193          	li	gp,20
 3f0:	00000213          	li	tp,0
 3f4:	0f0f1137          	lui	sp,0xf0f1
 3f8:	f0f10113          	addi	sp,sp,-241 # f0f0f0f <begin_signature+0xf0f093f>
 3fc:	00ff00b7          	lui	ra,0xff0
 400:	0ff08093          	addi	ra,ra,255 # ff00ff <begin_signature+0xfefb2f>
 404:	00000013          	nop
 408:	00000013          	nop
 40c:	0020c733          	xor	a4,ra,sp
 410:	00120213          	addi	tp,tp,1 # 1 <_start+0x1>
 414:	00200293          	li	t0,2
 418:	fc521ee3          	bne	tp,t0,3f4 <test_20+0x8>
 41c:	0ff013b7          	lui	t2,0xff01
 420:	ff038393          	addi	t2,t2,-16 # ff00ff0 <begin_signature+0xff00a20>
 424:	12771063          	bne	a4,t2,544 <fail>

00000428 <test_21>:
 428:	01500193          	li	gp,21
 42c:	00000213          	li	tp,0
 430:	0f0f1137          	lui	sp,0xf0f1
 434:	f0f10113          	addi	sp,sp,-241 # f0f0f0f <begin_signature+0xf0f093f>
 438:	00000013          	nop
 43c:	ff0100b7          	lui	ra,0xff010
 440:	f0008093          	addi	ra,ra,-256 # ff00ff00 <begin_signature+0xff00f930>
 444:	0020c733          	xor	a4,ra,sp
 448:	00120213          	addi	tp,tp,1 # 1 <_start+0x1>
 44c:	00200293          	li	t0,2
 450:	fe5210e3          	bne	tp,t0,430 <test_21+0x8>
 454:	f00ff3b7          	lui	t2,0xf00ff
 458:	00f38393          	addi	t2,t2,15 # f00ff00f <begin_signature+0xf00fea3f>
 45c:	0e771463          	bne	a4,t2,544 <fail>

00000460 <test_22>:
 460:	01600193          	li	gp,22
 464:	00000213          	li	tp,0
 468:	f0f0f137          	lui	sp,0xf0f0f
 46c:	0f010113          	addi	sp,sp,240 # f0f0f0f0 <begin_signature+0xf0f0eb20>
 470:	00000013          	nop
 474:	0ff010b7          	lui	ra,0xff01
 478:	ff008093          	addi	ra,ra,-16 # ff00ff0 <begin_signature+0xff00a20>
 47c:	00000013          	nop
 480:	0020c733          	xor	a4,ra,sp
 484:	00120213          	addi	tp,tp,1 # 1 <_start+0x1>
 488:	00200293          	li	t0,2
 48c:	fc521ee3          	bne	tp,t0,468 <test_22+0x8>
 490:	ff0103b7          	lui	t2,0xff010
 494:	f0038393          	addi	t2,t2,-256 # ff00ff00 <begin_signature+0xff00f930>
 498:	0a771663          	bne	a4,t2,544 <fail>

0000049c <test_23>:
 49c:	01700193          	li	gp,23
 4a0:	00000213          	li	tp,0
 4a4:	0f0f1137          	lui	sp,0xf0f1
 4a8:	f0f10113          	addi	sp,sp,-241 # f0f0f0f <begin_signature+0xf0f093f>
 4ac:	00000013          	nop
 4b0:	00000013          	nop
 4b4:	00ff00b7          	lui	ra,0xff0
 4b8:	0ff08093          	addi	ra,ra,255 # ff00ff <begin_signature+0xfefb2f>
 4bc:	0020c733          	xor	a4,ra,sp
 4c0:	00120213          	addi	tp,tp,1 # 1 <_start+0x1>
 4c4:	00200293          	li	t0,2
 4c8:	fc521ee3          	bne	tp,t0,4a4 <test_23+0x8>
 4cc:	0ff013b7          	lui	t2,0xff01
 4d0:	ff038393          	addi	t2,t2,-16 # ff00ff0 <begin_signature+0xff00a20>
 4d4:	06771863          	bne	a4,t2,544 <fail>

000004d8 <test_24>:
 4d8:	01800193          	li	gp,24
 4dc:	ff0100b7          	lui	ra,0xff010
 4e0:	f0008093          	addi	ra,ra,-256 # ff00ff00 <begin_signature+0xff00f930>
 4e4:	00104133          	xor	sp,zero,ra
 4e8:	ff0103b7          	lui	t2,0xff010
 4ec:	f0038393          	addi	t2,t2,-256 # ff00ff00 <begin_signature+0xff00f930>
 4f0:	04711a63          	bne	sp,t2,544 <fail>

000004f4 <test_25>:
 4f4:	01900193          	li	gp,25
 4f8:	00ff00b7          	lui	ra,0xff0
 4fc:	0ff08093          	addi	ra,ra,255 # ff00ff <begin_signature+0xfefb2f>
 500:	0000c133          	xor	sp,ra,zero
 504:	00ff03b7          	lui	t2,0xff0
 508:	0ff38393          	addi	t2,t2,255 # ff00ff <begin_signature+0xfefb2f>
 50c:	02711c63          	bne	sp,t2,544 <fail>

00000510 <test_26>:
 510:	01a00193          	li	gp,26
 514:	000040b3          	xor	ra,zero,zero
 518:	00000393          	li	t2,0
 51c:	02709463          	bne	ra,t2,544 <fail>

00000520 <test_27>:
 520:	01b00193          	li	gp,27
 524:	111110b7          	lui	ra,0x11111
 528:	11108093          	addi	ra,ra,273 # 11111111 <begin_signature+0x11110b41>
 52c:	22222137          	lui	sp,0x22222
 530:	22210113          	addi	sp,sp,546 # 22222222 <begin_signature+0x22221c52>
 534:	0020c033          	xor	zero,ra,sp
 538:	00000393          	li	t2,0
 53c:	00701463          	bne	zero,t2,544 <fail>
 540:	00301863          	bne	zero,gp,550 <pass>

00000544 <fail>:
 544:	00100e13          	li	t3,1
 548:	00200e93          	li	t4,2
 54c:	0000006f          	j	54c <fail+0x8>

00000550 <pass>:
 550:	00100e13          	li	t3,1
 554:	00100e93          	li	t4,1
 558:	0000006f          	j	558 <pass+0x8>
 55c:	c0001073          	unimp
 560:	0000                	unimp
 562:	0000                	unimp
 564:	0000                	unimp
 566:	0000                	unimp
 568:	0000                	unimp
 56a:	0000                	unimp
 56c:	0000                	unimp
 56e:	0000                	unimp
 570:	0000                	unimp
 572:	0000                	unimp
 574:	0000                	unimp
 576:	0000                	unimp
 578:	0000                	unimp
 57a:	0000                	unimp
 57c:	0000                	unimp
 57e:	0000                	unimp
