
generated/rv32ui-p-addi:     file format elf32-littleriscv


Disassembly of section .text.init:

00000000 <_start>:
   0:	00000093          	li	ra,0
   4:	00000113          	li	sp,0
   8:	00000193          	li	gp,0
   c:	00000213          	li	tp,0
  10:	00000293          	li	t0,0
  14:	00000313          	li	t1,0
  18:	00000393          	li	t2,0
  1c:	00000413          	li	s0,0
  20:	00000493          	li	s1,0
  24:	00000513          	li	a0,0
  28:	00000593          	li	a1,0
  2c:	00000613          	li	a2,0
  30:	00000693          	li	a3,0
  34:	00000713          	li	a4,0
  38:	00000793          	li	a5,0
  3c:	00000813          	li	a6,0
  40:	00000893          	li	a7,0
  44:	00000913          	li	s2,0
  48:	00000993          	li	s3,0
  4c:	00000a13          	li	s4,0
  50:	00000a93          	li	s5,0
  54:	00000b13          	li	s6,0
  58:	00000b93          	li	s7,0
  5c:	00000c13          	li	s8,0
  60:	00000c93          	li	s9,0
  64:	00000d13          	li	s10,0
  68:	00000d93          	li	s11,0
  6c:	00000e13          	li	t3,0
  70:	00000e93          	li	t4,0
  74:	00000f13          	li	t5,0
  78:	00000f93          	li	t6,0
  7c:	00000293          	li	t0,0
  80:	30529073          	csrw	mtvec,t0

00000084 <test_2>:
  84:	00200193          	li	gp,2
  88:	00000093          	li	ra,0
  8c:	00008713          	mv	a4,ra
  90:	00000393          	li	t2,0
  94:	26771c63          	bne	a4,t2,30c <fail>

00000098 <test_3>:
  98:	00300193          	li	gp,3
  9c:	00100093          	li	ra,1
  a0:	00108713          	addi	a4,ra,1
  a4:	00200393          	li	t2,2
  a8:	26771263          	bne	a4,t2,30c <fail>

000000ac <test_4>:
  ac:	00400193          	li	gp,4
  b0:	00300093          	li	ra,3
  b4:	00708713          	addi	a4,ra,7
  b8:	00a00393          	li	t2,10
  bc:	24771863          	bne	a4,t2,30c <fail>

000000c0 <test_5>:
  c0:	00500193          	li	gp,5
  c4:	00000093          	li	ra,0
  c8:	80008713          	addi	a4,ra,-2048
  cc:	80000393          	li	t2,-2048
  d0:	22771e63          	bne	a4,t2,30c <fail>

000000d4 <test_6>:
  d4:	00600193          	li	gp,6
  d8:	800000b7          	lui	ra,0x80000
  dc:	00008713          	mv	a4,ra
  e0:	800003b7          	lui	t2,0x80000
  e4:	22771463          	bne	a4,t2,30c <fail>

000000e8 <test_7>:
  e8:	00700193          	li	gp,7
  ec:	800000b7          	lui	ra,0x80000
  f0:	80008713          	addi	a4,ra,-2048 # 7ffff800 <begin_signature+0x7ffff470>
  f4:	800003b7          	lui	t2,0x80000
  f8:	80038393          	addi	t2,t2,-2048 # 7ffff800 <begin_signature+0x7ffff470>
  fc:	20771863          	bne	a4,t2,30c <fail>

00000100 <test_8>:
 100:	00800193          	li	gp,8
 104:	00000093          	li	ra,0
 108:	7ff08713          	addi	a4,ra,2047
 10c:	7ff00393          	li	t2,2047
 110:	1e771e63          	bne	a4,t2,30c <fail>

00000114 <test_9>:
 114:	00900193          	li	gp,9
 118:	800000b7          	lui	ra,0x80000
 11c:	fff08093          	addi	ra,ra,-1 # 7fffffff <begin_signature+0x7ffffc6f>
 120:	00008713          	mv	a4,ra
 124:	800003b7          	lui	t2,0x80000
 128:	fff38393          	addi	t2,t2,-1 # 7fffffff <begin_signature+0x7ffffc6f>
 12c:	1e771063          	bne	a4,t2,30c <fail>

00000130 <test_10>:
 130:	00a00193          	li	gp,10
 134:	800000b7          	lui	ra,0x80000
 138:	fff08093          	addi	ra,ra,-1 # 7fffffff <begin_signature+0x7ffffc6f>
 13c:	7ff08713          	addi	a4,ra,2047
 140:	800003b7          	lui	t2,0x80000
 144:	7fe38393          	addi	t2,t2,2046 # 800007fe <begin_signature+0x8000046e>
 148:	1c771263          	bne	a4,t2,30c <fail>

0000014c <test_11>:
 14c:	00b00193          	li	gp,11
 150:	800000b7          	lui	ra,0x80000
 154:	7ff08713          	addi	a4,ra,2047 # 800007ff <begin_signature+0x8000046f>
 158:	800003b7          	lui	t2,0x80000
 15c:	7ff38393          	addi	t2,t2,2047 # 800007ff <begin_signature+0x8000046f>
 160:	1a771663          	bne	a4,t2,30c <fail>

00000164 <test_12>:
 164:	00c00193          	li	gp,12
 168:	800000b7          	lui	ra,0x80000
 16c:	fff08093          	addi	ra,ra,-1 # 7fffffff <begin_signature+0x7ffffc6f>
 170:	80008713          	addi	a4,ra,-2048
 174:	7ffff3b7          	lui	t2,0x7ffff
 178:	7ff38393          	addi	t2,t2,2047 # 7ffff7ff <begin_signature+0x7ffff46f>
 17c:	18771863          	bne	a4,t2,30c <fail>

00000180 <test_13>:
 180:	00d00193          	li	gp,13
 184:	00000093          	li	ra,0
 188:	fff08713          	addi	a4,ra,-1
 18c:	fff00393          	li	t2,-1
 190:	16771e63          	bne	a4,t2,30c <fail>

00000194 <test_14>:
 194:	00e00193          	li	gp,14
 198:	fff00093          	li	ra,-1
 19c:	00108713          	addi	a4,ra,1
 1a0:	00000393          	li	t2,0
 1a4:	16771463          	bne	a4,t2,30c <fail>

000001a8 <test_15>:
 1a8:	00f00193          	li	gp,15
 1ac:	fff00093          	li	ra,-1
 1b0:	fff08713          	addi	a4,ra,-1
 1b4:	ffe00393          	li	t2,-2
 1b8:	14771a63          	bne	a4,t2,30c <fail>

000001bc <test_16>:
 1bc:	01000193          	li	gp,16
 1c0:	800000b7          	lui	ra,0x80000
 1c4:	fff08093          	addi	ra,ra,-1 # 7fffffff <begin_signature+0x7ffffc6f>
 1c8:	00108713          	addi	a4,ra,1
 1cc:	800003b7          	lui	t2,0x80000
 1d0:	12771e63          	bne	a4,t2,30c <fail>

000001d4 <test_17>:
 1d4:	01100193          	li	gp,17
 1d8:	00d00093          	li	ra,13
 1dc:	00b08093          	addi	ra,ra,11
 1e0:	01800393          	li	t2,24
 1e4:	12709463          	bne	ra,t2,30c <fail>

000001e8 <test_18>:
 1e8:	01200193          	li	gp,18
 1ec:	00000213          	li	tp,0
 1f0:	00d00093          	li	ra,13
 1f4:	00b08713          	addi	a4,ra,11
 1f8:	00070313          	mv	t1,a4
 1fc:	00120213          	addi	tp,tp,1 # 1 <_start+0x1>
 200:	00200293          	li	t0,2
 204:	fe5216e3          	bne	tp,t0,1f0 <test_18+0x8>
 208:	01800393          	li	t2,24
 20c:	10731063          	bne	t1,t2,30c <fail>

00000210 <test_19>:
 210:	01300193          	li	gp,19
 214:	00000213          	li	tp,0
 218:	00d00093          	li	ra,13
 21c:	00a08713          	addi	a4,ra,10
 220:	00000013          	nop
 224:	00070313          	mv	t1,a4
 228:	00120213          	addi	tp,tp,1 # 1 <_start+0x1>
 22c:	00200293          	li	t0,2
 230:	fe5214e3          	bne	tp,t0,218 <test_19+0x8>
 234:	01700393          	li	t2,23
 238:	0c731a63          	bne	t1,t2,30c <fail>

0000023c <test_20>:
 23c:	01400193          	li	gp,20
 240:	00000213          	li	tp,0
 244:	00d00093          	li	ra,13
 248:	00908713          	addi	a4,ra,9
 24c:	00000013          	nop
 250:	00000013          	nop
 254:	00070313          	mv	t1,a4
 258:	00120213          	addi	tp,tp,1 # 1 <_start+0x1>
 25c:	00200293          	li	t0,2
 260:	fe5212e3          	bne	tp,t0,244 <test_20+0x8>
 264:	01600393          	li	t2,22
 268:	0a731263          	bne	t1,t2,30c <fail>

0000026c <test_21>:
 26c:	01500193          	li	gp,21
 270:	00000213          	li	tp,0
 274:	00d00093          	li	ra,13
 278:	00b08713          	addi	a4,ra,11
 27c:	00120213          	addi	tp,tp,1 # 1 <_start+0x1>
 280:	00200293          	li	t0,2
 284:	fe5218e3          	bne	tp,t0,274 <test_21+0x8>
 288:	01800393          	li	t2,24
 28c:	08771063          	bne	a4,t2,30c <fail>

00000290 <test_22>:
 290:	01600193          	li	gp,22
 294:	00000213          	li	tp,0
 298:	00d00093          	li	ra,13
 29c:	00000013          	nop
 2a0:	00a08713          	addi	a4,ra,10
 2a4:	00120213          	addi	tp,tp,1 # 1 <_start+0x1>
 2a8:	00200293          	li	t0,2
 2ac:	fe5216e3          	bne	tp,t0,298 <test_22+0x8>
 2b0:	01700393          	li	t2,23
 2b4:	04771c63          	bne	a4,t2,30c <fail>

000002b8 <test_23>:
 2b8:	01700193          	li	gp,23
 2bc:	00000213          	li	tp,0
 2c0:	00d00093          	li	ra,13
 2c4:	00000013          	nop
 2c8:	00000013          	nop
 2cc:	00908713          	addi	a4,ra,9
 2d0:	00120213          	addi	tp,tp,1 # 1 <_start+0x1>
 2d4:	00200293          	li	t0,2
 2d8:	fe5214e3          	bne	tp,t0,2c0 <test_23+0x8>
 2dc:	01600393          	li	t2,22
 2e0:	02771663          	bne	a4,t2,30c <fail>

000002e4 <test_24>:
 2e4:	01800193          	li	gp,24
 2e8:	02000093          	li	ra,32
 2ec:	02000393          	li	t2,32
 2f0:	00709e63          	bne	ra,t2,30c <fail>

000002f4 <test_25>:
 2f4:	01900193          	li	gp,25
 2f8:	02100093          	li	ra,33
 2fc:	03208013          	addi	zero,ra,50
 300:	00000393          	li	t2,0
 304:	00701463          	bne	zero,t2,30c <fail>
 308:	00301863          	bne	zero,gp,318 <pass>

0000030c <fail>:
 30c:	00100e13          	li	t3,1
 310:	00200e93          	li	t4,2
 314:	0000006f          	j	314 <fail+0x8>

00000318 <pass>:
 318:	00100e13          	li	t3,1
 31c:	00100e93          	li	t4,1
 320:	0000006f          	j	320 <pass+0x8>
 324:	c0001073          	unimp
 328:	0000                	unimp
 32a:	0000                	unimp
 32c:	0000                	unimp
 32e:	0000                	unimp
 330:	0000                	unimp
 332:	0000                	unimp
 334:	0000                	unimp
 336:	0000                	unimp
 338:	0000                	unimp
 33a:	0000                	unimp
 33c:	0000                	unimp
 33e:	0000                	unimp
