
generated/add-01.elf:     file format elf32-littleriscv


Disassembly of section .text.init:

00000000 <rvtest_entry_point>:
       0:	feedc0b7          	lui	ra,0xfeedc
       4:	ead08093          	addi	ra,ra,-339 # feedbead <_end+0xfeed830d>
       8:	ff76e137          	lui	sp,0xff76e
       c:	f5610113          	addi	sp,sp,-170 # ff76df56 <_end+0xff76a3b6>
      10:	7fbb71b7          	lui	gp,0x7fbb7
      14:	fab18193          	addi	gp,gp,-85 # 7fbb6fab <_end+0x7fbb340b>
      18:	bfddb237          	lui	tp,0xbfddb
      1c:	7d520213          	addi	tp,tp,2005 # bfddb7d5 <_end+0xbfdd7c35>
      20:	00000297          	auipc	t0,0x0
      24:	0d828293          	addi	t0,t0,216 # f8 <rvtest_code_begin>
      28:	00003317          	auipc	t1,0x3
      2c:	23830313          	addi	t1,t1,568 # 3260 <rvtest_data_begin>
      30:	b7fbb3b7          	lui	t2,0xb7fbb
      34:	6fa38393          	addi	t2,t2,1786 # b7fbb6fa <_end+0xb7fb7b5a>
      38:	5bfde437          	lui	s0,0x5bfde
      3c:	b7d40413          	addi	s0,s0,-1155 # 5bfddb7d <_end+0x5bfd9fdd>
      40:	adfef4b7          	lui	s1,0xadfef
      44:	dbe48493          	addi	s1,s1,-578 # adfeedbe <_end+0xadfeb21e>
      48:	56ff7537          	lui	a0,0x56ff7
      4c:	6df50513          	addi	a0,a0,1759 # 56ff76df <_end+0x56ff3b3f>
      50:	ab7fc5b7          	lui	a1,0xab7fc
      54:	b6f58593          	addi	a1,a1,-1169 # ab7fbb6f <_end+0xab7f7fcf>
      58:	d5bfe637          	lui	a2,0xd5bfe
      5c:	db760613          	addi	a2,a2,-585 # d5bfddb7 <_end+0xd5bfa217>
      60:	eadff6b7          	lui	a3,0xeadff
      64:	edb68693          	addi	a3,a3,-293 # eadfeedb <_end+0xeadfb33b>
      68:	f56ff737          	lui	a4,0xf56ff
      6c:	76d70713          	addi	a4,a4,1901 # f56ff76d <_end+0xf56fbbcd>
      70:	fab807b7          	lui	a5,0xfab80
      74:	bb678793          	addi	a5,a5,-1098 # fab7fbb6 <_end+0xfab7c016>
      78:	7d5c0837          	lui	a6,0x7d5c0
      7c:	ddb80813          	addi	a6,a6,-549 # 7d5bfddb <_end+0x7d5bc23b>
      80:	beae08b7          	lui	a7,0xbeae0
      84:	eed88893          	addi	a7,a7,-275 # beadfeed <_end+0xbeadc34d>
      88:	df570937          	lui	s2,0xdf570
      8c:	f7690913          	addi	s2,s2,-138 # df56ff76 <_end+0xdf56c3d6>
      90:	6fab89b7          	lui	s3,0x6fab8
      94:	fbb98993          	addi	s3,s3,-69 # 6fab7fbb <_end+0x6fab441b>
      98:	b7d5ca37          	lui	s4,0xb7d5c
      9c:	fdda0a13          	addi	s4,s4,-35 # b7d5bfdd <_end+0xb7d5843d>
      a0:	dbeaeab7          	lui	s5,0xdbeae
      a4:	feea8a93          	addi	s5,s5,-18 # dbeadfee <_end+0xdbeaa44e>
      a8:	6df57b37          	lui	s6,0x6df57
      ac:	ff7b0b13          	addi	s6,s6,-9 # 6df56ff7 <_end+0x6df53457>
      b0:	b6fabbb7          	lui	s7,0xb6fab
      b4:	7fbb8b93          	addi	s7,s7,2043 # b6fab7fb <_end+0xb6fa7c5b>
      b8:	db7d6c37          	lui	s8,0xdb7d6
      bc:	bfdc0c13          	addi	s8,s8,-1027 # db7d5bfd <_end+0xdb7d205d>
      c0:	edbebcb7          	lui	s9,0xedbeb
      c4:	dfec8c93          	addi	s9,s9,-514 # edbeadfe <_end+0xedbe725e>
      c8:	76df5d37          	lui	s10,0x76df5
      cc:	6ffd0d13          	addi	s10,s10,1791 # 76df56ff <_end+0x76df1b5f>
      d0:	bb6fbdb7          	lui	s11,0xbb6fb
      d4:	b7fd8d93          	addi	s11,s11,-1153 # bb6fab7f <_end+0xbb6f6fdf>
      d8:	ddb7de37          	lui	t3,0xddb7d
      dc:	5bfe0e13          	addi	t3,t3,1471 # ddb7d5bf <_end+0xddb79a1f>
      e0:	eedbfeb7          	lui	t4,0xeedbf
      e4:	adfe8e93          	addi	t4,t4,-1313 # eedbeadf <_end+0xeedbaf3f>
      e8:	f76dff37          	lui	t5,0xf76df
      ec:	56ff0f13          	addi	t5,t5,1391 # f76df56f <_end+0xf76db9cf>
      f0:	fbb70fb7          	lui	t6,0xfbb70
      f4:	ab7f8f93          	addi	t6,t6,-1353 # fbb6fab7 <_end+0xfbb6bf17>

000000f8 <rvtest_code_begin>:
      f8:	00003197          	auipc	gp,0x3
      fc:	17818193          	addi	gp,gp,376 # 3270 <begin_signature>

00000100 <inst_0>:
     100:	80000237          	lui	tp,0x80000
     104:	fff20213          	addi	tp,tp,-1 # 7fffffff <_end+0x7fffc45f>
     108:	00100c13          	li	s8,1
     10c:	01820c33          	add	s8,tp,s8
     110:	0181a023          	sw	s8,0(gp)

00000114 <inst_1>:
     114:	00020537          	lui	a0,0x20
     118:	00020537          	lui	a0,0x20
     11c:	00a50e33          	add	t3,a0,a0
     120:	01c1a223          	sw	t3,4(gp)

00000124 <inst_2>:
     124:	ff000ab7          	lui	s5,0xff000
     128:	fffa8a93          	addi	s5,s5,-1 # feffffff <_end+0xfeffc45f>
     12c:	ff000ab7          	lui	s5,0xff000
     130:	fffa8a93          	addi	s5,s5,-1 # feffffff <_end+0xfeffc45f>
     134:	015a8ab3          	add	s5,s5,s5
     138:	0151a423          	sw	s5,8(gp)

0000013c <inst_3>:
     13c:	ffe00b13          	li	s6,-2
     140:	00040fb7          	lui	t6,0x40
     144:	01fb0b33          	add	s6,s6,t6
     148:	0161a623          	sw	s6,12(gp)

0000014c <inst_4>:
     14c:	55555637          	lui	a2,0x55555
     150:	55660613          	addi	a2,a2,1366 # 55555556 <_end+0x555519b6>
     154:	55555337          	lui	t1,0x55555
     158:	55630313          	addi	t1,t1,1366 # 55555556 <_end+0x555519b6>
     15c:	006605b3          	add	a1,a2,t1
     160:	00b1a823          	sw	a1,16(gp)

00000164 <inst_5>:
     164:	00200e93          	li	t4,2
     168:	800006b7          	lui	a3,0x80000
     16c:	00de8533          	add	a0,t4,a3
     170:	00a1aa23          	sw	a0,20(gp)

00000174 <inst_6>:
     174:	fef00f93          	li	t6,-17
     178:	00000293          	li	t0,0
     17c:	005f8d33          	add	s10,t6,t0
     180:	01a1ac23          	sw	s10,24(gp)

00000184 <inst_7>:
     184:	66666137          	lui	sp,0x66666
     188:	66610113          	addi	sp,sp,1638 # 66666666 <_end+0x66662ac6>
     18c:	800000b7          	lui	ra,0x80000
     190:	fff08093          	addi	ra,ra,-1 # 7fffffff <_end+0x7fffc45f>
     194:	001103b3          	add	t2,sp,ra
     198:	0071ae23          	sw	t2,28(gp)

0000019c <inst_8>:
     19c:	80000437          	lui	s0,0x80000
     1a0:	aaaabcb7          	lui	s9,0xaaaab
     1a4:	aaac8c93          	addi	s9,s9,-1366 # aaaaaaaa <_end+0xaaaa6f0a>
     1a8:	01940733          	add	a4,s0,s9
     1ac:	02e1a023          	sw	a4,32(gp)

000001b0 <inst_9>:
     1b0:	00000693          	li	a3,0
     1b4:	fe000437          	lui	s0,0xfe000
     1b8:	fff40413          	addi	s0,s0,-1 # fdffffff <_end+0xfdffc45f>
     1bc:	008680b3          	add	ra,a3,s0
     1c0:	0211a223          	sw	ra,36(gp)

000001c4 <inst_10>:
     1c4:	00100e13          	li	t3,1
     1c8:	008004b7          	lui	s1,0x800
     1cc:	009e0033          	add	zero,t3,s1
     1d0:	0201a423          	sw	zero,40(gp)

000001d4 <inst_11>:
     1d4:	00700713          	li	a4,7
     1d8:	00200213          	li	tp,2
     1dc:	00470a33          	add	s4,a4,tp
     1e0:	0341a623          	sw	s4,44(gp)

000001e4 <inst_12>:
     1e4:	00800393          	li	t2,8
     1e8:	00400993          	li	s3,4
     1ec:	01338833          	add	a6,t2,s3
     1f0:	0301a823          	sw	a6,48(gp)

000001f4 <inst_13>:
     1f4:	00001bb7          	lui	s7,0x1
     1f8:	800b8b93          	addi	s7,s7,-2048 # 800 <inst_93+0x4>
     1fc:	00800e93          	li	t4,8
     200:	01db8433          	add	s0,s7,t4
     204:	0281aa23          	sw	s0,52(gp)

00000208 <inst_14>:
     208:	00000293          	li	t0,0
     20c:	01000d93          	li	s11,16
     210:	01b286b3          	add	a3,t0,s11
     214:	02d1ac23          	sw	a3,56(gp)

00000218 <inst_15>:
     218:	55555cb7          	lui	s9,0x55555
     21c:	556c8c93          	addi	s9,s9,1366 # 55555556 <_end+0x555519b6>
     220:	02000a13          	li	s4,32
     224:	014c8db3          	add	s11,s9,s4
     228:	03b1ae23          	sw	s11,60(gp)

0000022c <inst_16>:
     22c:	fef00793          	li	a5,-17
     230:	04000d13          	li	s10,64
     234:	01a788b3          	add	a7,a5,s10
     238:	0511a023          	sw	a7,64(gp)
     23c:	00003417          	auipc	s0,0x3
     240:	07840413          	addi	s0,s0,120 # 32b4 <signature_x8_0>

00000244 <inst_17>:
     244:	ffb00893          	li	a7,-5
     248:	08000113          	li	sp,128
     24c:	00288eb3          	add	t4,a7,sp
     250:	01d42023          	sw	t4,0(s0)

00000254 <inst_18>:
     254:	02000c13          	li	s8,32
     258:	10000893          	li	a7,256
     25c:	011c0233          	add	tp,s8,a7
     260:	00442223          	sw	tp,4(s0)

00000264 <inst_19>:
     264:	40000837          	lui	a6,0x40000
     268:	20000593          	li	a1,512
     26c:	00b80133          	add	sp,a6,a1
     270:	00242423          	sw	sp,8(s0)

00000274 <inst_20>:
     274:	00000013          	nop
     278:	40000813          	li	a6,1024
     27c:	01000333          	add	t1,zero,a6
     280:	00642623          	sw	t1,12(s0)

00000284 <inst_21>:
     284:	aaaab5b7          	lui	a1,0xaaaab
     288:	aab58593          	addi	a1,a1,-1365 # aaaaaaab <_end+0xaaaa6f0b>
     28c:	000011b7          	lui	gp,0x1
     290:	80018193          	addi	gp,gp,-2048 # 800 <inst_93+0x4>
     294:	00358fb3          	add	t6,a1,gp
     298:	01f42823          	sw	t6,16(s0)

0000029c <inst_22>:
     29c:	00400913          	li	s2,4
     2a0:	00000013          	nop
     2a4:	00090633          	add	a2,s2,zero
     2a8:	00c42a23          	sw	a2,20(s0)

000002ac <inst_23>:
     2ac:	fe000f37          	lui	t5,0xfe000
     2b0:	ffff0f13          	addi	t5,t5,-1 # fdffffff <_end+0xfdffc45f>
     2b4:	000023b7          	lui	t2,0x2
     2b8:	007f04b3          	add	s1,t5,t2
     2bc:	00942c23          	sw	s1,24(s0)

000002c0 <inst_24>:
     2c0:	0000b1b7          	lui	gp,0xb
     2c4:	50318193          	addi	gp,gp,1283 # b503 <_end+0x7963>
     2c8:	00004f37          	lui	t5,0x4
     2cc:	01e182b3          	add	t0,gp,t5
     2d0:	00542e23          	sw	t0,28(s0)

000002d4 <inst_25>:
     2d4:	ffff5db7          	lui	s11,0xffff5
     2d8:	afdd8d93          	addi	s11,s11,-1283 # ffff4afd <_end+0xffff0f5d>
     2dc:	00008e37          	lui	t3,0x8
     2e0:	01cd8933          	add	s2,s11,t3
     2e4:	03242023          	sw	s2,32(s0)

000002e8 <inst_26>:
     2e8:	dff00493          	li	s1,-513
     2ec:	00010737          	lui	a4,0x10
     2f0:	00e487b3          	add	a5,s1,a4
     2f4:	02f42223          	sw	a5,36(s0)

000002f8 <inst_27>:
     2f8:	04000d13          	li	s10,64
     2fc:	000207b7          	lui	a5,0x20
     300:	00fd01b3          	add	gp,s10,a5
     304:	02342423          	sw	gp,40(s0)

00000308 <inst_28>:
     308:	00300093          	li	ra,3
     30c:	00080937          	lui	s2,0x80
     310:	01208bb3          	add	s7,ra,s2
     314:	03742623          	sw	s7,44(s0)

00000318 <inst_29>:
     318:	ffff0337          	lui	t1,0xffff0
     31c:	fff30313          	addi	t1,t1,-1 # fffeffff <_end+0xfffec45f>
     320:	00100637          	lui	a2,0x100
     324:	00c30f33          	add	t5,t1,a2
     328:	03e42823          	sw	t5,48(s0)

0000032c <inst_30>:
     32c:	ffc00a37          	lui	s4,0xffc00
     330:	fffa0a13          	addi	s4,s4,-1 # ffbfffff <_end+0xffbfc45f>
     334:	00200b37          	lui	s6,0x200
     338:	016a09b3          	add	s3,s4,s6
     33c:	03342a23          	sw	s3,52(s0)

00000340 <inst_31>:
     340:	004009b7          	lui	s3,0x400
     344:	00400bb7          	lui	s7,0x400
     348:	01798cb3          	add	s9,s3,s7
     34c:	03942c23          	sw	s9,56(s0)

00000350 <inst_32>:
     350:	ffff5537          	lui	a0,0xffff5
     354:	afd50513          	addi	a0,a0,-1283 # ffff4afd <_end+0xffff0f5d>
     358:	010005b7          	lui	a1,0x1000
     35c:	00b50633          	add	a2,a0,a1
     360:	02c42e23          	sw	a2,60(s0)
     364:	00003097          	auipc	ra,0x3
     368:	f9008093          	addi	ra,ra,-112 # 32f4 <signature_x1_0>

0000036c <inst_33>:
     36c:	fffe0537          	lui	a0,0xfffe0
     370:	fff50513          	addi	a0,a0,-1 # fffdffff <_end+0xfffdc45f>
     374:	020005b7          	lui	a1,0x2000
     378:	00b50633          	add	a2,a0,a1
     37c:	00c0a023          	sw	a2,0(ra)

00000380 <inst_34>:
     380:	00000513          	li	a0,0
     384:	040005b7          	lui	a1,0x4000
     388:	00b50633          	add	a2,a0,a1
     38c:	00c0a223          	sw	a2,4(ra)

00000390 <inst_35>:
     390:	ffff8537          	lui	a0,0xffff8
     394:	fff50513          	addi	a0,a0,-1 # ffff7fff <_end+0xffff445f>
     398:	080005b7          	lui	a1,0x8000
     39c:	00b50633          	add	a2,a0,a1
     3a0:	00c0a423          	sw	a2,8(ra)

000003a4 <inst_36>:
     3a4:	40000537          	lui	a0,0x40000
     3a8:	100005b7          	lui	a1,0x10000
     3ac:	00b50633          	add	a2,a0,a1
     3b0:	00c0a623          	sw	a2,12(ra)

000003b4 <inst_37>:
     3b4:	ffffc537          	lui	a0,0xffffc
     3b8:	fff50513          	addi	a0,a0,-1 # ffffbfff <_end+0xffff845f>
     3bc:	200005b7          	lui	a1,0x20000
     3c0:	00b50633          	add	a2,a0,a1
     3c4:	00c0a823          	sw	a2,16(ra)

000003c8 <inst_38>:
     3c8:	00010537          	lui	a0,0x10
     3cc:	400005b7          	lui	a1,0x40000
     3d0:	00b50633          	add	a2,a0,a1
     3d4:	00c0aa23          	sw	a2,20(ra)

000003d8 <inst_39>:
     3d8:	00400513          	li	a0,4
     3dc:	ffe00593          	li	a1,-2
     3e0:	00b50633          	add	a2,a0,a1
     3e4:	00c0ac23          	sw	a2,24(ra)

000003e8 <inst_40>:
     3e8:	fdf00513          	li	a0,-33
     3ec:	ffd00593          	li	a1,-3
     3f0:	00b50633          	add	a2,a0,a1
     3f4:	00c0ae23          	sw	a2,28(ra)

000003f8 <inst_41>:
     3f8:	fdf00513          	li	a0,-33
     3fc:	ffb00593          	li	a1,-5
     400:	00b50633          	add	a2,a0,a1
     404:	02c0a023          	sw	a2,32(ra)

00000408 <inst_42>:
     408:	fffe0537          	lui	a0,0xfffe0
     40c:	fff50513          	addi	a0,a0,-1 # fffdffff <_end+0xfffdc45f>
     410:	ff700593          	li	a1,-9
     414:	00b50633          	add	a2,a0,a1
     418:	02c0a223          	sw	a2,36(ra)

0000041c <inst_43>:
     41c:	00001537          	lui	a0,0x1
     420:	80050513          	addi	a0,a0,-2048 # 800 <inst_93+0x4>
     424:	fef00593          	li	a1,-17
     428:	00b50633          	add	a2,a0,a1
     42c:	02c0a423          	sw	a2,40(ra)

00000430 <inst_44>:
     430:	20000537          	lui	a0,0x20000
     434:	fdf00593          	li	a1,-33
     438:	00b50633          	add	a2,a0,a1
     43c:	02c0a623          	sw	a2,44(ra)

00000440 <inst_45>:
     440:	80000537          	lui	a0,0x80000
     444:	fff50513          	addi	a0,a0,-1 # 7fffffff <_end+0x7fffc45f>
     448:	fbf00593          	li	a1,-65
     44c:	00b50633          	add	a2,a0,a1
     450:	02c0a823          	sw	a2,48(ra)

00000454 <inst_46>:
     454:	ff800537          	lui	a0,0xff800
     458:	fff50513          	addi	a0,a0,-1 # ff7fffff <_end+0xff7fc45f>
     45c:	f7f00593          	li	a1,-129
     460:	00b50633          	add	a2,a0,a1
     464:	02c0aa23          	sw	a2,52(ra)

00000468 <inst_47>:
     468:	ffff5537          	lui	a0,0xffff5
     46c:	afc50513          	addi	a0,a0,-1284 # ffff4afc <_end+0xffff0f5c>
     470:	dff00593          	li	a1,-513
     474:	00b50633          	add	a2,a0,a1
     478:	02c0ac23          	sw	a2,56(ra)

0000047c <inst_48>:
     47c:	fffff537          	lui	a0,0xfffff
     480:	fff50513          	addi	a0,a0,-1 # ffffefff <_end+0xffffb45f>
     484:	bff00593          	li	a1,-1025
     488:	00b50633          	add	a2,a0,a1
     48c:	02c0ae23          	sw	a2,60(ra)

00000490 <inst_49>:
     490:	00400513          	li	a0,4
     494:	fffff5b7          	lui	a1,0xfffff
     498:	7ff58593          	addi	a1,a1,2047 # fffff7ff <_end+0xffffbc5f>
     49c:	00b50633          	add	a2,a0,a1
     4a0:	04c0a023          	sw	a2,64(ra)

000004a4 <inst_50>:
     4a4:	ffff5537          	lui	a0,0xffff5
     4a8:	afd50513          	addi	a0,a0,-1283 # ffff4afd <_end+0xffff0f5d>
     4ac:	fffff5b7          	lui	a1,0xfffff
     4b0:	fff58593          	addi	a1,a1,-1 # ffffefff <_end+0xffffb45f>
     4b4:	00b50633          	add	a2,a0,a1
     4b8:	04c0a223          	sw	a2,68(ra)

000004bc <inst_51>:
     4bc:	0000b537          	lui	a0,0xb
     4c0:	50450513          	addi	a0,a0,1284 # b504 <_end+0x7964>
     4c4:	ffffe5b7          	lui	a1,0xffffe
     4c8:	fff58593          	addi	a1,a1,-1 # ffffdfff <_end+0xffffa45f>
     4cc:	00b50633          	add	a2,a0,a1
     4d0:	04c0a423          	sw	a2,72(ra)

000004d4 <inst_52>:
     4d4:	80000537          	lui	a0,0x80000
     4d8:	fff50513          	addi	a0,a0,-1 # 7fffffff <_end+0x7fffc45f>
     4dc:	ffffc5b7          	lui	a1,0xffffc
     4e0:	fff58593          	addi	a1,a1,-1 # ffffbfff <_end+0xffff845f>
     4e4:	00b50633          	add	a2,a0,a1
     4e8:	04c0a623          	sw	a2,76(ra)

000004ec <inst_53>:
     4ec:	ffd00513          	li	a0,-3
     4f0:	ffff85b7          	lui	a1,0xffff8
     4f4:	fff58593          	addi	a1,a1,-1 # ffff7fff <_end+0xffff445f>
     4f8:	00b50633          	add	a2,a0,a1
     4fc:	04c0a823          	sw	a2,80(ra)

00000500 <inst_54>:
     500:	0000b537          	lui	a0,0xb
     504:	50350513          	addi	a0,a0,1283 # b503 <_end+0x7963>
     508:	ffff05b7          	lui	a1,0xffff0
     50c:	fff58593          	addi	a1,a1,-1 # fffeffff <_end+0xfffec45f>
     510:	00b50633          	add	a2,a0,a1
     514:	04c0aa23          	sw	a2,84(ra)

00000518 <inst_55>:
     518:	aaaab537          	lui	a0,0xaaaab
     51c:	aaa50513          	addi	a0,a0,-1366 # aaaaaaaa <_end+0xaaaa6f0a>
     520:	fffe05b7          	lui	a1,0xfffe0
     524:	fff58593          	addi	a1,a1,-1 # fffdffff <_end+0xfffdc45f>
     528:	00b50633          	add	a2,a0,a1
     52c:	04c0ac23          	sw	a2,88(ra)

00000530 <inst_56>:
     530:	01000537          	lui	a0,0x1000
     534:	fffc05b7          	lui	a1,0xfffc0
     538:	fff58593          	addi	a1,a1,-1 # fffbffff <_end+0xfffbc45f>
     53c:	00b50633          	add	a2,a0,a1
     540:	04c0ae23          	sw	a2,92(ra)

00000544 <inst_57>:
     544:	80000537          	lui	a0,0x80000
     548:	fff50513          	addi	a0,a0,-1 # 7fffffff <_end+0x7fffc45f>
     54c:	fff805b7          	lui	a1,0xfff80
     550:	fff58593          	addi	a1,a1,-1 # fff7ffff <_end+0xfff7c45f>
     554:	00b50633          	add	a2,a0,a1
     558:	06c0a023          	sw	a2,96(ra)

0000055c <inst_58>:
     55c:	00001537          	lui	a0,0x1
     560:	80050513          	addi	a0,a0,-2048 # 800 <inst_93+0x4>
     564:	fff005b7          	lui	a1,0xfff00
     568:	fff58593          	addi	a1,a1,-1 # ffefffff <_end+0xffefc45f>
     56c:	00b50633          	add	a2,a0,a1
     570:	06c0a223          	sw	a2,100(ra)

00000574 <inst_59>:
     574:	00800513          	li	a0,8
     578:	ffe005b7          	lui	a1,0xffe00
     57c:	fff58593          	addi	a1,a1,-1 # ffdfffff <_end+0xffdfc45f>
     580:	00b50633          	add	a2,a0,a1
     584:	06c0a423          	sw	a2,104(ra)

00000588 <inst_60>:
     588:	00002537          	lui	a0,0x2
     58c:	ffc005b7          	lui	a1,0xffc00
     590:	fff58593          	addi	a1,a1,-1 # ffbfffff <_end+0xffbfc45f>
     594:	00b50633          	add	a2,a0,a1
     598:	06c0a623          	sw	a2,108(ra)

0000059c <inst_61>:
     59c:	fdf00513          	li	a0,-33
     5a0:	ff8005b7          	lui	a1,0xff800
     5a4:	fff58593          	addi	a1,a1,-1 # ff7fffff <_end+0xff7fc45f>
     5a8:	00b50633          	add	a2,a0,a1
     5ac:	06c0a823          	sw	a2,112(ra)

000005b0 <inst_62>:
     5b0:	ffe00537          	lui	a0,0xffe00
     5b4:	fff50513          	addi	a0,a0,-1 # ffdfffff <_end+0xffdfc45f>
     5b8:	ff0005b7          	lui	a1,0xff000
     5bc:	fff58593          	addi	a1,a1,-1 # feffffff <_end+0xfeffc45f>
     5c0:	00b50633          	add	a2,a0,a1
     5c4:	06c0aa23          	sw	a2,116(ra)

000005c8 <inst_63>:
     5c8:	00200513          	li	a0,2
     5cc:	fc0005b7          	lui	a1,0xfc000
     5d0:	fff58593          	addi	a1,a1,-1 # fbffffff <_end+0xfbffc45f>
     5d4:	00b50633          	add	a2,a0,a1
     5d8:	06c0ac23          	sw	a2,120(ra)

000005dc <inst_64>:
     5dc:	55555537          	lui	a0,0x55555
     5e0:	55550513          	addi	a0,a0,1365 # 55555555 <_end+0x555519b5>
     5e4:	f80005b7          	lui	a1,0xf8000
     5e8:	fff58593          	addi	a1,a1,-1 # f7ffffff <_end+0xf7ffc45f>
     5ec:	00b50633          	add	a2,a0,a1
     5f0:	06c0ae23          	sw	a2,124(ra)

000005f4 <inst_65>:
     5f4:	00020537          	lui	a0,0x20
     5f8:	f00005b7          	lui	a1,0xf0000
     5fc:	fff58593          	addi	a1,a1,-1 # efffffff <_end+0xefffc45f>
     600:	00b50633          	add	a2,a0,a1
     604:	08c0a023          	sw	a2,128(ra)

00000608 <inst_66>:
     608:	00020537          	lui	a0,0x20
     60c:	e00005b7          	lui	a1,0xe0000
     610:	fff58593          	addi	a1,a1,-1 # dfffffff <_end+0xdfffc45f>
     614:	00b50633          	add	a2,a0,a1
     618:	08c0a223          	sw	a2,132(ra)

0000061c <inst_67>:
     61c:	00700513          	li	a0,7
     620:	c00005b7          	lui	a1,0xc0000
     624:	fff58593          	addi	a1,a1,-1 # bfffffff <_end+0xbfffc45f>
     628:	00b50633          	add	a2,a0,a1
     62c:	08c0a423          	sw	a2,136(ra)

00000630 <inst_68>:
     630:	00100537          	lui	a0,0x100
     634:	555555b7          	lui	a1,0x55555
     638:	55558593          	addi	a1,a1,1365 # 55555555 <_end+0x555519b5>
     63c:	00b50633          	add	a2,a0,a1
     640:	08c0a623          	sw	a2,140(ra)

00000644 <inst_69>:
     644:	01000513          	li	a0,16
     648:	333335b7          	lui	a1,0x33333
     64c:	33358593          	addi	a1,a1,819 # 33333333 <_end+0x3332f793>
     650:	00b50633          	add	a2,a0,a1
     654:	08c0a823          	sw	a2,144(ra)

00000658 <inst_70>:
     658:	08000513          	li	a0,128
     65c:	333335b7          	lui	a1,0x33333
     660:	33258593          	addi	a1,a1,818 # 33333332 <_end+0x3332f792>
     664:	00b50633          	add	a2,a0,a1
     668:	08c0aa23          	sw	a2,148(ra)

0000066c <inst_71>:
     66c:	10000513          	li	a0,256
     670:	ff600593          	li	a1,-10
     674:	00b50633          	add	a2,a0,a1
     678:	08c0ac23          	sw	a2,152(ra)

0000067c <inst_72>:
     67c:	20000513          	li	a0,512
     680:	ffff55b7          	lui	a1,0xffff5
     684:	afd58593          	addi	a1,a1,-1283 # ffff4afd <_end+0xffff0f5d>
     688:	00b50633          	add	a2,a0,a1
     68c:	08c0ae23          	sw	a2,156(ra)

00000690 <inst_73>:
     690:	40000513          	li	a0,1024
     694:	555555b7          	lui	a1,0x55555
     698:	55558593          	addi	a1,a1,1365 # 55555555 <_end+0x555519b5>
     69c:	00b50633          	add	a2,a0,a1
     6a0:	0ac0a023          	sw	a2,160(ra)

000006a4 <inst_74>:
     6a4:	00001537          	lui	a0,0x1
     6a8:	00500593          	li	a1,5
     6ac:	00b50633          	add	a2,a0,a1
     6b0:	0ac0a223          	sw	a2,164(ra)

000006b4 <inst_75>:
     6b4:	00004537          	lui	a0,0x4
     6b8:	fffff5b7          	lui	a1,0xfffff
     6bc:	7ff58593          	addi	a1,a1,2047 # fffff7ff <_end+0xffffbc5f>
     6c0:	00b50633          	add	a2,a0,a1
     6c4:	0ac0a423          	sw	a2,168(ra)

000006c8 <inst_76>:
     6c8:	00008537          	lui	a0,0x8
     6cc:	ff0005b7          	lui	a1,0xff000
     6d0:	fff58593          	addi	a1,a1,-1 # feffffff <_end+0xfeffc45f>
     6d4:	00b50633          	add	a2,a0,a1
     6d8:	0ac0a623          	sw	a2,172(ra)

000006dc <inst_77>:
     6dc:	00040537          	lui	a0,0x40
     6e0:	010005b7          	lui	a1,0x1000
     6e4:	00b50633          	add	a2,a0,a1
     6e8:	0ac0a823          	sw	a2,176(ra)

000006ec <inst_78>:
     6ec:	00080537          	lui	a0,0x80
     6f0:	000085b7          	lui	a1,0x8
     6f4:	00b50633          	add	a2,a0,a1
     6f8:	0ac0aa23          	sw	a2,180(ra)

000006fc <inst_79>:
     6fc:	00200537          	lui	a0,0x200
     700:	100005b7          	lui	a1,0x10000
     704:	00b50633          	add	a2,a0,a1
     708:	0ac0ac23          	sw	a2,184(ra)

0000070c <inst_80>:
     70c:	00800537          	lui	a0,0x800
     710:	bff00593          	li	a1,-1025
     714:	00b50633          	add	a2,a0,a1
     718:	0ac0ae23          	sw	a2,188(ra)

0000071c <inst_81>:
     71c:	02000537          	lui	a0,0x2000
     720:	555555b7          	lui	a1,0x55555
     724:	55558593          	addi	a1,a1,1365 # 55555555 <_end+0x555519b5>
     728:	00b50633          	add	a2,a0,a1
     72c:	0cc0a023          	sw	a2,192(ra)

00000730 <inst_82>:
     730:	04000537          	lui	a0,0x4000
     734:	000085b7          	lui	a1,0x8
     738:	00b50633          	add	a2,a0,a1
     73c:	0cc0a223          	sw	a2,196(ra)

00000740 <inst_83>:
     740:	08000537          	lui	a0,0x8000
     744:	333335b7          	lui	a1,0x33333
     748:	33258593          	addi	a1,a1,818 # 33333332 <_end+0x3332f792>
     74c:	00b50633          	add	a2,a0,a1
     750:	0cc0a423          	sw	a2,200(ra)

00000754 <inst_84>:
     754:	10000537          	lui	a0,0x10000
     758:	c00005b7          	lui	a1,0xc0000
     75c:	00b50633          	add	a2,a0,a1
     760:	0cc0a623          	sw	a2,204(ra)

00000764 <inst_85>:
     764:	ff700513          	li	a0,-9
     768:	fff805b7          	lui	a1,0xfff80
     76c:	fff58593          	addi	a1,a1,-1 # fff7ffff <_end+0xfff7c45f>
     770:	00b50633          	add	a2,a0,a1
     774:	0cc0a823          	sw	a2,208(ra)

00000778 <inst_86>:
     778:	fbf00513          	li	a0,-65
     77c:	800005b7          	lui	a1,0x80000
     780:	00b50633          	add	a2,a0,a1
     784:	0cc0aa23          	sw	a2,212(ra)

00000788 <inst_87>:
     788:	f7f00513          	li	a0,-129
     78c:	aaaab5b7          	lui	a1,0xaaaab
     790:	aaa58593          	addi	a1,a1,-1366 # aaaaaaaa <_end+0xaaaa6f0a>
     794:	00b50633          	add	a2,a0,a1
     798:	0cc0ac23          	sw	a2,216(ra)

0000079c <inst_88>:
     79c:	eff00513          	li	a0,-257
     7a0:	00300593          	li	a1,3
     7a4:	00b50633          	add	a2,a0,a1
     7a8:	0cc0ae23          	sw	a2,220(ra)

000007ac <inst_89>:
     7ac:	bff00513          	li	a0,-1025
     7b0:	ff800593          	li	a1,-8
     7b4:	00b50633          	add	a2,a0,a1
     7b8:	0ec0a023          	sw	a2,224(ra)

000007bc <inst_90>:
     7bc:	fffff537          	lui	a0,0xfffff
     7c0:	7ff50513          	addi	a0,a0,2047 # fffff7ff <_end+0xffffbc5f>
     7c4:	00300593          	li	a1,3
     7c8:	00b50633          	add	a2,a0,a1
     7cc:	0ec0a223          	sw	a2,228(ra)

000007d0 <inst_91>:
     7d0:	ffffe537          	lui	a0,0xffffe
     7d4:	fff50513          	addi	a0,a0,-1 # ffffdfff <_end+0xffffa45f>
     7d8:	00200593          	li	a1,2
     7dc:	00b50633          	add	a2,a0,a1
     7e0:	0ec0a423          	sw	a2,232(ra)

000007e4 <inst_92>:
     7e4:	fffc0537          	lui	a0,0xfffc0
     7e8:	fff50513          	addi	a0,a0,-1 # fffbffff <_end+0xfffbc45f>
     7ec:	ff8005b7          	lui	a1,0xff800
     7f0:	fff58593          	addi	a1,a1,-1 # ff7fffff <_end+0xff7fc45f>
     7f4:	00b50633          	add	a2,a0,a1
     7f8:	0ec0a623          	sw	a2,236(ra)

000007fc <inst_93>:
     7fc:	fff80537          	lui	a0,0xfff80
     800:	fff50513          	addi	a0,a0,-1 # fff7ffff <_end+0xfff7c45f>
     804:	0000b5b7          	lui	a1,0xb
     808:	50458593          	addi	a1,a1,1284 # b504 <_end+0x7964>
     80c:	00b50633          	add	a2,a0,a1
     810:	0ec0a823          	sw	a2,240(ra)

00000814 <inst_94>:
     814:	fff00537          	lui	a0,0xfff00
     818:	fff50513          	addi	a0,a0,-1 # ffefffff <_end+0xffefc45f>
     81c:	c00005b7          	lui	a1,0xc0000
     820:	00b50633          	add	a2,a0,a1
     824:	0ec0aa23          	sw	a2,244(ra)

00000828 <inst_95>:
     828:	fc000537          	lui	a0,0xfc000
     82c:	fff50513          	addi	a0,a0,-1 # fbffffff <_end+0xfbffc45f>
     830:	666665b7          	lui	a1,0x66666
     834:	66558593          	addi	a1,a1,1637 # 66666665 <_end+0x66662ac5>
     838:	00b50633          	add	a2,a0,a1
     83c:	0ec0ac23          	sw	a2,248(ra)

00000840 <inst_96>:
     840:	f8000537          	lui	a0,0xf8000
     844:	fff50513          	addi	a0,a0,-1 # f7ffffff <_end+0xf7ffc45f>
     848:	f00005b7          	lui	a1,0xf0000
     84c:	fff58593          	addi	a1,a1,-1 # efffffff <_end+0xefffc45f>
     850:	00b50633          	add	a2,a0,a1
     854:	0ec0ae23          	sw	a2,252(ra)

00000858 <inst_97>:
     858:	f0000537          	lui	a0,0xf0000
     85c:	fff50513          	addi	a0,a0,-1 # efffffff <_end+0xefffc45f>
     860:	000015b7          	lui	a1,0x1
     864:	80058593          	addi	a1,a1,-2048 # 800 <inst_93+0x4>
     868:	00b50633          	add	a2,a0,a1
     86c:	10c0a023          	sw	a2,256(ra)

00000870 <inst_98>:
     870:	e0000537          	lui	a0,0xe0000
     874:	fff50513          	addi	a0,a0,-1 # dfffffff <_end+0xdfffc45f>
     878:	000205b7          	lui	a1,0x20
     87c:	00b50633          	add	a2,a0,a1
     880:	10c0a223          	sw	a2,260(ra)

00000884 <inst_99>:
     884:	c0000537          	lui	a0,0xc0000
     888:	fff50513          	addi	a0,a0,-1 # bfffffff <_end+0xbfffc45f>
     88c:	f7f00593          	li	a1,-129
     890:	00b50633          	add	a2,a0,a1
     894:	10c0a423          	sw	a2,264(ra)

00000898 <inst_100>:
     898:	00300513          	li	a0,3
     89c:	00300593          	li	a1,3
     8a0:	00b50633          	add	a2,a0,a1
     8a4:	10c0a623          	sw	a2,268(ra)

000008a8 <inst_101>:
     8a8:	00300513          	li	a0,3
     8ac:	555555b7          	lui	a1,0x55555
     8b0:	55558593          	addi	a1,a1,1365 # 55555555 <_end+0x555519b5>
     8b4:	00b50633          	add	a2,a0,a1
     8b8:	10c0a823          	sw	a2,272(ra)

000008bc <inst_102>:
     8bc:	00300513          	li	a0,3
     8c0:	aaaab5b7          	lui	a1,0xaaaab
     8c4:	aaa58593          	addi	a1,a1,-1366 # aaaaaaaa <_end+0xaaaa6f0a>
     8c8:	00b50633          	add	a2,a0,a1
     8cc:	10c0aa23          	sw	a2,276(ra)

000008d0 <inst_103>:
     8d0:	00300513          	li	a0,3
     8d4:	00500593          	li	a1,5
     8d8:	00b50633          	add	a2,a0,a1
     8dc:	10c0ac23          	sw	a2,280(ra)

000008e0 <inst_104>:
     8e0:	00300513          	li	a0,3
     8e4:	333335b7          	lui	a1,0x33333
     8e8:	33358593          	addi	a1,a1,819 # 33333333 <_end+0x3332f793>
     8ec:	00b50633          	add	a2,a0,a1
     8f0:	10c0ae23          	sw	a2,284(ra)

000008f4 <inst_105>:
     8f4:	00300513          	li	a0,3
     8f8:	666665b7          	lui	a1,0x66666
     8fc:	66658593          	addi	a1,a1,1638 # 66666666 <_end+0x66662ac6>
     900:	00b50633          	add	a2,a0,a1
     904:	12c0a023          	sw	a2,288(ra)

00000908 <inst_106>:
     908:	00300513          	li	a0,3
     90c:	ffff55b7          	lui	a1,0xffff5
     910:	afc58593          	addi	a1,a1,-1284 # ffff4afc <_end+0xffff0f5c>
     914:	00b50633          	add	a2,a0,a1
     918:	12c0a223          	sw	a2,292(ra)

0000091c <inst_107>:
     91c:	00300513          	li	a0,3
     920:	0000b5b7          	lui	a1,0xb
     924:	50458593          	addi	a1,a1,1284 # b504 <_end+0x7964>
     928:	00b50633          	add	a2,a0,a1
     92c:	12c0a423          	sw	a2,296(ra)

00000930 <inst_108>:
     930:	00300513          	li	a0,3
     934:	00200593          	li	a1,2
     938:	00b50633          	add	a2,a0,a1
     93c:	12c0a623          	sw	a2,300(ra)

00000940 <inst_109>:
     940:	00300513          	li	a0,3
     944:	555555b7          	lui	a1,0x55555
     948:	55458593          	addi	a1,a1,1364 # 55555554 <_end+0x555519b4>
     94c:	00b50633          	add	a2,a0,a1
     950:	12c0a823          	sw	a2,304(ra)

00000954 <inst_110>:
     954:	00300513          	li	a0,3
     958:	00000593          	li	a1,0
     95c:	00b50633          	add	a2,a0,a1
     960:	12c0aa23          	sw	a2,308(ra)

00000964 <inst_111>:
     964:	00300513          	li	a0,3
     968:	00400593          	li	a1,4
     96c:	00b50633          	add	a2,a0,a1
     970:	12c0ac23          	sw	a2,312(ra)

00000974 <inst_112>:
     974:	00300513          	li	a0,3
     978:	333335b7          	lui	a1,0x33333
     97c:	33258593          	addi	a1,a1,818 # 33333332 <_end+0x3332f792>
     980:	00b50633          	add	a2,a0,a1
     984:	12c0ae23          	sw	a2,316(ra)

00000988 <inst_113>:
     988:	00300513          	li	a0,3
     98c:	666665b7          	lui	a1,0x66666
     990:	66558593          	addi	a1,a1,1637 # 66666665 <_end+0x66662ac5>
     994:	00b50633          	add	a2,a0,a1
     998:	14c0a023          	sw	a2,320(ra)

0000099c <inst_114>:
     99c:	00300513          	li	a0,3
     9a0:	0000b5b7          	lui	a1,0xb
     9a4:	50358593          	addi	a1,a1,1283 # b503 <_end+0x7963>
     9a8:	00b50633          	add	a2,a0,a1
     9ac:	14c0a223          	sw	a2,324(ra)

000009b0 <inst_115>:
     9b0:	00300513          	li	a0,3
     9b4:	555555b7          	lui	a1,0x55555
     9b8:	55658593          	addi	a1,a1,1366 # 55555556 <_end+0x555519b6>
     9bc:	00b50633          	add	a2,a0,a1
     9c0:	14c0a423          	sw	a2,328(ra)

000009c4 <inst_116>:
     9c4:	00300513          	li	a0,3
     9c8:	aaaab5b7          	lui	a1,0xaaaab
     9cc:	aab58593          	addi	a1,a1,-1365 # aaaaaaab <_end+0xaaaa6f0b>
     9d0:	00b50633          	add	a2,a0,a1
     9d4:	14c0a623          	sw	a2,332(ra)

000009d8 <inst_117>:
     9d8:	00300513          	li	a0,3
     9dc:	00600593          	li	a1,6
     9e0:	00b50633          	add	a2,a0,a1
     9e4:	14c0a823          	sw	a2,336(ra)

000009e8 <inst_118>:
     9e8:	00300513          	li	a0,3
     9ec:	333335b7          	lui	a1,0x33333
     9f0:	33458593          	addi	a1,a1,820 # 33333334 <_end+0x3332f794>
     9f4:	00b50633          	add	a2,a0,a1
     9f8:	14c0aa23          	sw	a2,340(ra)

000009fc <inst_119>:
     9fc:	00300513          	li	a0,3
     a00:	666665b7          	lui	a1,0x66666
     a04:	66758593          	addi	a1,a1,1639 # 66666667 <_end+0x66662ac7>
     a08:	00b50633          	add	a2,a0,a1
     a0c:	14c0ac23          	sw	a2,344(ra)

00000a10 <inst_120>:
     a10:	00300513          	li	a0,3
     a14:	ffff55b7          	lui	a1,0xffff5
     a18:	afd58593          	addi	a1,a1,-1283 # ffff4afd <_end+0xffff0f5d>
     a1c:	00b50633          	add	a2,a0,a1
     a20:	14c0ae23          	sw	a2,348(ra)

00000a24 <inst_121>:
     a24:	00300513          	li	a0,3
     a28:	0000b5b7          	lui	a1,0xb
     a2c:	50558593          	addi	a1,a1,1285 # b505 <_end+0x7965>
     a30:	00b50633          	add	a2,a0,a1
     a34:	16c0a023          	sw	a2,352(ra)

00000a38 <inst_122>:
     a38:	55555537          	lui	a0,0x55555
     a3c:	55550513          	addi	a0,a0,1365 # 55555555 <_end+0x555519b5>
     a40:	00300593          	li	a1,3
     a44:	00b50633          	add	a2,a0,a1
     a48:	16c0a223          	sw	a2,356(ra)

00000a4c <inst_123>:
     a4c:	55555537          	lui	a0,0x55555
     a50:	55550513          	addi	a0,a0,1365 # 55555555 <_end+0x555519b5>
     a54:	555555b7          	lui	a1,0x55555
     a58:	55558593          	addi	a1,a1,1365 # 55555555 <_end+0x555519b5>
     a5c:	00b50633          	add	a2,a0,a1
     a60:	16c0a423          	sw	a2,360(ra)

00000a64 <inst_124>:
     a64:	55555537          	lui	a0,0x55555
     a68:	55550513          	addi	a0,a0,1365 # 55555555 <_end+0x555519b5>
     a6c:	aaaab5b7          	lui	a1,0xaaaab
     a70:	aaa58593          	addi	a1,a1,-1366 # aaaaaaaa <_end+0xaaaa6f0a>
     a74:	00b50633          	add	a2,a0,a1
     a78:	16c0a623          	sw	a2,364(ra)

00000a7c <inst_125>:
     a7c:	55555537          	lui	a0,0x55555
     a80:	55550513          	addi	a0,a0,1365 # 55555555 <_end+0x555519b5>
     a84:	00500593          	li	a1,5
     a88:	00b50633          	add	a2,a0,a1
     a8c:	16c0a823          	sw	a2,368(ra)

00000a90 <inst_126>:
     a90:	55555537          	lui	a0,0x55555
     a94:	55550513          	addi	a0,a0,1365 # 55555555 <_end+0x555519b5>
     a98:	333335b7          	lui	a1,0x33333
     a9c:	33358593          	addi	a1,a1,819 # 33333333 <_end+0x3332f793>
     aa0:	00b50633          	add	a2,a0,a1
     aa4:	16c0aa23          	sw	a2,372(ra)

00000aa8 <inst_127>:
     aa8:	55555537          	lui	a0,0x55555
     aac:	55550513          	addi	a0,a0,1365 # 55555555 <_end+0x555519b5>
     ab0:	666665b7          	lui	a1,0x66666
     ab4:	66658593          	addi	a1,a1,1638 # 66666666 <_end+0x66662ac6>
     ab8:	00b50633          	add	a2,a0,a1
     abc:	16c0ac23          	sw	a2,376(ra)

00000ac0 <inst_128>:
     ac0:	55555537          	lui	a0,0x55555
     ac4:	55550513          	addi	a0,a0,1365 # 55555555 <_end+0x555519b5>
     ac8:	ffff55b7          	lui	a1,0xffff5
     acc:	afc58593          	addi	a1,a1,-1284 # ffff4afc <_end+0xffff0f5c>
     ad0:	00b50633          	add	a2,a0,a1
     ad4:	16c0ae23          	sw	a2,380(ra)

00000ad8 <inst_129>:
     ad8:	55555537          	lui	a0,0x55555
     adc:	55550513          	addi	a0,a0,1365 # 55555555 <_end+0x555519b5>
     ae0:	0000b5b7          	lui	a1,0xb
     ae4:	50458593          	addi	a1,a1,1284 # b504 <_end+0x7964>
     ae8:	00b50633          	add	a2,a0,a1
     aec:	18c0a023          	sw	a2,384(ra)

00000af0 <inst_130>:
     af0:	55555537          	lui	a0,0x55555
     af4:	55550513          	addi	a0,a0,1365 # 55555555 <_end+0x555519b5>
     af8:	00200593          	li	a1,2
     afc:	00b50633          	add	a2,a0,a1
     b00:	18c0a223          	sw	a2,388(ra)

00000b04 <inst_131>:
     b04:	55555537          	lui	a0,0x55555
     b08:	55550513          	addi	a0,a0,1365 # 55555555 <_end+0x555519b5>
     b0c:	555555b7          	lui	a1,0x55555
     b10:	55458593          	addi	a1,a1,1364 # 55555554 <_end+0x555519b4>
     b14:	00b50633          	add	a2,a0,a1
     b18:	18c0a423          	sw	a2,392(ra)

00000b1c <inst_132>:
     b1c:	55555537          	lui	a0,0x55555
     b20:	55550513          	addi	a0,a0,1365 # 55555555 <_end+0x555519b5>
     b24:	00000593          	li	a1,0
     b28:	00b50633          	add	a2,a0,a1
     b2c:	18c0a623          	sw	a2,396(ra)

00000b30 <inst_133>:
     b30:	55555537          	lui	a0,0x55555
     b34:	55550513          	addi	a0,a0,1365 # 55555555 <_end+0x555519b5>
     b38:	00400593          	li	a1,4
     b3c:	00b50633          	add	a2,a0,a1
     b40:	18c0a823          	sw	a2,400(ra)

00000b44 <inst_134>:
     b44:	55555537          	lui	a0,0x55555
     b48:	55550513          	addi	a0,a0,1365 # 55555555 <_end+0x555519b5>
     b4c:	333335b7          	lui	a1,0x33333
     b50:	33258593          	addi	a1,a1,818 # 33333332 <_end+0x3332f792>
     b54:	00b50633          	add	a2,a0,a1
     b58:	18c0aa23          	sw	a2,404(ra)

00000b5c <inst_135>:
     b5c:	55555537          	lui	a0,0x55555
     b60:	55550513          	addi	a0,a0,1365 # 55555555 <_end+0x555519b5>
     b64:	666665b7          	lui	a1,0x66666
     b68:	66558593          	addi	a1,a1,1637 # 66666665 <_end+0x66662ac5>
     b6c:	00b50633          	add	a2,a0,a1
     b70:	18c0ac23          	sw	a2,408(ra)

00000b74 <inst_136>:
     b74:	55555537          	lui	a0,0x55555
     b78:	55550513          	addi	a0,a0,1365 # 55555555 <_end+0x555519b5>
     b7c:	0000b5b7          	lui	a1,0xb
     b80:	50358593          	addi	a1,a1,1283 # b503 <_end+0x7963>
     b84:	00b50633          	add	a2,a0,a1
     b88:	18c0ae23          	sw	a2,412(ra)

00000b8c <inst_137>:
     b8c:	55555537          	lui	a0,0x55555
     b90:	55550513          	addi	a0,a0,1365 # 55555555 <_end+0x555519b5>
     b94:	555555b7          	lui	a1,0x55555
     b98:	55658593          	addi	a1,a1,1366 # 55555556 <_end+0x555519b6>
     b9c:	00b50633          	add	a2,a0,a1
     ba0:	1ac0a023          	sw	a2,416(ra)

00000ba4 <inst_138>:
     ba4:	55555537          	lui	a0,0x55555
     ba8:	55550513          	addi	a0,a0,1365 # 55555555 <_end+0x555519b5>
     bac:	aaaab5b7          	lui	a1,0xaaaab
     bb0:	aab58593          	addi	a1,a1,-1365 # aaaaaaab <_end+0xaaaa6f0b>
     bb4:	00b50633          	add	a2,a0,a1
     bb8:	1ac0a223          	sw	a2,420(ra)

00000bbc <inst_139>:
     bbc:	55555537          	lui	a0,0x55555
     bc0:	55550513          	addi	a0,a0,1365 # 55555555 <_end+0x555519b5>
     bc4:	00600593          	li	a1,6
     bc8:	00b50633          	add	a2,a0,a1
     bcc:	1ac0a423          	sw	a2,424(ra)

00000bd0 <inst_140>:
     bd0:	55555537          	lui	a0,0x55555
     bd4:	55550513          	addi	a0,a0,1365 # 55555555 <_end+0x555519b5>
     bd8:	333335b7          	lui	a1,0x33333
     bdc:	33458593          	addi	a1,a1,820 # 33333334 <_end+0x3332f794>
     be0:	00b50633          	add	a2,a0,a1
     be4:	1ac0a623          	sw	a2,428(ra)

00000be8 <inst_141>:
     be8:	55555537          	lui	a0,0x55555
     bec:	55550513          	addi	a0,a0,1365 # 55555555 <_end+0x555519b5>
     bf0:	666665b7          	lui	a1,0x66666
     bf4:	66758593          	addi	a1,a1,1639 # 66666667 <_end+0x66662ac7>
     bf8:	00b50633          	add	a2,a0,a1
     bfc:	1ac0a823          	sw	a2,432(ra)

00000c00 <inst_142>:
     c00:	55555537          	lui	a0,0x55555
     c04:	55550513          	addi	a0,a0,1365 # 55555555 <_end+0x555519b5>
     c08:	ffff55b7          	lui	a1,0xffff5
     c0c:	afd58593          	addi	a1,a1,-1283 # ffff4afd <_end+0xffff0f5d>
     c10:	00b50633          	add	a2,a0,a1
     c14:	1ac0aa23          	sw	a2,436(ra)

00000c18 <inst_143>:
     c18:	55555537          	lui	a0,0x55555
     c1c:	55550513          	addi	a0,a0,1365 # 55555555 <_end+0x555519b5>
     c20:	0000b5b7          	lui	a1,0xb
     c24:	50558593          	addi	a1,a1,1285 # b505 <_end+0x7965>
     c28:	00b50633          	add	a2,a0,a1
     c2c:	1ac0ac23          	sw	a2,440(ra)

00000c30 <inst_144>:
     c30:	aaaab537          	lui	a0,0xaaaab
     c34:	aaa50513          	addi	a0,a0,-1366 # aaaaaaaa <_end+0xaaaa6f0a>
     c38:	00300593          	li	a1,3
     c3c:	00b50633          	add	a2,a0,a1
     c40:	1ac0ae23          	sw	a2,444(ra)

00000c44 <inst_145>:
     c44:	aaaab537          	lui	a0,0xaaaab
     c48:	aaa50513          	addi	a0,a0,-1366 # aaaaaaaa <_end+0xaaaa6f0a>
     c4c:	555555b7          	lui	a1,0x55555
     c50:	55558593          	addi	a1,a1,1365 # 55555555 <_end+0x555519b5>
     c54:	00b50633          	add	a2,a0,a1
     c58:	1cc0a023          	sw	a2,448(ra)

00000c5c <inst_146>:
     c5c:	aaaab537          	lui	a0,0xaaaab
     c60:	aaa50513          	addi	a0,a0,-1366 # aaaaaaaa <_end+0xaaaa6f0a>
     c64:	aaaab5b7          	lui	a1,0xaaaab
     c68:	aaa58593          	addi	a1,a1,-1366 # aaaaaaaa <_end+0xaaaa6f0a>
     c6c:	00b50633          	add	a2,a0,a1
     c70:	1cc0a223          	sw	a2,452(ra)

00000c74 <inst_147>:
     c74:	aaaab537          	lui	a0,0xaaaab
     c78:	aaa50513          	addi	a0,a0,-1366 # aaaaaaaa <_end+0xaaaa6f0a>
     c7c:	00500593          	li	a1,5
     c80:	00b50633          	add	a2,a0,a1
     c84:	1cc0a423          	sw	a2,456(ra)

00000c88 <inst_148>:
     c88:	aaaab537          	lui	a0,0xaaaab
     c8c:	aaa50513          	addi	a0,a0,-1366 # aaaaaaaa <_end+0xaaaa6f0a>
     c90:	333335b7          	lui	a1,0x33333
     c94:	33358593          	addi	a1,a1,819 # 33333333 <_end+0x3332f793>
     c98:	00b50633          	add	a2,a0,a1
     c9c:	1cc0a623          	sw	a2,460(ra)

00000ca0 <inst_149>:
     ca0:	aaaab537          	lui	a0,0xaaaab
     ca4:	aaa50513          	addi	a0,a0,-1366 # aaaaaaaa <_end+0xaaaa6f0a>
     ca8:	666665b7          	lui	a1,0x66666
     cac:	66658593          	addi	a1,a1,1638 # 66666666 <_end+0x66662ac6>
     cb0:	00b50633          	add	a2,a0,a1
     cb4:	1cc0a823          	sw	a2,464(ra)

00000cb8 <inst_150>:
     cb8:	aaaab537          	lui	a0,0xaaaab
     cbc:	aaa50513          	addi	a0,a0,-1366 # aaaaaaaa <_end+0xaaaa6f0a>
     cc0:	ffff55b7          	lui	a1,0xffff5
     cc4:	afc58593          	addi	a1,a1,-1284 # ffff4afc <_end+0xffff0f5c>
     cc8:	00b50633          	add	a2,a0,a1
     ccc:	1cc0aa23          	sw	a2,468(ra)

00000cd0 <inst_151>:
     cd0:	aaaab537          	lui	a0,0xaaaab
     cd4:	aaa50513          	addi	a0,a0,-1366 # aaaaaaaa <_end+0xaaaa6f0a>
     cd8:	0000b5b7          	lui	a1,0xb
     cdc:	50458593          	addi	a1,a1,1284 # b504 <_end+0x7964>
     ce0:	00b50633          	add	a2,a0,a1
     ce4:	1cc0ac23          	sw	a2,472(ra)

00000ce8 <inst_152>:
     ce8:	aaaab537          	lui	a0,0xaaaab
     cec:	aaa50513          	addi	a0,a0,-1366 # aaaaaaaa <_end+0xaaaa6f0a>
     cf0:	00200593          	li	a1,2
     cf4:	00b50633          	add	a2,a0,a1
     cf8:	1cc0ae23          	sw	a2,476(ra)

00000cfc <inst_153>:
     cfc:	aaaab537          	lui	a0,0xaaaab
     d00:	aaa50513          	addi	a0,a0,-1366 # aaaaaaaa <_end+0xaaaa6f0a>
     d04:	555555b7          	lui	a1,0x55555
     d08:	55458593          	addi	a1,a1,1364 # 55555554 <_end+0x555519b4>
     d0c:	00b50633          	add	a2,a0,a1
     d10:	1ec0a023          	sw	a2,480(ra)

00000d14 <inst_154>:
     d14:	aaaab537          	lui	a0,0xaaaab
     d18:	aaa50513          	addi	a0,a0,-1366 # aaaaaaaa <_end+0xaaaa6f0a>
     d1c:	00000593          	li	a1,0
     d20:	00b50633          	add	a2,a0,a1
     d24:	1ec0a223          	sw	a2,484(ra)

00000d28 <inst_155>:
     d28:	aaaab537          	lui	a0,0xaaaab
     d2c:	aaa50513          	addi	a0,a0,-1366 # aaaaaaaa <_end+0xaaaa6f0a>
     d30:	00400593          	li	a1,4
     d34:	00b50633          	add	a2,a0,a1
     d38:	1ec0a423          	sw	a2,488(ra)

00000d3c <inst_156>:
     d3c:	aaaab537          	lui	a0,0xaaaab
     d40:	aaa50513          	addi	a0,a0,-1366 # aaaaaaaa <_end+0xaaaa6f0a>
     d44:	333335b7          	lui	a1,0x33333
     d48:	33258593          	addi	a1,a1,818 # 33333332 <_end+0x3332f792>
     d4c:	00b50633          	add	a2,a0,a1
     d50:	1ec0a623          	sw	a2,492(ra)

00000d54 <inst_157>:
     d54:	aaaab537          	lui	a0,0xaaaab
     d58:	aaa50513          	addi	a0,a0,-1366 # aaaaaaaa <_end+0xaaaa6f0a>
     d5c:	666665b7          	lui	a1,0x66666
     d60:	66558593          	addi	a1,a1,1637 # 66666665 <_end+0x66662ac5>
     d64:	00b50633          	add	a2,a0,a1
     d68:	1ec0a823          	sw	a2,496(ra)

00000d6c <inst_158>:
     d6c:	aaaab537          	lui	a0,0xaaaab
     d70:	aaa50513          	addi	a0,a0,-1366 # aaaaaaaa <_end+0xaaaa6f0a>
     d74:	0000b5b7          	lui	a1,0xb
     d78:	50358593          	addi	a1,a1,1283 # b503 <_end+0x7963>
     d7c:	00b50633          	add	a2,a0,a1
     d80:	1ec0aa23          	sw	a2,500(ra)

00000d84 <inst_159>:
     d84:	aaaab537          	lui	a0,0xaaaab
     d88:	aaa50513          	addi	a0,a0,-1366 # aaaaaaaa <_end+0xaaaa6f0a>
     d8c:	555555b7          	lui	a1,0x55555
     d90:	55658593          	addi	a1,a1,1366 # 55555556 <_end+0x555519b6>
     d94:	00b50633          	add	a2,a0,a1
     d98:	1ec0ac23          	sw	a2,504(ra)

00000d9c <inst_160>:
     d9c:	aaaab537          	lui	a0,0xaaaab
     da0:	aaa50513          	addi	a0,a0,-1366 # aaaaaaaa <_end+0xaaaa6f0a>
     da4:	aaaab5b7          	lui	a1,0xaaaab
     da8:	aab58593          	addi	a1,a1,-1365 # aaaaaaab <_end+0xaaaa6f0b>
     dac:	00b50633          	add	a2,a0,a1
     db0:	1ec0ae23          	sw	a2,508(ra)

00000db4 <inst_161>:
     db4:	aaaab537          	lui	a0,0xaaaab
     db8:	aaa50513          	addi	a0,a0,-1366 # aaaaaaaa <_end+0xaaaa6f0a>
     dbc:	00600593          	li	a1,6
     dc0:	00b50633          	add	a2,a0,a1
     dc4:	20c0a023          	sw	a2,512(ra)

00000dc8 <inst_162>:
     dc8:	aaaab537          	lui	a0,0xaaaab
     dcc:	aaa50513          	addi	a0,a0,-1366 # aaaaaaaa <_end+0xaaaa6f0a>
     dd0:	333335b7          	lui	a1,0x33333
     dd4:	33458593          	addi	a1,a1,820 # 33333334 <_end+0x3332f794>
     dd8:	00b50633          	add	a2,a0,a1
     ddc:	20c0a223          	sw	a2,516(ra)

00000de0 <inst_163>:
     de0:	aaaab537          	lui	a0,0xaaaab
     de4:	aaa50513          	addi	a0,a0,-1366 # aaaaaaaa <_end+0xaaaa6f0a>
     de8:	666665b7          	lui	a1,0x66666
     dec:	66758593          	addi	a1,a1,1639 # 66666667 <_end+0x66662ac7>
     df0:	00b50633          	add	a2,a0,a1
     df4:	20c0a423          	sw	a2,520(ra)

00000df8 <inst_164>:
     df8:	aaaab537          	lui	a0,0xaaaab
     dfc:	aaa50513          	addi	a0,a0,-1366 # aaaaaaaa <_end+0xaaaa6f0a>
     e00:	ffff55b7          	lui	a1,0xffff5
     e04:	afd58593          	addi	a1,a1,-1283 # ffff4afd <_end+0xffff0f5d>
     e08:	00b50633          	add	a2,a0,a1
     e0c:	20c0a623          	sw	a2,524(ra)

00000e10 <inst_165>:
     e10:	aaaab537          	lui	a0,0xaaaab
     e14:	aaa50513          	addi	a0,a0,-1366 # aaaaaaaa <_end+0xaaaa6f0a>
     e18:	0000b5b7          	lui	a1,0xb
     e1c:	50558593          	addi	a1,a1,1285 # b505 <_end+0x7965>
     e20:	00b50633          	add	a2,a0,a1
     e24:	20c0a823          	sw	a2,528(ra)

00000e28 <inst_166>:
     e28:	00500513          	li	a0,5
     e2c:	00300593          	li	a1,3
     e30:	00b50633          	add	a2,a0,a1
     e34:	20c0aa23          	sw	a2,532(ra)

00000e38 <inst_167>:
     e38:	00500513          	li	a0,5
     e3c:	555555b7          	lui	a1,0x55555
     e40:	55558593          	addi	a1,a1,1365 # 55555555 <_end+0x555519b5>
     e44:	00b50633          	add	a2,a0,a1
     e48:	20c0ac23          	sw	a2,536(ra)

00000e4c <inst_168>:
     e4c:	00500513          	li	a0,5
     e50:	aaaab5b7          	lui	a1,0xaaaab
     e54:	aaa58593          	addi	a1,a1,-1366 # aaaaaaaa <_end+0xaaaa6f0a>
     e58:	00b50633          	add	a2,a0,a1
     e5c:	20c0ae23          	sw	a2,540(ra)

00000e60 <inst_169>:
     e60:	00500513          	li	a0,5
     e64:	00500593          	li	a1,5
     e68:	00b50633          	add	a2,a0,a1
     e6c:	22c0a023          	sw	a2,544(ra)

00000e70 <inst_170>:
     e70:	00500513          	li	a0,5
     e74:	333335b7          	lui	a1,0x33333
     e78:	33358593          	addi	a1,a1,819 # 33333333 <_end+0x3332f793>
     e7c:	00b50633          	add	a2,a0,a1
     e80:	22c0a223          	sw	a2,548(ra)

00000e84 <inst_171>:
     e84:	00500513          	li	a0,5
     e88:	666665b7          	lui	a1,0x66666
     e8c:	66658593          	addi	a1,a1,1638 # 66666666 <_end+0x66662ac6>
     e90:	00b50633          	add	a2,a0,a1
     e94:	22c0a423          	sw	a2,552(ra)

00000e98 <inst_172>:
     e98:	00500513          	li	a0,5
     e9c:	ffff55b7          	lui	a1,0xffff5
     ea0:	afc58593          	addi	a1,a1,-1284 # ffff4afc <_end+0xffff0f5c>
     ea4:	00b50633          	add	a2,a0,a1
     ea8:	22c0a623          	sw	a2,556(ra)

00000eac <inst_173>:
     eac:	00500513          	li	a0,5
     eb0:	0000b5b7          	lui	a1,0xb
     eb4:	50458593          	addi	a1,a1,1284 # b504 <_end+0x7964>
     eb8:	00b50633          	add	a2,a0,a1
     ebc:	22c0a823          	sw	a2,560(ra)

00000ec0 <inst_174>:
     ec0:	00500513          	li	a0,5
     ec4:	00200593          	li	a1,2
     ec8:	00b50633          	add	a2,a0,a1
     ecc:	22c0aa23          	sw	a2,564(ra)

00000ed0 <inst_175>:
     ed0:	00500513          	li	a0,5
     ed4:	555555b7          	lui	a1,0x55555
     ed8:	55458593          	addi	a1,a1,1364 # 55555554 <_end+0x555519b4>
     edc:	00b50633          	add	a2,a0,a1
     ee0:	22c0ac23          	sw	a2,568(ra)

00000ee4 <inst_176>:
     ee4:	00500513          	li	a0,5
     ee8:	00000593          	li	a1,0
     eec:	00b50633          	add	a2,a0,a1
     ef0:	22c0ae23          	sw	a2,572(ra)

00000ef4 <inst_177>:
     ef4:	00500513          	li	a0,5
     ef8:	00400593          	li	a1,4
     efc:	00b50633          	add	a2,a0,a1
     f00:	24c0a023          	sw	a2,576(ra)

00000f04 <inst_178>:
     f04:	00500513          	li	a0,5
     f08:	333335b7          	lui	a1,0x33333
     f0c:	33258593          	addi	a1,a1,818 # 33333332 <_end+0x3332f792>
     f10:	00b50633          	add	a2,a0,a1
     f14:	24c0a223          	sw	a2,580(ra)

00000f18 <inst_179>:
     f18:	00500513          	li	a0,5
     f1c:	666665b7          	lui	a1,0x66666
     f20:	66558593          	addi	a1,a1,1637 # 66666665 <_end+0x66662ac5>
     f24:	00b50633          	add	a2,a0,a1
     f28:	24c0a423          	sw	a2,584(ra)

00000f2c <inst_180>:
     f2c:	00500513          	li	a0,5
     f30:	0000b5b7          	lui	a1,0xb
     f34:	50358593          	addi	a1,a1,1283 # b503 <_end+0x7963>
     f38:	00b50633          	add	a2,a0,a1
     f3c:	24c0a623          	sw	a2,588(ra)

00000f40 <inst_181>:
     f40:	00500513          	li	a0,5
     f44:	555555b7          	lui	a1,0x55555
     f48:	55658593          	addi	a1,a1,1366 # 55555556 <_end+0x555519b6>
     f4c:	00b50633          	add	a2,a0,a1
     f50:	24c0a823          	sw	a2,592(ra)

00000f54 <inst_182>:
     f54:	00500513          	li	a0,5
     f58:	aaaab5b7          	lui	a1,0xaaaab
     f5c:	aab58593          	addi	a1,a1,-1365 # aaaaaaab <_end+0xaaaa6f0b>
     f60:	00b50633          	add	a2,a0,a1
     f64:	24c0aa23          	sw	a2,596(ra)

00000f68 <inst_183>:
     f68:	00500513          	li	a0,5
     f6c:	00600593          	li	a1,6
     f70:	00b50633          	add	a2,a0,a1
     f74:	24c0ac23          	sw	a2,600(ra)

00000f78 <inst_184>:
     f78:	00500513          	li	a0,5
     f7c:	333335b7          	lui	a1,0x33333
     f80:	33458593          	addi	a1,a1,820 # 33333334 <_end+0x3332f794>
     f84:	00b50633          	add	a2,a0,a1
     f88:	24c0ae23          	sw	a2,604(ra)

00000f8c <inst_185>:
     f8c:	00500513          	li	a0,5
     f90:	666665b7          	lui	a1,0x66666
     f94:	66758593          	addi	a1,a1,1639 # 66666667 <_end+0x66662ac7>
     f98:	00b50633          	add	a2,a0,a1
     f9c:	26c0a023          	sw	a2,608(ra)

00000fa0 <inst_186>:
     fa0:	00500513          	li	a0,5
     fa4:	ffff55b7          	lui	a1,0xffff5
     fa8:	afd58593          	addi	a1,a1,-1283 # ffff4afd <_end+0xffff0f5d>
     fac:	00b50633          	add	a2,a0,a1
     fb0:	26c0a223          	sw	a2,612(ra)

00000fb4 <inst_187>:
     fb4:	00500513          	li	a0,5
     fb8:	0000b5b7          	lui	a1,0xb
     fbc:	50558593          	addi	a1,a1,1285 # b505 <_end+0x7965>
     fc0:	00b50633          	add	a2,a0,a1
     fc4:	26c0a423          	sw	a2,616(ra)

00000fc8 <inst_188>:
     fc8:	33333537          	lui	a0,0x33333
     fcc:	33350513          	addi	a0,a0,819 # 33333333 <_end+0x3332f793>
     fd0:	00300593          	li	a1,3
     fd4:	00b50633          	add	a2,a0,a1
     fd8:	26c0a623          	sw	a2,620(ra)

00000fdc <inst_189>:
     fdc:	33333537          	lui	a0,0x33333
     fe0:	33350513          	addi	a0,a0,819 # 33333333 <_end+0x3332f793>
     fe4:	555555b7          	lui	a1,0x55555
     fe8:	55558593          	addi	a1,a1,1365 # 55555555 <_end+0x555519b5>
     fec:	00b50633          	add	a2,a0,a1
     ff0:	26c0a823          	sw	a2,624(ra)

00000ff4 <inst_190>:
     ff4:	33333537          	lui	a0,0x33333
     ff8:	33350513          	addi	a0,a0,819 # 33333333 <_end+0x3332f793>
     ffc:	aaaab5b7          	lui	a1,0xaaaab
    1000:	aaa58593          	addi	a1,a1,-1366 # aaaaaaaa <_end+0xaaaa6f0a>
    1004:	00b50633          	add	a2,a0,a1
    1008:	26c0aa23          	sw	a2,628(ra)

0000100c <inst_191>:
    100c:	33333537          	lui	a0,0x33333
    1010:	33350513          	addi	a0,a0,819 # 33333333 <_end+0x3332f793>
    1014:	00500593          	li	a1,5
    1018:	00b50633          	add	a2,a0,a1
    101c:	26c0ac23          	sw	a2,632(ra)

00001020 <inst_192>:
    1020:	33333537          	lui	a0,0x33333
    1024:	33350513          	addi	a0,a0,819 # 33333333 <_end+0x3332f793>
    1028:	333335b7          	lui	a1,0x33333
    102c:	33358593          	addi	a1,a1,819 # 33333333 <_end+0x3332f793>
    1030:	00b50633          	add	a2,a0,a1
    1034:	26c0ae23          	sw	a2,636(ra)

00001038 <inst_193>:
    1038:	33333537          	lui	a0,0x33333
    103c:	33350513          	addi	a0,a0,819 # 33333333 <_end+0x3332f793>
    1040:	666665b7          	lui	a1,0x66666
    1044:	66658593          	addi	a1,a1,1638 # 66666666 <_end+0x66662ac6>
    1048:	00b50633          	add	a2,a0,a1
    104c:	28c0a023          	sw	a2,640(ra)

00001050 <inst_194>:
    1050:	33333537          	lui	a0,0x33333
    1054:	33350513          	addi	a0,a0,819 # 33333333 <_end+0x3332f793>
    1058:	ffff55b7          	lui	a1,0xffff5
    105c:	afc58593          	addi	a1,a1,-1284 # ffff4afc <_end+0xffff0f5c>
    1060:	00b50633          	add	a2,a0,a1
    1064:	28c0a223          	sw	a2,644(ra)

00001068 <inst_195>:
    1068:	33333537          	lui	a0,0x33333
    106c:	33350513          	addi	a0,a0,819 # 33333333 <_end+0x3332f793>
    1070:	0000b5b7          	lui	a1,0xb
    1074:	50458593          	addi	a1,a1,1284 # b504 <_end+0x7964>
    1078:	00b50633          	add	a2,a0,a1
    107c:	28c0a423          	sw	a2,648(ra)

00001080 <inst_196>:
    1080:	33333537          	lui	a0,0x33333
    1084:	33350513          	addi	a0,a0,819 # 33333333 <_end+0x3332f793>
    1088:	00200593          	li	a1,2
    108c:	00b50633          	add	a2,a0,a1
    1090:	28c0a623          	sw	a2,652(ra)

00001094 <inst_197>:
    1094:	33333537          	lui	a0,0x33333
    1098:	33350513          	addi	a0,a0,819 # 33333333 <_end+0x3332f793>
    109c:	555555b7          	lui	a1,0x55555
    10a0:	55458593          	addi	a1,a1,1364 # 55555554 <_end+0x555519b4>
    10a4:	00b50633          	add	a2,a0,a1
    10a8:	28c0a823          	sw	a2,656(ra)

000010ac <inst_198>:
    10ac:	33333537          	lui	a0,0x33333
    10b0:	33350513          	addi	a0,a0,819 # 33333333 <_end+0x3332f793>
    10b4:	00000593          	li	a1,0
    10b8:	00b50633          	add	a2,a0,a1
    10bc:	28c0aa23          	sw	a2,660(ra)

000010c0 <inst_199>:
    10c0:	33333537          	lui	a0,0x33333
    10c4:	33350513          	addi	a0,a0,819 # 33333333 <_end+0x3332f793>
    10c8:	00400593          	li	a1,4
    10cc:	00b50633          	add	a2,a0,a1
    10d0:	28c0ac23          	sw	a2,664(ra)

000010d4 <inst_200>:
    10d4:	33333537          	lui	a0,0x33333
    10d8:	33350513          	addi	a0,a0,819 # 33333333 <_end+0x3332f793>
    10dc:	333335b7          	lui	a1,0x33333
    10e0:	33258593          	addi	a1,a1,818 # 33333332 <_end+0x3332f792>
    10e4:	00b50633          	add	a2,a0,a1
    10e8:	28c0ae23          	sw	a2,668(ra)

000010ec <inst_201>:
    10ec:	33333537          	lui	a0,0x33333
    10f0:	33350513          	addi	a0,a0,819 # 33333333 <_end+0x3332f793>
    10f4:	666665b7          	lui	a1,0x66666
    10f8:	66558593          	addi	a1,a1,1637 # 66666665 <_end+0x66662ac5>
    10fc:	00b50633          	add	a2,a0,a1
    1100:	2ac0a023          	sw	a2,672(ra)

00001104 <inst_202>:
    1104:	33333537          	lui	a0,0x33333
    1108:	33350513          	addi	a0,a0,819 # 33333333 <_end+0x3332f793>
    110c:	0000b5b7          	lui	a1,0xb
    1110:	50358593          	addi	a1,a1,1283 # b503 <_end+0x7963>
    1114:	00b50633          	add	a2,a0,a1
    1118:	2ac0a223          	sw	a2,676(ra)

0000111c <inst_203>:
    111c:	33333537          	lui	a0,0x33333
    1120:	33350513          	addi	a0,a0,819 # 33333333 <_end+0x3332f793>
    1124:	555555b7          	lui	a1,0x55555
    1128:	55658593          	addi	a1,a1,1366 # 55555556 <_end+0x555519b6>
    112c:	00b50633          	add	a2,a0,a1
    1130:	2ac0a423          	sw	a2,680(ra)

00001134 <inst_204>:
    1134:	33333537          	lui	a0,0x33333
    1138:	33350513          	addi	a0,a0,819 # 33333333 <_end+0x3332f793>
    113c:	aaaab5b7          	lui	a1,0xaaaab
    1140:	aab58593          	addi	a1,a1,-1365 # aaaaaaab <_end+0xaaaa6f0b>
    1144:	00b50633          	add	a2,a0,a1
    1148:	2ac0a623          	sw	a2,684(ra)

0000114c <inst_205>:
    114c:	33333537          	lui	a0,0x33333
    1150:	33350513          	addi	a0,a0,819 # 33333333 <_end+0x3332f793>
    1154:	00600593          	li	a1,6
    1158:	00b50633          	add	a2,a0,a1
    115c:	2ac0a823          	sw	a2,688(ra)

00001160 <inst_206>:
    1160:	33333537          	lui	a0,0x33333
    1164:	33350513          	addi	a0,a0,819 # 33333333 <_end+0x3332f793>
    1168:	333335b7          	lui	a1,0x33333
    116c:	33458593          	addi	a1,a1,820 # 33333334 <_end+0x3332f794>
    1170:	00b50633          	add	a2,a0,a1
    1174:	2ac0aa23          	sw	a2,692(ra)

00001178 <inst_207>:
    1178:	33333537          	lui	a0,0x33333
    117c:	33350513          	addi	a0,a0,819 # 33333333 <_end+0x3332f793>
    1180:	666665b7          	lui	a1,0x66666
    1184:	66758593          	addi	a1,a1,1639 # 66666667 <_end+0x66662ac7>
    1188:	00b50633          	add	a2,a0,a1
    118c:	2ac0ac23          	sw	a2,696(ra)

00001190 <inst_208>:
    1190:	33333537          	lui	a0,0x33333
    1194:	33350513          	addi	a0,a0,819 # 33333333 <_end+0x3332f793>
    1198:	ffff55b7          	lui	a1,0xffff5
    119c:	afd58593          	addi	a1,a1,-1283 # ffff4afd <_end+0xffff0f5d>
    11a0:	00b50633          	add	a2,a0,a1
    11a4:	2ac0ae23          	sw	a2,700(ra)

000011a8 <inst_209>:
    11a8:	33333537          	lui	a0,0x33333
    11ac:	33350513          	addi	a0,a0,819 # 33333333 <_end+0x3332f793>
    11b0:	0000b5b7          	lui	a1,0xb
    11b4:	50558593          	addi	a1,a1,1285 # b505 <_end+0x7965>
    11b8:	00b50633          	add	a2,a0,a1
    11bc:	2cc0a023          	sw	a2,704(ra)

000011c0 <inst_210>:
    11c0:	66666537          	lui	a0,0x66666
    11c4:	66650513          	addi	a0,a0,1638 # 66666666 <_end+0x66662ac6>
    11c8:	00300593          	li	a1,3
    11cc:	00b50633          	add	a2,a0,a1
    11d0:	2cc0a223          	sw	a2,708(ra)

000011d4 <inst_211>:
    11d4:	66666537          	lui	a0,0x66666
    11d8:	66650513          	addi	a0,a0,1638 # 66666666 <_end+0x66662ac6>
    11dc:	555555b7          	lui	a1,0x55555
    11e0:	55558593          	addi	a1,a1,1365 # 55555555 <_end+0x555519b5>
    11e4:	00b50633          	add	a2,a0,a1
    11e8:	2cc0a423          	sw	a2,712(ra)

000011ec <inst_212>:
    11ec:	66666537          	lui	a0,0x66666
    11f0:	66650513          	addi	a0,a0,1638 # 66666666 <_end+0x66662ac6>
    11f4:	aaaab5b7          	lui	a1,0xaaaab
    11f8:	aaa58593          	addi	a1,a1,-1366 # aaaaaaaa <_end+0xaaaa6f0a>
    11fc:	00b50633          	add	a2,a0,a1
    1200:	2cc0a623          	sw	a2,716(ra)

00001204 <inst_213>:
    1204:	66666537          	lui	a0,0x66666
    1208:	66650513          	addi	a0,a0,1638 # 66666666 <_end+0x66662ac6>
    120c:	00500593          	li	a1,5
    1210:	00b50633          	add	a2,a0,a1
    1214:	2cc0a823          	sw	a2,720(ra)

00001218 <inst_214>:
    1218:	66666537          	lui	a0,0x66666
    121c:	66650513          	addi	a0,a0,1638 # 66666666 <_end+0x66662ac6>
    1220:	333335b7          	lui	a1,0x33333
    1224:	33358593          	addi	a1,a1,819 # 33333333 <_end+0x3332f793>
    1228:	00b50633          	add	a2,a0,a1
    122c:	2cc0aa23          	sw	a2,724(ra)

00001230 <inst_215>:
    1230:	66666537          	lui	a0,0x66666
    1234:	66650513          	addi	a0,a0,1638 # 66666666 <_end+0x66662ac6>
    1238:	666665b7          	lui	a1,0x66666
    123c:	66658593          	addi	a1,a1,1638 # 66666666 <_end+0x66662ac6>
    1240:	00b50633          	add	a2,a0,a1
    1244:	2cc0ac23          	sw	a2,728(ra)

00001248 <inst_216>:
    1248:	66666537          	lui	a0,0x66666
    124c:	66650513          	addi	a0,a0,1638 # 66666666 <_end+0x66662ac6>
    1250:	ffff55b7          	lui	a1,0xffff5
    1254:	afc58593          	addi	a1,a1,-1284 # ffff4afc <_end+0xffff0f5c>
    1258:	00b50633          	add	a2,a0,a1
    125c:	2cc0ae23          	sw	a2,732(ra)

00001260 <inst_217>:
    1260:	66666537          	lui	a0,0x66666
    1264:	66650513          	addi	a0,a0,1638 # 66666666 <_end+0x66662ac6>
    1268:	0000b5b7          	lui	a1,0xb
    126c:	50458593          	addi	a1,a1,1284 # b504 <_end+0x7964>
    1270:	00b50633          	add	a2,a0,a1
    1274:	2ec0a023          	sw	a2,736(ra)

00001278 <inst_218>:
    1278:	66666537          	lui	a0,0x66666
    127c:	66650513          	addi	a0,a0,1638 # 66666666 <_end+0x66662ac6>
    1280:	00200593          	li	a1,2
    1284:	00b50633          	add	a2,a0,a1
    1288:	2ec0a223          	sw	a2,740(ra)

0000128c <inst_219>:
    128c:	66666537          	lui	a0,0x66666
    1290:	66650513          	addi	a0,a0,1638 # 66666666 <_end+0x66662ac6>
    1294:	555555b7          	lui	a1,0x55555
    1298:	55458593          	addi	a1,a1,1364 # 55555554 <_end+0x555519b4>
    129c:	00b50633          	add	a2,a0,a1
    12a0:	2ec0a423          	sw	a2,744(ra)

000012a4 <inst_220>:
    12a4:	66666537          	lui	a0,0x66666
    12a8:	66650513          	addi	a0,a0,1638 # 66666666 <_end+0x66662ac6>
    12ac:	00000593          	li	a1,0
    12b0:	00b50633          	add	a2,a0,a1
    12b4:	2ec0a623          	sw	a2,748(ra)

000012b8 <inst_221>:
    12b8:	66666537          	lui	a0,0x66666
    12bc:	66650513          	addi	a0,a0,1638 # 66666666 <_end+0x66662ac6>
    12c0:	00400593          	li	a1,4
    12c4:	00b50633          	add	a2,a0,a1
    12c8:	2ec0a823          	sw	a2,752(ra)

000012cc <inst_222>:
    12cc:	66666537          	lui	a0,0x66666
    12d0:	66650513          	addi	a0,a0,1638 # 66666666 <_end+0x66662ac6>
    12d4:	333335b7          	lui	a1,0x33333
    12d8:	33258593          	addi	a1,a1,818 # 33333332 <_end+0x3332f792>
    12dc:	00b50633          	add	a2,a0,a1
    12e0:	2ec0aa23          	sw	a2,756(ra)

000012e4 <inst_223>:
    12e4:	66666537          	lui	a0,0x66666
    12e8:	66650513          	addi	a0,a0,1638 # 66666666 <_end+0x66662ac6>
    12ec:	666665b7          	lui	a1,0x66666
    12f0:	66558593          	addi	a1,a1,1637 # 66666665 <_end+0x66662ac5>
    12f4:	00b50633          	add	a2,a0,a1
    12f8:	2ec0ac23          	sw	a2,760(ra)

000012fc <inst_224>:
    12fc:	66666537          	lui	a0,0x66666
    1300:	66650513          	addi	a0,a0,1638 # 66666666 <_end+0x66662ac6>
    1304:	0000b5b7          	lui	a1,0xb
    1308:	50358593          	addi	a1,a1,1283 # b503 <_end+0x7963>
    130c:	00b50633          	add	a2,a0,a1
    1310:	2ec0ae23          	sw	a2,764(ra)

00001314 <inst_225>:
    1314:	66666537          	lui	a0,0x66666
    1318:	66650513          	addi	a0,a0,1638 # 66666666 <_end+0x66662ac6>
    131c:	555555b7          	lui	a1,0x55555
    1320:	55658593          	addi	a1,a1,1366 # 55555556 <_end+0x555519b6>
    1324:	00b50633          	add	a2,a0,a1
    1328:	30c0a023          	sw	a2,768(ra)

0000132c <inst_226>:
    132c:	66666537          	lui	a0,0x66666
    1330:	66650513          	addi	a0,a0,1638 # 66666666 <_end+0x66662ac6>
    1334:	aaaab5b7          	lui	a1,0xaaaab
    1338:	aab58593          	addi	a1,a1,-1365 # aaaaaaab <_end+0xaaaa6f0b>
    133c:	00b50633          	add	a2,a0,a1
    1340:	30c0a223          	sw	a2,772(ra)

00001344 <inst_227>:
    1344:	66666537          	lui	a0,0x66666
    1348:	66650513          	addi	a0,a0,1638 # 66666666 <_end+0x66662ac6>
    134c:	00600593          	li	a1,6
    1350:	00b50633          	add	a2,a0,a1
    1354:	30c0a423          	sw	a2,776(ra)

00001358 <inst_228>:
    1358:	66666537          	lui	a0,0x66666
    135c:	66650513          	addi	a0,a0,1638 # 66666666 <_end+0x66662ac6>
    1360:	333335b7          	lui	a1,0x33333
    1364:	33458593          	addi	a1,a1,820 # 33333334 <_end+0x3332f794>
    1368:	00b50633          	add	a2,a0,a1
    136c:	30c0a623          	sw	a2,780(ra)

00001370 <inst_229>:
    1370:	66666537          	lui	a0,0x66666
    1374:	66650513          	addi	a0,a0,1638 # 66666666 <_end+0x66662ac6>
    1378:	666665b7          	lui	a1,0x66666
    137c:	66758593          	addi	a1,a1,1639 # 66666667 <_end+0x66662ac7>
    1380:	00b50633          	add	a2,a0,a1
    1384:	30c0a823          	sw	a2,784(ra)

00001388 <inst_230>:
    1388:	66666537          	lui	a0,0x66666
    138c:	66650513          	addi	a0,a0,1638 # 66666666 <_end+0x66662ac6>
    1390:	ffff55b7          	lui	a1,0xffff5
    1394:	afd58593          	addi	a1,a1,-1283 # ffff4afd <_end+0xffff0f5d>
    1398:	00b50633          	add	a2,a0,a1
    139c:	30c0aa23          	sw	a2,788(ra)

000013a0 <inst_231>:
    13a0:	66666537          	lui	a0,0x66666
    13a4:	66650513          	addi	a0,a0,1638 # 66666666 <_end+0x66662ac6>
    13a8:	0000b5b7          	lui	a1,0xb
    13ac:	50558593          	addi	a1,a1,1285 # b505 <_end+0x7965>
    13b0:	00b50633          	add	a2,a0,a1
    13b4:	30c0ac23          	sw	a2,792(ra)

000013b8 <inst_232>:
    13b8:	ffff5537          	lui	a0,0xffff5
    13bc:	afc50513          	addi	a0,a0,-1284 # ffff4afc <_end+0xffff0f5c>
    13c0:	00300593          	li	a1,3
    13c4:	00b50633          	add	a2,a0,a1
    13c8:	30c0ae23          	sw	a2,796(ra)

000013cc <inst_233>:
    13cc:	ffff5537          	lui	a0,0xffff5
    13d0:	afc50513          	addi	a0,a0,-1284 # ffff4afc <_end+0xffff0f5c>
    13d4:	555555b7          	lui	a1,0x55555
    13d8:	55558593          	addi	a1,a1,1365 # 55555555 <_end+0x555519b5>
    13dc:	00b50633          	add	a2,a0,a1
    13e0:	32c0a023          	sw	a2,800(ra)

000013e4 <inst_234>:
    13e4:	ffff5537          	lui	a0,0xffff5
    13e8:	afc50513          	addi	a0,a0,-1284 # ffff4afc <_end+0xffff0f5c>
    13ec:	aaaab5b7          	lui	a1,0xaaaab
    13f0:	aaa58593          	addi	a1,a1,-1366 # aaaaaaaa <_end+0xaaaa6f0a>
    13f4:	00b50633          	add	a2,a0,a1
    13f8:	32c0a223          	sw	a2,804(ra)

000013fc <inst_235>:
    13fc:	ffff5537          	lui	a0,0xffff5
    1400:	afc50513          	addi	a0,a0,-1284 # ffff4afc <_end+0xffff0f5c>
    1404:	00500593          	li	a1,5
    1408:	00b50633          	add	a2,a0,a1
    140c:	32c0a423          	sw	a2,808(ra)

00001410 <inst_236>:
    1410:	ffff5537          	lui	a0,0xffff5
    1414:	afc50513          	addi	a0,a0,-1284 # ffff4afc <_end+0xffff0f5c>
    1418:	333335b7          	lui	a1,0x33333
    141c:	33358593          	addi	a1,a1,819 # 33333333 <_end+0x3332f793>
    1420:	00b50633          	add	a2,a0,a1
    1424:	32c0a623          	sw	a2,812(ra)

00001428 <inst_237>:
    1428:	ffff5537          	lui	a0,0xffff5
    142c:	afc50513          	addi	a0,a0,-1284 # ffff4afc <_end+0xffff0f5c>
    1430:	666665b7          	lui	a1,0x66666
    1434:	66658593          	addi	a1,a1,1638 # 66666666 <_end+0x66662ac6>
    1438:	00b50633          	add	a2,a0,a1
    143c:	32c0a823          	sw	a2,816(ra)

00001440 <inst_238>:
    1440:	ffff5537          	lui	a0,0xffff5
    1444:	afc50513          	addi	a0,a0,-1284 # ffff4afc <_end+0xffff0f5c>
    1448:	ffff55b7          	lui	a1,0xffff5
    144c:	afc58593          	addi	a1,a1,-1284 # ffff4afc <_end+0xffff0f5c>
    1450:	00b50633          	add	a2,a0,a1
    1454:	32c0aa23          	sw	a2,820(ra)

00001458 <inst_239>:
    1458:	ffff5537          	lui	a0,0xffff5
    145c:	afc50513          	addi	a0,a0,-1284 # ffff4afc <_end+0xffff0f5c>
    1460:	0000b5b7          	lui	a1,0xb
    1464:	50458593          	addi	a1,a1,1284 # b504 <_end+0x7964>
    1468:	00b50633          	add	a2,a0,a1
    146c:	32c0ac23          	sw	a2,824(ra)

00001470 <inst_240>:
    1470:	ffff5537          	lui	a0,0xffff5
    1474:	afc50513          	addi	a0,a0,-1284 # ffff4afc <_end+0xffff0f5c>
    1478:	00200593          	li	a1,2
    147c:	00b50633          	add	a2,a0,a1
    1480:	32c0ae23          	sw	a2,828(ra)

00001484 <inst_241>:
    1484:	ffff5537          	lui	a0,0xffff5
    1488:	afc50513          	addi	a0,a0,-1284 # ffff4afc <_end+0xffff0f5c>
    148c:	555555b7          	lui	a1,0x55555
    1490:	55458593          	addi	a1,a1,1364 # 55555554 <_end+0x555519b4>
    1494:	00b50633          	add	a2,a0,a1
    1498:	34c0a023          	sw	a2,832(ra)

0000149c <inst_242>:
    149c:	ffff5537          	lui	a0,0xffff5
    14a0:	afc50513          	addi	a0,a0,-1284 # ffff4afc <_end+0xffff0f5c>
    14a4:	00000593          	li	a1,0
    14a8:	00b50633          	add	a2,a0,a1
    14ac:	34c0a223          	sw	a2,836(ra)

000014b0 <inst_243>:
    14b0:	ffff5537          	lui	a0,0xffff5
    14b4:	afc50513          	addi	a0,a0,-1284 # ffff4afc <_end+0xffff0f5c>
    14b8:	00400593          	li	a1,4
    14bc:	00b50633          	add	a2,a0,a1
    14c0:	34c0a423          	sw	a2,840(ra)

000014c4 <inst_244>:
    14c4:	ffff5537          	lui	a0,0xffff5
    14c8:	afc50513          	addi	a0,a0,-1284 # ffff4afc <_end+0xffff0f5c>
    14cc:	333335b7          	lui	a1,0x33333
    14d0:	33258593          	addi	a1,a1,818 # 33333332 <_end+0x3332f792>
    14d4:	00b50633          	add	a2,a0,a1
    14d8:	34c0a623          	sw	a2,844(ra)

000014dc <inst_245>:
    14dc:	ffff5537          	lui	a0,0xffff5
    14e0:	afc50513          	addi	a0,a0,-1284 # ffff4afc <_end+0xffff0f5c>
    14e4:	666665b7          	lui	a1,0x66666
    14e8:	66558593          	addi	a1,a1,1637 # 66666665 <_end+0x66662ac5>
    14ec:	00b50633          	add	a2,a0,a1
    14f0:	34c0a823          	sw	a2,848(ra)

000014f4 <inst_246>:
    14f4:	ffff5537          	lui	a0,0xffff5
    14f8:	afc50513          	addi	a0,a0,-1284 # ffff4afc <_end+0xffff0f5c>
    14fc:	0000b5b7          	lui	a1,0xb
    1500:	50358593          	addi	a1,a1,1283 # b503 <_end+0x7963>
    1504:	00b50633          	add	a2,a0,a1
    1508:	34c0aa23          	sw	a2,852(ra)

0000150c <inst_247>:
    150c:	ffff5537          	lui	a0,0xffff5
    1510:	afc50513          	addi	a0,a0,-1284 # ffff4afc <_end+0xffff0f5c>
    1514:	555555b7          	lui	a1,0x55555
    1518:	55658593          	addi	a1,a1,1366 # 55555556 <_end+0x555519b6>
    151c:	00b50633          	add	a2,a0,a1
    1520:	34c0ac23          	sw	a2,856(ra)

00001524 <inst_248>:
    1524:	ffff5537          	lui	a0,0xffff5
    1528:	afc50513          	addi	a0,a0,-1284 # ffff4afc <_end+0xffff0f5c>
    152c:	aaaab5b7          	lui	a1,0xaaaab
    1530:	aab58593          	addi	a1,a1,-1365 # aaaaaaab <_end+0xaaaa6f0b>
    1534:	00b50633          	add	a2,a0,a1
    1538:	34c0ae23          	sw	a2,860(ra)

0000153c <inst_249>:
    153c:	ffff5537          	lui	a0,0xffff5
    1540:	afc50513          	addi	a0,a0,-1284 # ffff4afc <_end+0xffff0f5c>
    1544:	00600593          	li	a1,6
    1548:	00b50633          	add	a2,a0,a1
    154c:	36c0a023          	sw	a2,864(ra)

00001550 <inst_250>:
    1550:	ffff5537          	lui	a0,0xffff5
    1554:	afc50513          	addi	a0,a0,-1284 # ffff4afc <_end+0xffff0f5c>
    1558:	333335b7          	lui	a1,0x33333
    155c:	33458593          	addi	a1,a1,820 # 33333334 <_end+0x3332f794>
    1560:	00b50633          	add	a2,a0,a1
    1564:	36c0a223          	sw	a2,868(ra)

00001568 <inst_251>:
    1568:	ffff5537          	lui	a0,0xffff5
    156c:	afc50513          	addi	a0,a0,-1284 # ffff4afc <_end+0xffff0f5c>
    1570:	666665b7          	lui	a1,0x66666
    1574:	66758593          	addi	a1,a1,1639 # 66666667 <_end+0x66662ac7>
    1578:	00b50633          	add	a2,a0,a1
    157c:	36c0a423          	sw	a2,872(ra)

00001580 <inst_252>:
    1580:	ffff5537          	lui	a0,0xffff5
    1584:	afc50513          	addi	a0,a0,-1284 # ffff4afc <_end+0xffff0f5c>
    1588:	ffff55b7          	lui	a1,0xffff5
    158c:	afd58593          	addi	a1,a1,-1283 # ffff4afd <_end+0xffff0f5d>
    1590:	00b50633          	add	a2,a0,a1
    1594:	36c0a623          	sw	a2,876(ra)

00001598 <inst_253>:
    1598:	ffff5537          	lui	a0,0xffff5
    159c:	afc50513          	addi	a0,a0,-1284 # ffff4afc <_end+0xffff0f5c>
    15a0:	0000b5b7          	lui	a1,0xb
    15a4:	50558593          	addi	a1,a1,1285 # b505 <_end+0x7965>
    15a8:	00b50633          	add	a2,a0,a1
    15ac:	36c0a823          	sw	a2,880(ra)

000015b0 <inst_254>:
    15b0:	0000b537          	lui	a0,0xb
    15b4:	50450513          	addi	a0,a0,1284 # b504 <_end+0x7964>
    15b8:	00300593          	li	a1,3
    15bc:	00b50633          	add	a2,a0,a1
    15c0:	36c0aa23          	sw	a2,884(ra)

000015c4 <inst_255>:
    15c4:	0000b537          	lui	a0,0xb
    15c8:	50450513          	addi	a0,a0,1284 # b504 <_end+0x7964>
    15cc:	555555b7          	lui	a1,0x55555
    15d0:	55558593          	addi	a1,a1,1365 # 55555555 <_end+0x555519b5>
    15d4:	00b50633          	add	a2,a0,a1
    15d8:	36c0ac23          	sw	a2,888(ra)

000015dc <inst_256>:
    15dc:	0000b537          	lui	a0,0xb
    15e0:	50450513          	addi	a0,a0,1284 # b504 <_end+0x7964>
    15e4:	aaaab5b7          	lui	a1,0xaaaab
    15e8:	aaa58593          	addi	a1,a1,-1366 # aaaaaaaa <_end+0xaaaa6f0a>
    15ec:	00b50633          	add	a2,a0,a1
    15f0:	36c0ae23          	sw	a2,892(ra)

000015f4 <inst_257>:
    15f4:	0000b537          	lui	a0,0xb
    15f8:	50450513          	addi	a0,a0,1284 # b504 <_end+0x7964>
    15fc:	00500593          	li	a1,5
    1600:	00b50633          	add	a2,a0,a1
    1604:	38c0a023          	sw	a2,896(ra)

00001608 <inst_258>:
    1608:	0000b537          	lui	a0,0xb
    160c:	50450513          	addi	a0,a0,1284 # b504 <_end+0x7964>
    1610:	333335b7          	lui	a1,0x33333
    1614:	33358593          	addi	a1,a1,819 # 33333333 <_end+0x3332f793>
    1618:	00b50633          	add	a2,a0,a1
    161c:	38c0a223          	sw	a2,900(ra)

00001620 <inst_259>:
    1620:	0000b537          	lui	a0,0xb
    1624:	50450513          	addi	a0,a0,1284 # b504 <_end+0x7964>
    1628:	666665b7          	lui	a1,0x66666
    162c:	66658593          	addi	a1,a1,1638 # 66666666 <_end+0x66662ac6>
    1630:	00b50633          	add	a2,a0,a1
    1634:	38c0a423          	sw	a2,904(ra)

00001638 <inst_260>:
    1638:	0000b537          	lui	a0,0xb
    163c:	50450513          	addi	a0,a0,1284 # b504 <_end+0x7964>
    1640:	ffff55b7          	lui	a1,0xffff5
    1644:	afc58593          	addi	a1,a1,-1284 # ffff4afc <_end+0xffff0f5c>
    1648:	00b50633          	add	a2,a0,a1
    164c:	38c0a623          	sw	a2,908(ra)

00001650 <inst_261>:
    1650:	0000b537          	lui	a0,0xb
    1654:	50450513          	addi	a0,a0,1284 # b504 <_end+0x7964>
    1658:	0000b5b7          	lui	a1,0xb
    165c:	50458593          	addi	a1,a1,1284 # b504 <_end+0x7964>
    1660:	00b50633          	add	a2,a0,a1
    1664:	38c0a823          	sw	a2,912(ra)

00001668 <inst_262>:
    1668:	0000b537          	lui	a0,0xb
    166c:	50450513          	addi	a0,a0,1284 # b504 <_end+0x7964>
    1670:	00200593          	li	a1,2
    1674:	00b50633          	add	a2,a0,a1
    1678:	38c0aa23          	sw	a2,916(ra)

0000167c <inst_263>:
    167c:	0000b537          	lui	a0,0xb
    1680:	50450513          	addi	a0,a0,1284 # b504 <_end+0x7964>
    1684:	555555b7          	lui	a1,0x55555
    1688:	55458593          	addi	a1,a1,1364 # 55555554 <_end+0x555519b4>
    168c:	00b50633          	add	a2,a0,a1
    1690:	38c0ac23          	sw	a2,920(ra)

00001694 <inst_264>:
    1694:	0000b537          	lui	a0,0xb
    1698:	50450513          	addi	a0,a0,1284 # b504 <_end+0x7964>
    169c:	00000593          	li	a1,0
    16a0:	00b50633          	add	a2,a0,a1
    16a4:	38c0ae23          	sw	a2,924(ra)

000016a8 <inst_265>:
    16a8:	0000b537          	lui	a0,0xb
    16ac:	50450513          	addi	a0,a0,1284 # b504 <_end+0x7964>
    16b0:	00400593          	li	a1,4
    16b4:	00b50633          	add	a2,a0,a1
    16b8:	3ac0a023          	sw	a2,928(ra)

000016bc <inst_266>:
    16bc:	0000b537          	lui	a0,0xb
    16c0:	50450513          	addi	a0,a0,1284 # b504 <_end+0x7964>
    16c4:	333335b7          	lui	a1,0x33333
    16c8:	33258593          	addi	a1,a1,818 # 33333332 <_end+0x3332f792>
    16cc:	00b50633          	add	a2,a0,a1
    16d0:	3ac0a223          	sw	a2,932(ra)

000016d4 <inst_267>:
    16d4:	0000b537          	lui	a0,0xb
    16d8:	50450513          	addi	a0,a0,1284 # b504 <_end+0x7964>
    16dc:	666665b7          	lui	a1,0x66666
    16e0:	66558593          	addi	a1,a1,1637 # 66666665 <_end+0x66662ac5>
    16e4:	00b50633          	add	a2,a0,a1
    16e8:	3ac0a423          	sw	a2,936(ra)

000016ec <inst_268>:
    16ec:	0000b537          	lui	a0,0xb
    16f0:	50450513          	addi	a0,a0,1284 # b504 <_end+0x7964>
    16f4:	0000b5b7          	lui	a1,0xb
    16f8:	50358593          	addi	a1,a1,1283 # b503 <_end+0x7963>
    16fc:	00b50633          	add	a2,a0,a1
    1700:	3ac0a623          	sw	a2,940(ra)

00001704 <inst_269>:
    1704:	0000b537          	lui	a0,0xb
    1708:	50450513          	addi	a0,a0,1284 # b504 <_end+0x7964>
    170c:	555555b7          	lui	a1,0x55555
    1710:	55658593          	addi	a1,a1,1366 # 55555556 <_end+0x555519b6>
    1714:	00b50633          	add	a2,a0,a1
    1718:	3ac0a823          	sw	a2,944(ra)

0000171c <inst_270>:
    171c:	0000b537          	lui	a0,0xb
    1720:	50450513          	addi	a0,a0,1284 # b504 <_end+0x7964>
    1724:	aaaab5b7          	lui	a1,0xaaaab
    1728:	aab58593          	addi	a1,a1,-1365 # aaaaaaab <_end+0xaaaa6f0b>
    172c:	00b50633          	add	a2,a0,a1
    1730:	3ac0aa23          	sw	a2,948(ra)

00001734 <inst_271>:
    1734:	0000b537          	lui	a0,0xb
    1738:	50450513          	addi	a0,a0,1284 # b504 <_end+0x7964>
    173c:	00600593          	li	a1,6
    1740:	00b50633          	add	a2,a0,a1
    1744:	3ac0ac23          	sw	a2,952(ra)

00001748 <inst_272>:
    1748:	0000b537          	lui	a0,0xb
    174c:	50450513          	addi	a0,a0,1284 # b504 <_end+0x7964>
    1750:	333335b7          	lui	a1,0x33333
    1754:	33458593          	addi	a1,a1,820 # 33333334 <_end+0x3332f794>
    1758:	00b50633          	add	a2,a0,a1
    175c:	3ac0ae23          	sw	a2,956(ra)

00001760 <inst_273>:
    1760:	0000b537          	lui	a0,0xb
    1764:	50450513          	addi	a0,a0,1284 # b504 <_end+0x7964>
    1768:	666665b7          	lui	a1,0x66666
    176c:	66758593          	addi	a1,a1,1639 # 66666667 <_end+0x66662ac7>
    1770:	00b50633          	add	a2,a0,a1
    1774:	3cc0a023          	sw	a2,960(ra)

00001778 <inst_274>:
    1778:	0000b537          	lui	a0,0xb
    177c:	50450513          	addi	a0,a0,1284 # b504 <_end+0x7964>
    1780:	ffff55b7          	lui	a1,0xffff5
    1784:	afd58593          	addi	a1,a1,-1283 # ffff4afd <_end+0xffff0f5d>
    1788:	00b50633          	add	a2,a0,a1
    178c:	3cc0a223          	sw	a2,964(ra)

00001790 <inst_275>:
    1790:	0000b537          	lui	a0,0xb
    1794:	50450513          	addi	a0,a0,1284 # b504 <_end+0x7964>
    1798:	0000b5b7          	lui	a1,0xb
    179c:	50558593          	addi	a1,a1,1285 # b505 <_end+0x7965>
    17a0:	00b50633          	add	a2,a0,a1
    17a4:	3cc0a423          	sw	a2,968(ra)

000017a8 <inst_276>:
    17a8:	00200513          	li	a0,2
    17ac:	00300593          	li	a1,3
    17b0:	00b50633          	add	a2,a0,a1
    17b4:	3cc0a623          	sw	a2,972(ra)

000017b8 <inst_277>:
    17b8:	00200513          	li	a0,2
    17bc:	555555b7          	lui	a1,0x55555
    17c0:	55558593          	addi	a1,a1,1365 # 55555555 <_end+0x555519b5>
    17c4:	00b50633          	add	a2,a0,a1
    17c8:	3cc0a823          	sw	a2,976(ra)

000017cc <inst_278>:
    17cc:	00200513          	li	a0,2
    17d0:	aaaab5b7          	lui	a1,0xaaaab
    17d4:	aaa58593          	addi	a1,a1,-1366 # aaaaaaaa <_end+0xaaaa6f0a>
    17d8:	00b50633          	add	a2,a0,a1
    17dc:	3cc0aa23          	sw	a2,980(ra)

000017e0 <inst_279>:
    17e0:	00200513          	li	a0,2
    17e4:	00500593          	li	a1,5
    17e8:	00b50633          	add	a2,a0,a1
    17ec:	3cc0ac23          	sw	a2,984(ra)

000017f0 <inst_280>:
    17f0:	00200513          	li	a0,2
    17f4:	333335b7          	lui	a1,0x33333
    17f8:	33358593          	addi	a1,a1,819 # 33333333 <_end+0x3332f793>
    17fc:	00b50633          	add	a2,a0,a1
    1800:	3cc0ae23          	sw	a2,988(ra)

00001804 <inst_281>:
    1804:	00200513          	li	a0,2
    1808:	666665b7          	lui	a1,0x66666
    180c:	66658593          	addi	a1,a1,1638 # 66666666 <_end+0x66662ac6>
    1810:	00b50633          	add	a2,a0,a1
    1814:	3ec0a023          	sw	a2,992(ra)

00001818 <inst_282>:
    1818:	00200513          	li	a0,2
    181c:	ffff55b7          	lui	a1,0xffff5
    1820:	afc58593          	addi	a1,a1,-1284 # ffff4afc <_end+0xffff0f5c>
    1824:	00b50633          	add	a2,a0,a1
    1828:	3ec0a223          	sw	a2,996(ra)

0000182c <inst_283>:
    182c:	00200513          	li	a0,2
    1830:	0000b5b7          	lui	a1,0xb
    1834:	50458593          	addi	a1,a1,1284 # b504 <_end+0x7964>
    1838:	00b50633          	add	a2,a0,a1
    183c:	3ec0a423          	sw	a2,1000(ra)

00001840 <inst_284>:
    1840:	00200513          	li	a0,2
    1844:	00200593          	li	a1,2
    1848:	00b50633          	add	a2,a0,a1
    184c:	3ec0a623          	sw	a2,1004(ra)

00001850 <inst_285>:
    1850:	00200513          	li	a0,2
    1854:	555555b7          	lui	a1,0x55555
    1858:	55458593          	addi	a1,a1,1364 # 55555554 <_end+0x555519b4>
    185c:	00b50633          	add	a2,a0,a1
    1860:	3ec0a823          	sw	a2,1008(ra)

00001864 <inst_286>:
    1864:	00200513          	li	a0,2
    1868:	00000593          	li	a1,0
    186c:	00b50633          	add	a2,a0,a1
    1870:	3ec0aa23          	sw	a2,1012(ra)

00001874 <inst_287>:
    1874:	00200513          	li	a0,2
    1878:	00400593          	li	a1,4
    187c:	00b50633          	add	a2,a0,a1
    1880:	3ec0ac23          	sw	a2,1016(ra)

00001884 <inst_288>:
    1884:	00200513          	li	a0,2
    1888:	333335b7          	lui	a1,0x33333
    188c:	33258593          	addi	a1,a1,818 # 33333332 <_end+0x3332f792>
    1890:	00b50633          	add	a2,a0,a1
    1894:	3ec0ae23          	sw	a2,1020(ra)

00001898 <inst_289>:
    1898:	00200513          	li	a0,2
    189c:	666665b7          	lui	a1,0x66666
    18a0:	66558593          	addi	a1,a1,1637 # 66666665 <_end+0x66662ac5>
    18a4:	00b50633          	add	a2,a0,a1
    18a8:	40c0a023          	sw	a2,1024(ra)

000018ac <inst_290>:
    18ac:	00200513          	li	a0,2
    18b0:	0000b5b7          	lui	a1,0xb
    18b4:	50358593          	addi	a1,a1,1283 # b503 <_end+0x7963>
    18b8:	00b50633          	add	a2,a0,a1
    18bc:	40c0a223          	sw	a2,1028(ra)

000018c0 <inst_291>:
    18c0:	00200513          	li	a0,2
    18c4:	555555b7          	lui	a1,0x55555
    18c8:	55658593          	addi	a1,a1,1366 # 55555556 <_end+0x555519b6>
    18cc:	00b50633          	add	a2,a0,a1
    18d0:	40c0a423          	sw	a2,1032(ra)

000018d4 <inst_292>:
    18d4:	00200513          	li	a0,2
    18d8:	aaaab5b7          	lui	a1,0xaaaab
    18dc:	aab58593          	addi	a1,a1,-1365 # aaaaaaab <_end+0xaaaa6f0b>
    18e0:	00b50633          	add	a2,a0,a1
    18e4:	40c0a623          	sw	a2,1036(ra)

000018e8 <inst_293>:
    18e8:	00200513          	li	a0,2
    18ec:	00600593          	li	a1,6
    18f0:	00b50633          	add	a2,a0,a1
    18f4:	40c0a823          	sw	a2,1040(ra)

000018f8 <inst_294>:
    18f8:	00200513          	li	a0,2
    18fc:	333335b7          	lui	a1,0x33333
    1900:	33458593          	addi	a1,a1,820 # 33333334 <_end+0x3332f794>
    1904:	00b50633          	add	a2,a0,a1
    1908:	40c0aa23          	sw	a2,1044(ra)

0000190c <inst_295>:
    190c:	00200513          	li	a0,2
    1910:	666665b7          	lui	a1,0x66666
    1914:	66758593          	addi	a1,a1,1639 # 66666667 <_end+0x66662ac7>
    1918:	00b50633          	add	a2,a0,a1
    191c:	40c0ac23          	sw	a2,1048(ra)

00001920 <inst_296>:
    1920:	00200513          	li	a0,2
    1924:	ffff55b7          	lui	a1,0xffff5
    1928:	afd58593          	addi	a1,a1,-1283 # ffff4afd <_end+0xffff0f5d>
    192c:	00b50633          	add	a2,a0,a1
    1930:	40c0ae23          	sw	a2,1052(ra)

00001934 <inst_297>:
    1934:	00200513          	li	a0,2
    1938:	0000b5b7          	lui	a1,0xb
    193c:	50558593          	addi	a1,a1,1285 # b505 <_end+0x7965>
    1940:	00b50633          	add	a2,a0,a1
    1944:	42c0a023          	sw	a2,1056(ra)

00001948 <inst_298>:
    1948:	55555537          	lui	a0,0x55555
    194c:	55450513          	addi	a0,a0,1364 # 55555554 <_end+0x555519b4>
    1950:	00300593          	li	a1,3
    1954:	00b50633          	add	a2,a0,a1
    1958:	42c0a223          	sw	a2,1060(ra)

0000195c <inst_299>:
    195c:	55555537          	lui	a0,0x55555
    1960:	55450513          	addi	a0,a0,1364 # 55555554 <_end+0x555519b4>
    1964:	555555b7          	lui	a1,0x55555
    1968:	55558593          	addi	a1,a1,1365 # 55555555 <_end+0x555519b5>
    196c:	00b50633          	add	a2,a0,a1
    1970:	42c0a423          	sw	a2,1064(ra)

00001974 <inst_300>:
    1974:	55555537          	lui	a0,0x55555
    1978:	55450513          	addi	a0,a0,1364 # 55555554 <_end+0x555519b4>
    197c:	aaaab5b7          	lui	a1,0xaaaab
    1980:	aaa58593          	addi	a1,a1,-1366 # aaaaaaaa <_end+0xaaaa6f0a>
    1984:	00b50633          	add	a2,a0,a1
    1988:	42c0a623          	sw	a2,1068(ra)

0000198c <inst_301>:
    198c:	55555537          	lui	a0,0x55555
    1990:	55450513          	addi	a0,a0,1364 # 55555554 <_end+0x555519b4>
    1994:	00500593          	li	a1,5
    1998:	00b50633          	add	a2,a0,a1
    199c:	42c0a823          	sw	a2,1072(ra)

000019a0 <inst_302>:
    19a0:	55555537          	lui	a0,0x55555
    19a4:	55450513          	addi	a0,a0,1364 # 55555554 <_end+0x555519b4>
    19a8:	333335b7          	lui	a1,0x33333
    19ac:	33358593          	addi	a1,a1,819 # 33333333 <_end+0x3332f793>
    19b0:	00b50633          	add	a2,a0,a1
    19b4:	42c0aa23          	sw	a2,1076(ra)

000019b8 <inst_303>:
    19b8:	55555537          	lui	a0,0x55555
    19bc:	55450513          	addi	a0,a0,1364 # 55555554 <_end+0x555519b4>
    19c0:	666665b7          	lui	a1,0x66666
    19c4:	66658593          	addi	a1,a1,1638 # 66666666 <_end+0x66662ac6>
    19c8:	00b50633          	add	a2,a0,a1
    19cc:	42c0ac23          	sw	a2,1080(ra)

000019d0 <inst_304>:
    19d0:	55555537          	lui	a0,0x55555
    19d4:	55450513          	addi	a0,a0,1364 # 55555554 <_end+0x555519b4>
    19d8:	ffff55b7          	lui	a1,0xffff5
    19dc:	afc58593          	addi	a1,a1,-1284 # ffff4afc <_end+0xffff0f5c>
    19e0:	00b50633          	add	a2,a0,a1
    19e4:	42c0ae23          	sw	a2,1084(ra)

000019e8 <inst_305>:
    19e8:	55555537          	lui	a0,0x55555
    19ec:	55450513          	addi	a0,a0,1364 # 55555554 <_end+0x555519b4>
    19f0:	0000b5b7          	lui	a1,0xb
    19f4:	50458593          	addi	a1,a1,1284 # b504 <_end+0x7964>
    19f8:	00b50633          	add	a2,a0,a1
    19fc:	44c0a023          	sw	a2,1088(ra)

00001a00 <inst_306>:
    1a00:	55555537          	lui	a0,0x55555
    1a04:	55450513          	addi	a0,a0,1364 # 55555554 <_end+0x555519b4>
    1a08:	00200593          	li	a1,2
    1a0c:	00b50633          	add	a2,a0,a1
    1a10:	44c0a223          	sw	a2,1092(ra)

00001a14 <inst_307>:
    1a14:	55555537          	lui	a0,0x55555
    1a18:	55450513          	addi	a0,a0,1364 # 55555554 <_end+0x555519b4>
    1a1c:	555555b7          	lui	a1,0x55555
    1a20:	55458593          	addi	a1,a1,1364 # 55555554 <_end+0x555519b4>
    1a24:	00b50633          	add	a2,a0,a1
    1a28:	44c0a423          	sw	a2,1096(ra)

00001a2c <inst_308>:
    1a2c:	55555537          	lui	a0,0x55555
    1a30:	55450513          	addi	a0,a0,1364 # 55555554 <_end+0x555519b4>
    1a34:	00000593          	li	a1,0
    1a38:	00b50633          	add	a2,a0,a1
    1a3c:	44c0a623          	sw	a2,1100(ra)

00001a40 <inst_309>:
    1a40:	55555537          	lui	a0,0x55555
    1a44:	55450513          	addi	a0,a0,1364 # 55555554 <_end+0x555519b4>
    1a48:	00400593          	li	a1,4
    1a4c:	00b50633          	add	a2,a0,a1
    1a50:	44c0a823          	sw	a2,1104(ra)

00001a54 <inst_310>:
    1a54:	55555537          	lui	a0,0x55555
    1a58:	55450513          	addi	a0,a0,1364 # 55555554 <_end+0x555519b4>
    1a5c:	333335b7          	lui	a1,0x33333
    1a60:	33258593          	addi	a1,a1,818 # 33333332 <_end+0x3332f792>
    1a64:	00b50633          	add	a2,a0,a1
    1a68:	44c0aa23          	sw	a2,1108(ra)

00001a6c <inst_311>:
    1a6c:	55555537          	lui	a0,0x55555
    1a70:	55450513          	addi	a0,a0,1364 # 55555554 <_end+0x555519b4>
    1a74:	666665b7          	lui	a1,0x66666
    1a78:	66558593          	addi	a1,a1,1637 # 66666665 <_end+0x66662ac5>
    1a7c:	00b50633          	add	a2,a0,a1
    1a80:	44c0ac23          	sw	a2,1112(ra)

00001a84 <inst_312>:
    1a84:	55555537          	lui	a0,0x55555
    1a88:	55450513          	addi	a0,a0,1364 # 55555554 <_end+0x555519b4>
    1a8c:	0000b5b7          	lui	a1,0xb
    1a90:	50358593          	addi	a1,a1,1283 # b503 <_end+0x7963>
    1a94:	00b50633          	add	a2,a0,a1
    1a98:	44c0ae23          	sw	a2,1116(ra)

00001a9c <inst_313>:
    1a9c:	55555537          	lui	a0,0x55555
    1aa0:	55450513          	addi	a0,a0,1364 # 55555554 <_end+0x555519b4>
    1aa4:	555555b7          	lui	a1,0x55555
    1aa8:	55658593          	addi	a1,a1,1366 # 55555556 <_end+0x555519b6>
    1aac:	00b50633          	add	a2,a0,a1
    1ab0:	46c0a023          	sw	a2,1120(ra)

00001ab4 <inst_314>:
    1ab4:	55555537          	lui	a0,0x55555
    1ab8:	55450513          	addi	a0,a0,1364 # 55555554 <_end+0x555519b4>
    1abc:	aaaab5b7          	lui	a1,0xaaaab
    1ac0:	aab58593          	addi	a1,a1,-1365 # aaaaaaab <_end+0xaaaa6f0b>
    1ac4:	00b50633          	add	a2,a0,a1
    1ac8:	46c0a223          	sw	a2,1124(ra)

00001acc <inst_315>:
    1acc:	55555537          	lui	a0,0x55555
    1ad0:	55450513          	addi	a0,a0,1364 # 55555554 <_end+0x555519b4>
    1ad4:	00600593          	li	a1,6
    1ad8:	00b50633          	add	a2,a0,a1
    1adc:	46c0a423          	sw	a2,1128(ra)

00001ae0 <inst_316>:
    1ae0:	55555537          	lui	a0,0x55555
    1ae4:	55450513          	addi	a0,a0,1364 # 55555554 <_end+0x555519b4>
    1ae8:	333335b7          	lui	a1,0x33333
    1aec:	33458593          	addi	a1,a1,820 # 33333334 <_end+0x3332f794>
    1af0:	00b50633          	add	a2,a0,a1
    1af4:	46c0a623          	sw	a2,1132(ra)

00001af8 <inst_317>:
    1af8:	55555537          	lui	a0,0x55555
    1afc:	55450513          	addi	a0,a0,1364 # 55555554 <_end+0x555519b4>
    1b00:	666665b7          	lui	a1,0x66666
    1b04:	66758593          	addi	a1,a1,1639 # 66666667 <_end+0x66662ac7>
    1b08:	00b50633          	add	a2,a0,a1
    1b0c:	46c0a823          	sw	a2,1136(ra)

00001b10 <inst_318>:
    1b10:	55555537          	lui	a0,0x55555
    1b14:	55450513          	addi	a0,a0,1364 # 55555554 <_end+0x555519b4>
    1b18:	ffff55b7          	lui	a1,0xffff5
    1b1c:	afd58593          	addi	a1,a1,-1283 # ffff4afd <_end+0xffff0f5d>
    1b20:	00b50633          	add	a2,a0,a1
    1b24:	46c0aa23          	sw	a2,1140(ra)

00001b28 <inst_319>:
    1b28:	55555537          	lui	a0,0x55555
    1b2c:	55450513          	addi	a0,a0,1364 # 55555554 <_end+0x555519b4>
    1b30:	0000b5b7          	lui	a1,0xb
    1b34:	50558593          	addi	a1,a1,1285 # b505 <_end+0x7965>
    1b38:	00b50633          	add	a2,a0,a1
    1b3c:	46c0ac23          	sw	a2,1144(ra)

00001b40 <inst_320>:
    1b40:	00000513          	li	a0,0
    1b44:	00300593          	li	a1,3
    1b48:	00b50633          	add	a2,a0,a1
    1b4c:	46c0ae23          	sw	a2,1148(ra)

00001b50 <inst_321>:
    1b50:	00000513          	li	a0,0
    1b54:	555555b7          	lui	a1,0x55555
    1b58:	55558593          	addi	a1,a1,1365 # 55555555 <_end+0x555519b5>
    1b5c:	00b50633          	add	a2,a0,a1
    1b60:	48c0a023          	sw	a2,1152(ra)

00001b64 <inst_322>:
    1b64:	00000513          	li	a0,0
    1b68:	aaaab5b7          	lui	a1,0xaaaab
    1b6c:	aaa58593          	addi	a1,a1,-1366 # aaaaaaaa <_end+0xaaaa6f0a>
    1b70:	00b50633          	add	a2,a0,a1
    1b74:	48c0a223          	sw	a2,1156(ra)

00001b78 <inst_323>:
    1b78:	00000513          	li	a0,0
    1b7c:	00500593          	li	a1,5
    1b80:	00b50633          	add	a2,a0,a1
    1b84:	48c0a423          	sw	a2,1160(ra)

00001b88 <inst_324>:
    1b88:	00000513          	li	a0,0
    1b8c:	333335b7          	lui	a1,0x33333
    1b90:	33358593          	addi	a1,a1,819 # 33333333 <_end+0x3332f793>
    1b94:	00b50633          	add	a2,a0,a1
    1b98:	48c0a623          	sw	a2,1164(ra)

00001b9c <inst_325>:
    1b9c:	00000513          	li	a0,0
    1ba0:	666665b7          	lui	a1,0x66666
    1ba4:	66658593          	addi	a1,a1,1638 # 66666666 <_end+0x66662ac6>
    1ba8:	00b50633          	add	a2,a0,a1
    1bac:	48c0a823          	sw	a2,1168(ra)

00001bb0 <inst_326>:
    1bb0:	00000513          	li	a0,0
    1bb4:	ffff55b7          	lui	a1,0xffff5
    1bb8:	afc58593          	addi	a1,a1,-1284 # ffff4afc <_end+0xffff0f5c>
    1bbc:	00b50633          	add	a2,a0,a1
    1bc0:	48c0aa23          	sw	a2,1172(ra)

00001bc4 <inst_327>:
    1bc4:	00000513          	li	a0,0
    1bc8:	0000b5b7          	lui	a1,0xb
    1bcc:	50458593          	addi	a1,a1,1284 # b504 <_end+0x7964>
    1bd0:	00b50633          	add	a2,a0,a1
    1bd4:	48c0ac23          	sw	a2,1176(ra)

00001bd8 <inst_328>:
    1bd8:	aaaab537          	lui	a0,0xaaaab
    1bdc:	aab50513          	addi	a0,a0,-1365 # aaaaaaab <_end+0xaaaa6f0b>
    1be0:	aaaab5b7          	lui	a1,0xaaaab
    1be4:	aab58593          	addi	a1,a1,-1365 # aaaaaaab <_end+0xaaaa6f0b>
    1be8:	00b50633          	add	a2,a0,a1
    1bec:	48c0ae23          	sw	a2,1180(ra)

00001bf0 <inst_329>:
    1bf0:	aaaab537          	lui	a0,0xaaaab
    1bf4:	aab50513          	addi	a0,a0,-1365 # aaaaaaab <_end+0xaaaa6f0b>
    1bf8:	00600593          	li	a1,6
    1bfc:	00b50633          	add	a2,a0,a1
    1c00:	4ac0a023          	sw	a2,1184(ra)

00001c04 <inst_330>:
    1c04:	aaaab537          	lui	a0,0xaaaab
    1c08:	aab50513          	addi	a0,a0,-1365 # aaaaaaab <_end+0xaaaa6f0b>
    1c0c:	333335b7          	lui	a1,0x33333
    1c10:	33458593          	addi	a1,a1,820 # 33333334 <_end+0x3332f794>
    1c14:	00b50633          	add	a2,a0,a1
    1c18:	4ac0a223          	sw	a2,1188(ra)

00001c1c <inst_331>:
    1c1c:	aaaab537          	lui	a0,0xaaaab
    1c20:	aab50513          	addi	a0,a0,-1365 # aaaaaaab <_end+0xaaaa6f0b>
    1c24:	666665b7          	lui	a1,0x66666
    1c28:	66758593          	addi	a1,a1,1639 # 66666667 <_end+0x66662ac7>
    1c2c:	00b50633          	add	a2,a0,a1
    1c30:	4ac0a423          	sw	a2,1192(ra)

00001c34 <inst_332>:
    1c34:	aaaab537          	lui	a0,0xaaaab
    1c38:	aab50513          	addi	a0,a0,-1365 # aaaaaaab <_end+0xaaaa6f0b>
    1c3c:	ffff55b7          	lui	a1,0xffff5
    1c40:	afd58593          	addi	a1,a1,-1283 # ffff4afd <_end+0xffff0f5d>
    1c44:	00b50633          	add	a2,a0,a1
    1c48:	4ac0a623          	sw	a2,1196(ra)

00001c4c <inst_333>:
    1c4c:	aaaab537          	lui	a0,0xaaaab
    1c50:	aab50513          	addi	a0,a0,-1365 # aaaaaaab <_end+0xaaaa6f0b>
    1c54:	0000b5b7          	lui	a1,0xb
    1c58:	50558593          	addi	a1,a1,1285 # b505 <_end+0x7965>
    1c5c:	00b50633          	add	a2,a0,a1
    1c60:	4ac0a823          	sw	a2,1200(ra)

00001c64 <inst_334>:
    1c64:	00600513          	li	a0,6
    1c68:	00300593          	li	a1,3
    1c6c:	00b50633          	add	a2,a0,a1
    1c70:	4ac0aa23          	sw	a2,1204(ra)

00001c74 <inst_335>:
    1c74:	00600513          	li	a0,6
    1c78:	555555b7          	lui	a1,0x55555
    1c7c:	55558593          	addi	a1,a1,1365 # 55555555 <_end+0x555519b5>
    1c80:	00b50633          	add	a2,a0,a1
    1c84:	4ac0ac23          	sw	a2,1208(ra)

00001c88 <inst_336>:
    1c88:	00600513          	li	a0,6
    1c8c:	aaaab5b7          	lui	a1,0xaaaab
    1c90:	aaa58593          	addi	a1,a1,-1366 # aaaaaaaa <_end+0xaaaa6f0a>
    1c94:	00b50633          	add	a2,a0,a1
    1c98:	4ac0ae23          	sw	a2,1212(ra)

00001c9c <inst_337>:
    1c9c:	00600513          	li	a0,6
    1ca0:	00500593          	li	a1,5
    1ca4:	00b50633          	add	a2,a0,a1
    1ca8:	4cc0a023          	sw	a2,1216(ra)

00001cac <inst_338>:
    1cac:	00600513          	li	a0,6
    1cb0:	333335b7          	lui	a1,0x33333
    1cb4:	33358593          	addi	a1,a1,819 # 33333333 <_end+0x3332f793>
    1cb8:	00b50633          	add	a2,a0,a1
    1cbc:	4cc0a223          	sw	a2,1220(ra)

00001cc0 <inst_339>:
    1cc0:	00600513          	li	a0,6
    1cc4:	666665b7          	lui	a1,0x66666
    1cc8:	66658593          	addi	a1,a1,1638 # 66666666 <_end+0x66662ac6>
    1ccc:	00b50633          	add	a2,a0,a1
    1cd0:	4cc0a423          	sw	a2,1224(ra)

00001cd4 <inst_340>:
    1cd4:	00600513          	li	a0,6
    1cd8:	ffff55b7          	lui	a1,0xffff5
    1cdc:	afc58593          	addi	a1,a1,-1284 # ffff4afc <_end+0xffff0f5c>
    1ce0:	00b50633          	add	a2,a0,a1
    1ce4:	4cc0a623          	sw	a2,1228(ra)

00001ce8 <inst_341>:
    1ce8:	00600513          	li	a0,6
    1cec:	0000b5b7          	lui	a1,0xb
    1cf0:	50458593          	addi	a1,a1,1284 # b504 <_end+0x7964>
    1cf4:	00b50633          	add	a2,a0,a1
    1cf8:	4cc0a823          	sw	a2,1232(ra)

00001cfc <inst_342>:
    1cfc:	00600513          	li	a0,6
    1d00:	00200593          	li	a1,2
    1d04:	00b50633          	add	a2,a0,a1
    1d08:	4cc0aa23          	sw	a2,1236(ra)

00001d0c <inst_343>:
    1d0c:	00600513          	li	a0,6
    1d10:	555555b7          	lui	a1,0x55555
    1d14:	55458593          	addi	a1,a1,1364 # 55555554 <_end+0x555519b4>
    1d18:	00b50633          	add	a2,a0,a1
    1d1c:	4cc0ac23          	sw	a2,1240(ra)

00001d20 <inst_344>:
    1d20:	00600513          	li	a0,6
    1d24:	00000593          	li	a1,0
    1d28:	00b50633          	add	a2,a0,a1
    1d2c:	4cc0ae23          	sw	a2,1244(ra)

00001d30 <inst_345>:
    1d30:	00600513          	li	a0,6
    1d34:	00400593          	li	a1,4
    1d38:	00b50633          	add	a2,a0,a1
    1d3c:	4ec0a023          	sw	a2,1248(ra)

00001d40 <inst_346>:
    1d40:	00600513          	li	a0,6
    1d44:	333335b7          	lui	a1,0x33333
    1d48:	33258593          	addi	a1,a1,818 # 33333332 <_end+0x3332f792>
    1d4c:	00b50633          	add	a2,a0,a1
    1d50:	4ec0a223          	sw	a2,1252(ra)

00001d54 <inst_347>:
    1d54:	00600513          	li	a0,6
    1d58:	666665b7          	lui	a1,0x66666
    1d5c:	66558593          	addi	a1,a1,1637 # 66666665 <_end+0x66662ac5>
    1d60:	00b50633          	add	a2,a0,a1
    1d64:	4ec0a423          	sw	a2,1256(ra)

00001d68 <inst_348>:
    1d68:	00600513          	li	a0,6
    1d6c:	0000b5b7          	lui	a1,0xb
    1d70:	50358593          	addi	a1,a1,1283 # b503 <_end+0x7963>
    1d74:	00b50633          	add	a2,a0,a1
    1d78:	4ec0a623          	sw	a2,1260(ra)

00001d7c <inst_349>:
    1d7c:	00600513          	li	a0,6
    1d80:	555555b7          	lui	a1,0x55555
    1d84:	55658593          	addi	a1,a1,1366 # 55555556 <_end+0x555519b6>
    1d88:	00b50633          	add	a2,a0,a1
    1d8c:	4ec0a823          	sw	a2,1264(ra)

00001d90 <inst_350>:
    1d90:	00600513          	li	a0,6
    1d94:	aaaab5b7          	lui	a1,0xaaaab
    1d98:	aab58593          	addi	a1,a1,-1365 # aaaaaaab <_end+0xaaaa6f0b>
    1d9c:	00b50633          	add	a2,a0,a1
    1da0:	4ec0aa23          	sw	a2,1268(ra)

00001da4 <inst_351>:
    1da4:	00600513          	li	a0,6
    1da8:	00600593          	li	a1,6
    1dac:	00b50633          	add	a2,a0,a1
    1db0:	4ec0ac23          	sw	a2,1272(ra)

00001db4 <inst_352>:
    1db4:	00600513          	li	a0,6
    1db8:	333335b7          	lui	a1,0x33333
    1dbc:	33458593          	addi	a1,a1,820 # 33333334 <_end+0x3332f794>
    1dc0:	00b50633          	add	a2,a0,a1
    1dc4:	4ec0ae23          	sw	a2,1276(ra)

00001dc8 <inst_353>:
    1dc8:	00600513          	li	a0,6
    1dcc:	666665b7          	lui	a1,0x66666
    1dd0:	66758593          	addi	a1,a1,1639 # 66666667 <_end+0x66662ac7>
    1dd4:	00b50633          	add	a2,a0,a1
    1dd8:	50c0a023          	sw	a2,1280(ra)

00001ddc <inst_354>:
    1ddc:	00600513          	li	a0,6
    1de0:	ffff55b7          	lui	a1,0xffff5
    1de4:	afd58593          	addi	a1,a1,-1283 # ffff4afd <_end+0xffff0f5d>
    1de8:	00b50633          	add	a2,a0,a1
    1dec:	50c0a223          	sw	a2,1284(ra)

00001df0 <inst_355>:
    1df0:	00600513          	li	a0,6
    1df4:	0000b5b7          	lui	a1,0xb
    1df8:	50558593          	addi	a1,a1,1285 # b505 <_end+0x7965>
    1dfc:	00b50633          	add	a2,a0,a1
    1e00:	50c0a423          	sw	a2,1288(ra)

00001e04 <inst_356>:
    1e04:	33333537          	lui	a0,0x33333
    1e08:	33450513          	addi	a0,a0,820 # 33333334 <_end+0x3332f794>
    1e0c:	00300593          	li	a1,3
    1e10:	00b50633          	add	a2,a0,a1
    1e14:	50c0a623          	sw	a2,1292(ra)

00001e18 <inst_357>:
    1e18:	33333537          	lui	a0,0x33333
    1e1c:	33450513          	addi	a0,a0,820 # 33333334 <_end+0x3332f794>
    1e20:	555555b7          	lui	a1,0x55555
    1e24:	55558593          	addi	a1,a1,1365 # 55555555 <_end+0x555519b5>
    1e28:	00b50633          	add	a2,a0,a1
    1e2c:	50c0a823          	sw	a2,1296(ra)

00001e30 <inst_358>:
    1e30:	33333537          	lui	a0,0x33333
    1e34:	33450513          	addi	a0,a0,820 # 33333334 <_end+0x3332f794>
    1e38:	aaaab5b7          	lui	a1,0xaaaab
    1e3c:	aaa58593          	addi	a1,a1,-1366 # aaaaaaaa <_end+0xaaaa6f0a>
    1e40:	00b50633          	add	a2,a0,a1
    1e44:	50c0aa23          	sw	a2,1300(ra)

00001e48 <inst_359>:
    1e48:	33333537          	lui	a0,0x33333
    1e4c:	33450513          	addi	a0,a0,820 # 33333334 <_end+0x3332f794>
    1e50:	00500593          	li	a1,5
    1e54:	00b50633          	add	a2,a0,a1
    1e58:	50c0ac23          	sw	a2,1304(ra)

00001e5c <inst_360>:
    1e5c:	33333537          	lui	a0,0x33333
    1e60:	33450513          	addi	a0,a0,820 # 33333334 <_end+0x3332f794>
    1e64:	333335b7          	lui	a1,0x33333
    1e68:	33358593          	addi	a1,a1,819 # 33333333 <_end+0x3332f793>
    1e6c:	00b50633          	add	a2,a0,a1
    1e70:	50c0ae23          	sw	a2,1308(ra)

00001e74 <inst_361>:
    1e74:	33333537          	lui	a0,0x33333
    1e78:	33450513          	addi	a0,a0,820 # 33333334 <_end+0x3332f794>
    1e7c:	666665b7          	lui	a1,0x66666
    1e80:	66658593          	addi	a1,a1,1638 # 66666666 <_end+0x66662ac6>
    1e84:	00b50633          	add	a2,a0,a1
    1e88:	52c0a023          	sw	a2,1312(ra)

00001e8c <inst_362>:
    1e8c:	33333537          	lui	a0,0x33333
    1e90:	33450513          	addi	a0,a0,820 # 33333334 <_end+0x3332f794>
    1e94:	ffff55b7          	lui	a1,0xffff5
    1e98:	afc58593          	addi	a1,a1,-1284 # ffff4afc <_end+0xffff0f5c>
    1e9c:	00b50633          	add	a2,a0,a1
    1ea0:	52c0a223          	sw	a2,1316(ra)

00001ea4 <inst_363>:
    1ea4:	33333537          	lui	a0,0x33333
    1ea8:	33450513          	addi	a0,a0,820 # 33333334 <_end+0x3332f794>
    1eac:	0000b5b7          	lui	a1,0xb
    1eb0:	50458593          	addi	a1,a1,1284 # b504 <_end+0x7964>
    1eb4:	00b50633          	add	a2,a0,a1
    1eb8:	52c0a423          	sw	a2,1320(ra)

00001ebc <inst_364>:
    1ebc:	33333537          	lui	a0,0x33333
    1ec0:	33450513          	addi	a0,a0,820 # 33333334 <_end+0x3332f794>
    1ec4:	00200593          	li	a1,2
    1ec8:	00b50633          	add	a2,a0,a1
    1ecc:	52c0a623          	sw	a2,1324(ra)

00001ed0 <inst_365>:
    1ed0:	33333537          	lui	a0,0x33333
    1ed4:	33450513          	addi	a0,a0,820 # 33333334 <_end+0x3332f794>
    1ed8:	555555b7          	lui	a1,0x55555
    1edc:	55458593          	addi	a1,a1,1364 # 55555554 <_end+0x555519b4>
    1ee0:	00b50633          	add	a2,a0,a1
    1ee4:	52c0a823          	sw	a2,1328(ra)

00001ee8 <inst_366>:
    1ee8:	33333537          	lui	a0,0x33333
    1eec:	33450513          	addi	a0,a0,820 # 33333334 <_end+0x3332f794>
    1ef0:	00000593          	li	a1,0
    1ef4:	00b50633          	add	a2,a0,a1
    1ef8:	52c0aa23          	sw	a2,1332(ra)

00001efc <inst_367>:
    1efc:	33333537          	lui	a0,0x33333
    1f00:	33450513          	addi	a0,a0,820 # 33333334 <_end+0x3332f794>
    1f04:	00400593          	li	a1,4
    1f08:	00b50633          	add	a2,a0,a1
    1f0c:	52c0ac23          	sw	a2,1336(ra)

00001f10 <inst_368>:
    1f10:	33333537          	lui	a0,0x33333
    1f14:	33450513          	addi	a0,a0,820 # 33333334 <_end+0x3332f794>
    1f18:	333335b7          	lui	a1,0x33333
    1f1c:	33258593          	addi	a1,a1,818 # 33333332 <_end+0x3332f792>
    1f20:	00b50633          	add	a2,a0,a1
    1f24:	52c0ae23          	sw	a2,1340(ra)

00001f28 <inst_369>:
    1f28:	33333537          	lui	a0,0x33333
    1f2c:	33450513          	addi	a0,a0,820 # 33333334 <_end+0x3332f794>
    1f30:	666665b7          	lui	a1,0x66666
    1f34:	66558593          	addi	a1,a1,1637 # 66666665 <_end+0x66662ac5>
    1f38:	00b50633          	add	a2,a0,a1
    1f3c:	54c0a023          	sw	a2,1344(ra)

00001f40 <inst_370>:
    1f40:	33333537          	lui	a0,0x33333
    1f44:	33450513          	addi	a0,a0,820 # 33333334 <_end+0x3332f794>
    1f48:	0000b5b7          	lui	a1,0xb
    1f4c:	50358593          	addi	a1,a1,1283 # b503 <_end+0x7963>
    1f50:	00b50633          	add	a2,a0,a1
    1f54:	54c0a223          	sw	a2,1348(ra)

00001f58 <inst_371>:
    1f58:	33333537          	lui	a0,0x33333
    1f5c:	33450513          	addi	a0,a0,820 # 33333334 <_end+0x3332f794>
    1f60:	555555b7          	lui	a1,0x55555
    1f64:	55658593          	addi	a1,a1,1366 # 55555556 <_end+0x555519b6>
    1f68:	00b50633          	add	a2,a0,a1
    1f6c:	54c0a423          	sw	a2,1352(ra)

00001f70 <inst_372>:
    1f70:	33333537          	lui	a0,0x33333
    1f74:	33450513          	addi	a0,a0,820 # 33333334 <_end+0x3332f794>
    1f78:	aaaab5b7          	lui	a1,0xaaaab
    1f7c:	aab58593          	addi	a1,a1,-1365 # aaaaaaab <_end+0xaaaa6f0b>
    1f80:	00b50633          	add	a2,a0,a1
    1f84:	54c0a623          	sw	a2,1356(ra)

00001f88 <inst_373>:
    1f88:	33333537          	lui	a0,0x33333
    1f8c:	33450513          	addi	a0,a0,820 # 33333334 <_end+0x3332f794>
    1f90:	00600593          	li	a1,6
    1f94:	00b50633          	add	a2,a0,a1
    1f98:	54c0a823          	sw	a2,1360(ra)

00001f9c <inst_374>:
    1f9c:	33333537          	lui	a0,0x33333
    1fa0:	33450513          	addi	a0,a0,820 # 33333334 <_end+0x3332f794>
    1fa4:	333335b7          	lui	a1,0x33333
    1fa8:	33458593          	addi	a1,a1,820 # 33333334 <_end+0x3332f794>
    1fac:	00b50633          	add	a2,a0,a1
    1fb0:	54c0aa23          	sw	a2,1364(ra)

00001fb4 <inst_375>:
    1fb4:	33333537          	lui	a0,0x33333
    1fb8:	33450513          	addi	a0,a0,820 # 33333334 <_end+0x3332f794>
    1fbc:	666665b7          	lui	a1,0x66666
    1fc0:	66758593          	addi	a1,a1,1639 # 66666667 <_end+0x66662ac7>
    1fc4:	00b50633          	add	a2,a0,a1
    1fc8:	54c0ac23          	sw	a2,1368(ra)

00001fcc <inst_376>:
    1fcc:	33333537          	lui	a0,0x33333
    1fd0:	33450513          	addi	a0,a0,820 # 33333334 <_end+0x3332f794>
    1fd4:	ffff55b7          	lui	a1,0xffff5
    1fd8:	afd58593          	addi	a1,a1,-1283 # ffff4afd <_end+0xffff0f5d>
    1fdc:	00b50633          	add	a2,a0,a1
    1fe0:	54c0ae23          	sw	a2,1372(ra)

00001fe4 <inst_377>:
    1fe4:	33333537          	lui	a0,0x33333
    1fe8:	33450513          	addi	a0,a0,820 # 33333334 <_end+0x3332f794>
    1fec:	0000b5b7          	lui	a1,0xb
    1ff0:	50558593          	addi	a1,a1,1285 # b505 <_end+0x7965>
    1ff4:	00b50633          	add	a2,a0,a1
    1ff8:	56c0a023          	sw	a2,1376(ra)

00001ffc <inst_378>:
    1ffc:	66666537          	lui	a0,0x66666
    2000:	66750513          	addi	a0,a0,1639 # 66666667 <_end+0x66662ac7>
    2004:	00300593          	li	a1,3
    2008:	00b50633          	add	a2,a0,a1
    200c:	56c0a223          	sw	a2,1380(ra)

00002010 <inst_379>:
    2010:	66666537          	lui	a0,0x66666
    2014:	66750513          	addi	a0,a0,1639 # 66666667 <_end+0x66662ac7>
    2018:	555555b7          	lui	a1,0x55555
    201c:	55558593          	addi	a1,a1,1365 # 55555555 <_end+0x555519b5>
    2020:	00b50633          	add	a2,a0,a1
    2024:	56c0a423          	sw	a2,1384(ra)

00002028 <inst_380>:
    2028:	66666537          	lui	a0,0x66666
    202c:	66750513          	addi	a0,a0,1639 # 66666667 <_end+0x66662ac7>
    2030:	aaaab5b7          	lui	a1,0xaaaab
    2034:	aaa58593          	addi	a1,a1,-1366 # aaaaaaaa <_end+0xaaaa6f0a>
    2038:	00b50633          	add	a2,a0,a1
    203c:	56c0a623          	sw	a2,1388(ra)

00002040 <inst_381>:
    2040:	66666537          	lui	a0,0x66666
    2044:	66750513          	addi	a0,a0,1639 # 66666667 <_end+0x66662ac7>
    2048:	00500593          	li	a1,5
    204c:	00b50633          	add	a2,a0,a1
    2050:	56c0a823          	sw	a2,1392(ra)

00002054 <inst_382>:
    2054:	66666537          	lui	a0,0x66666
    2058:	66750513          	addi	a0,a0,1639 # 66666667 <_end+0x66662ac7>
    205c:	333335b7          	lui	a1,0x33333
    2060:	33358593          	addi	a1,a1,819 # 33333333 <_end+0x3332f793>
    2064:	00b50633          	add	a2,a0,a1
    2068:	56c0aa23          	sw	a2,1396(ra)

0000206c <inst_383>:
    206c:	66666537          	lui	a0,0x66666
    2070:	66750513          	addi	a0,a0,1639 # 66666667 <_end+0x66662ac7>
    2074:	666665b7          	lui	a1,0x66666
    2078:	66658593          	addi	a1,a1,1638 # 66666666 <_end+0x66662ac6>
    207c:	00b50633          	add	a2,a0,a1
    2080:	56c0ac23          	sw	a2,1400(ra)

00002084 <inst_384>:
    2084:	66666537          	lui	a0,0x66666
    2088:	66750513          	addi	a0,a0,1639 # 66666667 <_end+0x66662ac7>
    208c:	ffff55b7          	lui	a1,0xffff5
    2090:	afc58593          	addi	a1,a1,-1284 # ffff4afc <_end+0xffff0f5c>
    2094:	00b50633          	add	a2,a0,a1
    2098:	56c0ae23          	sw	a2,1404(ra)

0000209c <inst_385>:
    209c:	66666537          	lui	a0,0x66666
    20a0:	66750513          	addi	a0,a0,1639 # 66666667 <_end+0x66662ac7>
    20a4:	0000b5b7          	lui	a1,0xb
    20a8:	50458593          	addi	a1,a1,1284 # b504 <_end+0x7964>
    20ac:	00b50633          	add	a2,a0,a1
    20b0:	58c0a023          	sw	a2,1408(ra)

000020b4 <inst_386>:
    20b4:	66666537          	lui	a0,0x66666
    20b8:	66750513          	addi	a0,a0,1639 # 66666667 <_end+0x66662ac7>
    20bc:	00200593          	li	a1,2
    20c0:	00b50633          	add	a2,a0,a1
    20c4:	58c0a223          	sw	a2,1412(ra)

000020c8 <inst_387>:
    20c8:	66666537          	lui	a0,0x66666
    20cc:	66750513          	addi	a0,a0,1639 # 66666667 <_end+0x66662ac7>
    20d0:	555555b7          	lui	a1,0x55555
    20d4:	55458593          	addi	a1,a1,1364 # 55555554 <_end+0x555519b4>
    20d8:	00b50633          	add	a2,a0,a1
    20dc:	58c0a423          	sw	a2,1416(ra)

000020e0 <inst_388>:
    20e0:	66666537          	lui	a0,0x66666
    20e4:	66750513          	addi	a0,a0,1639 # 66666667 <_end+0x66662ac7>
    20e8:	00000593          	li	a1,0
    20ec:	00b50633          	add	a2,a0,a1
    20f0:	58c0a623          	sw	a2,1420(ra)

000020f4 <inst_389>:
    20f4:	66666537          	lui	a0,0x66666
    20f8:	66750513          	addi	a0,a0,1639 # 66666667 <_end+0x66662ac7>
    20fc:	00400593          	li	a1,4
    2100:	00b50633          	add	a2,a0,a1
    2104:	58c0a823          	sw	a2,1424(ra)

00002108 <inst_390>:
    2108:	66666537          	lui	a0,0x66666
    210c:	66750513          	addi	a0,a0,1639 # 66666667 <_end+0x66662ac7>
    2110:	333335b7          	lui	a1,0x33333
    2114:	33258593          	addi	a1,a1,818 # 33333332 <_end+0x3332f792>
    2118:	00b50633          	add	a2,a0,a1
    211c:	58c0aa23          	sw	a2,1428(ra)

00002120 <inst_391>:
    2120:	66666537          	lui	a0,0x66666
    2124:	66750513          	addi	a0,a0,1639 # 66666667 <_end+0x66662ac7>
    2128:	666665b7          	lui	a1,0x66666
    212c:	66558593          	addi	a1,a1,1637 # 66666665 <_end+0x66662ac5>
    2130:	00b50633          	add	a2,a0,a1
    2134:	58c0ac23          	sw	a2,1432(ra)

00002138 <inst_392>:
    2138:	66666537          	lui	a0,0x66666
    213c:	66750513          	addi	a0,a0,1639 # 66666667 <_end+0x66662ac7>
    2140:	0000b5b7          	lui	a1,0xb
    2144:	50358593          	addi	a1,a1,1283 # b503 <_end+0x7963>
    2148:	00b50633          	add	a2,a0,a1
    214c:	58c0ae23          	sw	a2,1436(ra)

00002150 <inst_393>:
    2150:	66666537          	lui	a0,0x66666
    2154:	66750513          	addi	a0,a0,1639 # 66666667 <_end+0x66662ac7>
    2158:	555555b7          	lui	a1,0x55555
    215c:	55658593          	addi	a1,a1,1366 # 55555556 <_end+0x555519b6>
    2160:	00b50633          	add	a2,a0,a1
    2164:	5ac0a023          	sw	a2,1440(ra)

00002168 <inst_394>:
    2168:	66666537          	lui	a0,0x66666
    216c:	66750513          	addi	a0,a0,1639 # 66666667 <_end+0x66662ac7>
    2170:	aaaab5b7          	lui	a1,0xaaaab
    2174:	aab58593          	addi	a1,a1,-1365 # aaaaaaab <_end+0xaaaa6f0b>
    2178:	00b50633          	add	a2,a0,a1
    217c:	5ac0a223          	sw	a2,1444(ra)

00002180 <inst_395>:
    2180:	66666537          	lui	a0,0x66666
    2184:	66750513          	addi	a0,a0,1639 # 66666667 <_end+0x66662ac7>
    2188:	00600593          	li	a1,6
    218c:	00b50633          	add	a2,a0,a1
    2190:	5ac0a423          	sw	a2,1448(ra)

00002194 <inst_396>:
    2194:	66666537          	lui	a0,0x66666
    2198:	66750513          	addi	a0,a0,1639 # 66666667 <_end+0x66662ac7>
    219c:	333335b7          	lui	a1,0x33333
    21a0:	33458593          	addi	a1,a1,820 # 33333334 <_end+0x3332f794>
    21a4:	00b50633          	add	a2,a0,a1
    21a8:	5ac0a623          	sw	a2,1452(ra)

000021ac <inst_397>:
    21ac:	66666537          	lui	a0,0x66666
    21b0:	66750513          	addi	a0,a0,1639 # 66666667 <_end+0x66662ac7>
    21b4:	666665b7          	lui	a1,0x66666
    21b8:	66758593          	addi	a1,a1,1639 # 66666667 <_end+0x66662ac7>
    21bc:	00b50633          	add	a2,a0,a1
    21c0:	5ac0a823          	sw	a2,1456(ra)

000021c4 <inst_398>:
    21c4:	66666537          	lui	a0,0x66666
    21c8:	66750513          	addi	a0,a0,1639 # 66666667 <_end+0x66662ac7>
    21cc:	ffff55b7          	lui	a1,0xffff5
    21d0:	afd58593          	addi	a1,a1,-1283 # ffff4afd <_end+0xffff0f5d>
    21d4:	00b50633          	add	a2,a0,a1
    21d8:	5ac0aa23          	sw	a2,1460(ra)

000021dc <inst_399>:
    21dc:	66666537          	lui	a0,0x66666
    21e0:	66750513          	addi	a0,a0,1639 # 66666667 <_end+0x66662ac7>
    21e4:	0000b5b7          	lui	a1,0xb
    21e8:	50558593          	addi	a1,a1,1285 # b505 <_end+0x7965>
    21ec:	00b50633          	add	a2,a0,a1
    21f0:	5ac0ac23          	sw	a2,1464(ra)

000021f4 <inst_400>:
    21f4:	ffff5537          	lui	a0,0xffff5
    21f8:	afd50513          	addi	a0,a0,-1283 # ffff4afd <_end+0xffff0f5d>
    21fc:	00300593          	li	a1,3
    2200:	00b50633          	add	a2,a0,a1
    2204:	5ac0ae23          	sw	a2,1468(ra)

00002208 <inst_401>:
    2208:	ffff5537          	lui	a0,0xffff5
    220c:	afd50513          	addi	a0,a0,-1283 # ffff4afd <_end+0xffff0f5d>
    2210:	555555b7          	lui	a1,0x55555
    2214:	55558593          	addi	a1,a1,1365 # 55555555 <_end+0x555519b5>
    2218:	00b50633          	add	a2,a0,a1
    221c:	5cc0a023          	sw	a2,1472(ra)

00002220 <inst_402>:
    2220:	ffff5537          	lui	a0,0xffff5
    2224:	afd50513          	addi	a0,a0,-1283 # ffff4afd <_end+0xffff0f5d>
    2228:	aaaab5b7          	lui	a1,0xaaaab
    222c:	aaa58593          	addi	a1,a1,-1366 # aaaaaaaa <_end+0xaaaa6f0a>
    2230:	00b50633          	add	a2,a0,a1
    2234:	5cc0a223          	sw	a2,1476(ra)

00002238 <inst_403>:
    2238:	ffff5537          	lui	a0,0xffff5
    223c:	afd50513          	addi	a0,a0,-1283 # ffff4afd <_end+0xffff0f5d>
    2240:	00500593          	li	a1,5
    2244:	00b50633          	add	a2,a0,a1
    2248:	5cc0a423          	sw	a2,1480(ra)

0000224c <inst_404>:
    224c:	ffff5537          	lui	a0,0xffff5
    2250:	afd50513          	addi	a0,a0,-1283 # ffff4afd <_end+0xffff0f5d>
    2254:	333335b7          	lui	a1,0x33333
    2258:	33358593          	addi	a1,a1,819 # 33333333 <_end+0x3332f793>
    225c:	00b50633          	add	a2,a0,a1
    2260:	5cc0a623          	sw	a2,1484(ra)

00002264 <inst_405>:
    2264:	ffff5537          	lui	a0,0xffff5
    2268:	afd50513          	addi	a0,a0,-1283 # ffff4afd <_end+0xffff0f5d>
    226c:	666665b7          	lui	a1,0x66666
    2270:	66658593          	addi	a1,a1,1638 # 66666666 <_end+0x66662ac6>
    2274:	00b50633          	add	a2,a0,a1
    2278:	5cc0a823          	sw	a2,1488(ra)

0000227c <inst_406>:
    227c:	ffff5537          	lui	a0,0xffff5
    2280:	afd50513          	addi	a0,a0,-1283 # ffff4afd <_end+0xffff0f5d>
    2284:	ffff55b7          	lui	a1,0xffff5
    2288:	afc58593          	addi	a1,a1,-1284 # ffff4afc <_end+0xffff0f5c>
    228c:	00b50633          	add	a2,a0,a1
    2290:	5cc0aa23          	sw	a2,1492(ra)

00002294 <inst_407>:
    2294:	ffff5537          	lui	a0,0xffff5
    2298:	afd50513          	addi	a0,a0,-1283 # ffff4afd <_end+0xffff0f5d>
    229c:	0000b5b7          	lui	a1,0xb
    22a0:	50458593          	addi	a1,a1,1284 # b504 <_end+0x7964>
    22a4:	00b50633          	add	a2,a0,a1
    22a8:	5cc0ac23          	sw	a2,1496(ra)

000022ac <inst_408>:
    22ac:	ffff5537          	lui	a0,0xffff5
    22b0:	afd50513          	addi	a0,a0,-1283 # ffff4afd <_end+0xffff0f5d>
    22b4:	00200593          	li	a1,2
    22b8:	00b50633          	add	a2,a0,a1
    22bc:	5cc0ae23          	sw	a2,1500(ra)

000022c0 <inst_409>:
    22c0:	ffff5537          	lui	a0,0xffff5
    22c4:	afd50513          	addi	a0,a0,-1283 # ffff4afd <_end+0xffff0f5d>
    22c8:	555555b7          	lui	a1,0x55555
    22cc:	55458593          	addi	a1,a1,1364 # 55555554 <_end+0x555519b4>
    22d0:	00b50633          	add	a2,a0,a1
    22d4:	5ec0a023          	sw	a2,1504(ra)

000022d8 <inst_410>:
    22d8:	ffff5537          	lui	a0,0xffff5
    22dc:	afd50513          	addi	a0,a0,-1283 # ffff4afd <_end+0xffff0f5d>
    22e0:	00000593          	li	a1,0
    22e4:	00b50633          	add	a2,a0,a1
    22e8:	5ec0a223          	sw	a2,1508(ra)

000022ec <inst_411>:
    22ec:	ffff5537          	lui	a0,0xffff5
    22f0:	afd50513          	addi	a0,a0,-1283 # ffff4afd <_end+0xffff0f5d>
    22f4:	00400593          	li	a1,4
    22f8:	00b50633          	add	a2,a0,a1
    22fc:	5ec0a423          	sw	a2,1512(ra)

00002300 <inst_412>:
    2300:	ffff5537          	lui	a0,0xffff5
    2304:	afd50513          	addi	a0,a0,-1283 # ffff4afd <_end+0xffff0f5d>
    2308:	333335b7          	lui	a1,0x33333
    230c:	33258593          	addi	a1,a1,818 # 33333332 <_end+0x3332f792>
    2310:	00b50633          	add	a2,a0,a1
    2314:	5ec0a623          	sw	a2,1516(ra)

00002318 <inst_413>:
    2318:	ffff5537          	lui	a0,0xffff5
    231c:	afd50513          	addi	a0,a0,-1283 # ffff4afd <_end+0xffff0f5d>
    2320:	666665b7          	lui	a1,0x66666
    2324:	66558593          	addi	a1,a1,1637 # 66666665 <_end+0x66662ac5>
    2328:	00b50633          	add	a2,a0,a1
    232c:	5ec0a823          	sw	a2,1520(ra)

00002330 <inst_414>:
    2330:	ffff5537          	lui	a0,0xffff5
    2334:	afd50513          	addi	a0,a0,-1283 # ffff4afd <_end+0xffff0f5d>
    2338:	0000b5b7          	lui	a1,0xb
    233c:	50358593          	addi	a1,a1,1283 # b503 <_end+0x7963>
    2340:	00b50633          	add	a2,a0,a1
    2344:	5ec0aa23          	sw	a2,1524(ra)

00002348 <inst_415>:
    2348:	ffff5537          	lui	a0,0xffff5
    234c:	afd50513          	addi	a0,a0,-1283 # ffff4afd <_end+0xffff0f5d>
    2350:	555555b7          	lui	a1,0x55555
    2354:	55658593          	addi	a1,a1,1366 # 55555556 <_end+0x555519b6>
    2358:	00b50633          	add	a2,a0,a1
    235c:	5ec0ac23          	sw	a2,1528(ra)

00002360 <inst_416>:
    2360:	ffff5537          	lui	a0,0xffff5
    2364:	afd50513          	addi	a0,a0,-1283 # ffff4afd <_end+0xffff0f5d>
    2368:	aaaab5b7          	lui	a1,0xaaaab
    236c:	aab58593          	addi	a1,a1,-1365 # aaaaaaab <_end+0xaaaa6f0b>
    2370:	00b50633          	add	a2,a0,a1
    2374:	5ec0ae23          	sw	a2,1532(ra)

00002378 <inst_417>:
    2378:	ffff5537          	lui	a0,0xffff5
    237c:	afd50513          	addi	a0,a0,-1283 # ffff4afd <_end+0xffff0f5d>
    2380:	00600593          	li	a1,6
    2384:	00b50633          	add	a2,a0,a1
    2388:	60c0a023          	sw	a2,1536(ra)

0000238c <inst_418>:
    238c:	ffff5537          	lui	a0,0xffff5
    2390:	afd50513          	addi	a0,a0,-1283 # ffff4afd <_end+0xffff0f5d>
    2394:	333335b7          	lui	a1,0x33333
    2398:	33458593          	addi	a1,a1,820 # 33333334 <_end+0x3332f794>
    239c:	00b50633          	add	a2,a0,a1
    23a0:	60c0a223          	sw	a2,1540(ra)

000023a4 <inst_419>:
    23a4:	ffff5537          	lui	a0,0xffff5
    23a8:	afd50513          	addi	a0,a0,-1283 # ffff4afd <_end+0xffff0f5d>
    23ac:	666665b7          	lui	a1,0x66666
    23b0:	66758593          	addi	a1,a1,1639 # 66666667 <_end+0x66662ac7>
    23b4:	00b50633          	add	a2,a0,a1
    23b8:	60c0a423          	sw	a2,1544(ra)

000023bc <inst_420>:
    23bc:	ffff5537          	lui	a0,0xffff5
    23c0:	afd50513          	addi	a0,a0,-1283 # ffff4afd <_end+0xffff0f5d>
    23c4:	ffff55b7          	lui	a1,0xffff5
    23c8:	afd58593          	addi	a1,a1,-1283 # ffff4afd <_end+0xffff0f5d>
    23cc:	00b50633          	add	a2,a0,a1
    23d0:	60c0a623          	sw	a2,1548(ra)

000023d4 <inst_421>:
    23d4:	ffff5537          	lui	a0,0xffff5
    23d8:	afd50513          	addi	a0,a0,-1283 # ffff4afd <_end+0xffff0f5d>
    23dc:	0000b5b7          	lui	a1,0xb
    23e0:	50558593          	addi	a1,a1,1285 # b505 <_end+0x7965>
    23e4:	00b50633          	add	a2,a0,a1
    23e8:	60c0a823          	sw	a2,1552(ra)

000023ec <inst_422>:
    23ec:	0000b537          	lui	a0,0xb
    23f0:	50550513          	addi	a0,a0,1285 # b505 <_end+0x7965>
    23f4:	00300593          	li	a1,3
    23f8:	00b50633          	add	a2,a0,a1
    23fc:	60c0aa23          	sw	a2,1556(ra)

00002400 <inst_423>:
    2400:	0000b537          	lui	a0,0xb
    2404:	50550513          	addi	a0,a0,1285 # b505 <_end+0x7965>
    2408:	555555b7          	lui	a1,0x55555
    240c:	55558593          	addi	a1,a1,1365 # 55555555 <_end+0x555519b5>
    2410:	00b50633          	add	a2,a0,a1
    2414:	60c0ac23          	sw	a2,1560(ra)

00002418 <inst_424>:
    2418:	0000b537          	lui	a0,0xb
    241c:	50550513          	addi	a0,a0,1285 # b505 <_end+0x7965>
    2420:	aaaab5b7          	lui	a1,0xaaaab
    2424:	aaa58593          	addi	a1,a1,-1366 # aaaaaaaa <_end+0xaaaa6f0a>
    2428:	00b50633          	add	a2,a0,a1
    242c:	60c0ae23          	sw	a2,1564(ra)

00002430 <inst_425>:
    2430:	0000b537          	lui	a0,0xb
    2434:	50550513          	addi	a0,a0,1285 # b505 <_end+0x7965>
    2438:	00500593          	li	a1,5
    243c:	00b50633          	add	a2,a0,a1
    2440:	62c0a023          	sw	a2,1568(ra)

00002444 <inst_426>:
    2444:	0000b537          	lui	a0,0xb
    2448:	50550513          	addi	a0,a0,1285 # b505 <_end+0x7965>
    244c:	333335b7          	lui	a1,0x33333
    2450:	33358593          	addi	a1,a1,819 # 33333333 <_end+0x3332f793>
    2454:	00b50633          	add	a2,a0,a1
    2458:	62c0a223          	sw	a2,1572(ra)

0000245c <inst_427>:
    245c:	0000b537          	lui	a0,0xb
    2460:	50550513          	addi	a0,a0,1285 # b505 <_end+0x7965>
    2464:	666665b7          	lui	a1,0x66666
    2468:	66658593          	addi	a1,a1,1638 # 66666666 <_end+0x66662ac6>
    246c:	00b50633          	add	a2,a0,a1
    2470:	62c0a423          	sw	a2,1576(ra)

00002474 <inst_428>:
    2474:	0000b537          	lui	a0,0xb
    2478:	50550513          	addi	a0,a0,1285 # b505 <_end+0x7965>
    247c:	ffff55b7          	lui	a1,0xffff5
    2480:	afc58593          	addi	a1,a1,-1284 # ffff4afc <_end+0xffff0f5c>
    2484:	00b50633          	add	a2,a0,a1
    2488:	62c0a623          	sw	a2,1580(ra)

0000248c <inst_429>:
    248c:	0000b537          	lui	a0,0xb
    2490:	50550513          	addi	a0,a0,1285 # b505 <_end+0x7965>
    2494:	0000b5b7          	lui	a1,0xb
    2498:	50458593          	addi	a1,a1,1284 # b504 <_end+0x7964>
    249c:	00b50633          	add	a2,a0,a1
    24a0:	62c0a823          	sw	a2,1584(ra)

000024a4 <inst_430>:
    24a4:	0000b537          	lui	a0,0xb
    24a8:	50550513          	addi	a0,a0,1285 # b505 <_end+0x7965>
    24ac:	00200593          	li	a1,2
    24b0:	00b50633          	add	a2,a0,a1
    24b4:	62c0aa23          	sw	a2,1588(ra)

000024b8 <inst_431>:
    24b8:	0000b537          	lui	a0,0xb
    24bc:	50550513          	addi	a0,a0,1285 # b505 <_end+0x7965>
    24c0:	555555b7          	lui	a1,0x55555
    24c4:	55458593          	addi	a1,a1,1364 # 55555554 <_end+0x555519b4>
    24c8:	00b50633          	add	a2,a0,a1
    24cc:	62c0ac23          	sw	a2,1592(ra)

000024d0 <inst_432>:
    24d0:	0000b537          	lui	a0,0xb
    24d4:	50550513          	addi	a0,a0,1285 # b505 <_end+0x7965>
    24d8:	00000593          	li	a1,0
    24dc:	00b50633          	add	a2,a0,a1
    24e0:	62c0ae23          	sw	a2,1596(ra)

000024e4 <inst_433>:
    24e4:	0000b537          	lui	a0,0xb
    24e8:	50550513          	addi	a0,a0,1285 # b505 <_end+0x7965>
    24ec:	00400593          	li	a1,4
    24f0:	00b50633          	add	a2,a0,a1
    24f4:	64c0a023          	sw	a2,1600(ra)

000024f8 <inst_434>:
    24f8:	0000b537          	lui	a0,0xb
    24fc:	50550513          	addi	a0,a0,1285 # b505 <_end+0x7965>
    2500:	333335b7          	lui	a1,0x33333
    2504:	33258593          	addi	a1,a1,818 # 33333332 <_end+0x3332f792>
    2508:	00b50633          	add	a2,a0,a1
    250c:	64c0a223          	sw	a2,1604(ra)

00002510 <inst_435>:
    2510:	0000b537          	lui	a0,0xb
    2514:	50550513          	addi	a0,a0,1285 # b505 <_end+0x7965>
    2518:	666665b7          	lui	a1,0x66666
    251c:	66558593          	addi	a1,a1,1637 # 66666665 <_end+0x66662ac5>
    2520:	00b50633          	add	a2,a0,a1
    2524:	64c0a423          	sw	a2,1608(ra)

00002528 <inst_436>:
    2528:	0000b537          	lui	a0,0xb
    252c:	50550513          	addi	a0,a0,1285 # b505 <_end+0x7965>
    2530:	0000b5b7          	lui	a1,0xb
    2534:	50358593          	addi	a1,a1,1283 # b503 <_end+0x7963>
    2538:	00b50633          	add	a2,a0,a1
    253c:	64c0a623          	sw	a2,1612(ra)

00002540 <inst_437>:
    2540:	0000b537          	lui	a0,0xb
    2544:	50550513          	addi	a0,a0,1285 # b505 <_end+0x7965>
    2548:	555555b7          	lui	a1,0x55555
    254c:	55658593          	addi	a1,a1,1366 # 55555556 <_end+0x555519b6>
    2550:	00b50633          	add	a2,a0,a1
    2554:	64c0a823          	sw	a2,1616(ra)

00002558 <inst_438>:
    2558:	0000b537          	lui	a0,0xb
    255c:	50550513          	addi	a0,a0,1285 # b505 <_end+0x7965>
    2560:	aaaab5b7          	lui	a1,0xaaaab
    2564:	aab58593          	addi	a1,a1,-1365 # aaaaaaab <_end+0xaaaa6f0b>
    2568:	00b50633          	add	a2,a0,a1
    256c:	64c0aa23          	sw	a2,1620(ra)

00002570 <inst_439>:
    2570:	0000b537          	lui	a0,0xb
    2574:	50550513          	addi	a0,a0,1285 # b505 <_end+0x7965>
    2578:	00600593          	li	a1,6
    257c:	00b50633          	add	a2,a0,a1
    2580:	64c0ac23          	sw	a2,1624(ra)

00002584 <inst_440>:
    2584:	0000b537          	lui	a0,0xb
    2588:	50550513          	addi	a0,a0,1285 # b505 <_end+0x7965>
    258c:	333335b7          	lui	a1,0x33333
    2590:	33458593          	addi	a1,a1,820 # 33333334 <_end+0x3332f794>
    2594:	00b50633          	add	a2,a0,a1
    2598:	64c0ae23          	sw	a2,1628(ra)

0000259c <inst_441>:
    259c:	0000b537          	lui	a0,0xb
    25a0:	50550513          	addi	a0,a0,1285 # b505 <_end+0x7965>
    25a4:	666665b7          	lui	a1,0x66666
    25a8:	66758593          	addi	a1,a1,1639 # 66666667 <_end+0x66662ac7>
    25ac:	00b50633          	add	a2,a0,a1
    25b0:	66c0a023          	sw	a2,1632(ra)

000025b4 <inst_442>:
    25b4:	0000b537          	lui	a0,0xb
    25b8:	50550513          	addi	a0,a0,1285 # b505 <_end+0x7965>
    25bc:	ffff55b7          	lui	a1,0xffff5
    25c0:	afd58593          	addi	a1,a1,-1283 # ffff4afd <_end+0xffff0f5d>
    25c4:	00b50633          	add	a2,a0,a1
    25c8:	66c0a223          	sw	a2,1636(ra)

000025cc <inst_443>:
    25cc:	0000b537          	lui	a0,0xb
    25d0:	50550513          	addi	a0,a0,1285 # b505 <_end+0x7965>
    25d4:	0000b5b7          	lui	a1,0xb
    25d8:	50558593          	addi	a1,a1,1285 # b505 <_end+0x7965>
    25dc:	00b50633          	add	a2,a0,a1
    25e0:	66c0a423          	sw	a2,1640(ra)

000025e4 <inst_444>:
    25e4:	00000513          	li	a0,0
    25e8:	00200593          	li	a1,2
    25ec:	00b50633          	add	a2,a0,a1
    25f0:	66c0a623          	sw	a2,1644(ra)

000025f4 <inst_445>:
    25f4:	00000513          	li	a0,0
    25f8:	555555b7          	lui	a1,0x55555
    25fc:	55458593          	addi	a1,a1,1364 # 55555554 <_end+0x555519b4>
    2600:	00b50633          	add	a2,a0,a1
    2604:	66c0a823          	sw	a2,1648(ra)

00002608 <inst_446>:
    2608:	00000513          	li	a0,0
    260c:	00000593          	li	a1,0
    2610:	00b50633          	add	a2,a0,a1
    2614:	66c0aa23          	sw	a2,1652(ra)

00002618 <inst_447>:
    2618:	00000513          	li	a0,0
    261c:	00400593          	li	a1,4
    2620:	00b50633          	add	a2,a0,a1
    2624:	66c0ac23          	sw	a2,1656(ra)

00002628 <inst_448>:
    2628:	00000513          	li	a0,0
    262c:	333335b7          	lui	a1,0x33333
    2630:	33258593          	addi	a1,a1,818 # 33333332 <_end+0x3332f792>
    2634:	00b50633          	add	a2,a0,a1
    2638:	66c0ae23          	sw	a2,1660(ra)

0000263c <inst_449>:
    263c:	00000513          	li	a0,0
    2640:	666665b7          	lui	a1,0x66666
    2644:	66558593          	addi	a1,a1,1637 # 66666665 <_end+0x66662ac5>
    2648:	00b50633          	add	a2,a0,a1
    264c:	68c0a023          	sw	a2,1664(ra)

00002650 <inst_450>:
    2650:	00000513          	li	a0,0
    2654:	0000b5b7          	lui	a1,0xb
    2658:	50358593          	addi	a1,a1,1283 # b503 <_end+0x7963>
    265c:	00b50633          	add	a2,a0,a1
    2660:	68c0a223          	sw	a2,1668(ra)

00002664 <inst_451>:
    2664:	00000513          	li	a0,0
    2668:	555555b7          	lui	a1,0x55555
    266c:	55658593          	addi	a1,a1,1366 # 55555556 <_end+0x555519b6>
    2670:	00b50633          	add	a2,a0,a1
    2674:	68c0a423          	sw	a2,1672(ra)

00002678 <inst_452>:
    2678:	00000513          	li	a0,0
    267c:	aaaab5b7          	lui	a1,0xaaaab
    2680:	aab58593          	addi	a1,a1,-1365 # aaaaaaab <_end+0xaaaa6f0b>
    2684:	00b50633          	add	a2,a0,a1
    2688:	68c0a623          	sw	a2,1676(ra)

0000268c <inst_453>:
    268c:	00000513          	li	a0,0
    2690:	00600593          	li	a1,6
    2694:	00b50633          	add	a2,a0,a1
    2698:	68c0a823          	sw	a2,1680(ra)

0000269c <inst_454>:
    269c:	00000513          	li	a0,0
    26a0:	333335b7          	lui	a1,0x33333
    26a4:	33458593          	addi	a1,a1,820 # 33333334 <_end+0x3332f794>
    26a8:	00b50633          	add	a2,a0,a1
    26ac:	68c0aa23          	sw	a2,1684(ra)

000026b0 <inst_455>:
    26b0:	00000513          	li	a0,0
    26b4:	666665b7          	lui	a1,0x66666
    26b8:	66758593          	addi	a1,a1,1639 # 66666667 <_end+0x66662ac7>
    26bc:	00b50633          	add	a2,a0,a1
    26c0:	68c0ac23          	sw	a2,1688(ra)

000026c4 <inst_456>:
    26c4:	00000513          	li	a0,0
    26c8:	ffff55b7          	lui	a1,0xffff5
    26cc:	afd58593          	addi	a1,a1,-1283 # ffff4afd <_end+0xffff0f5d>
    26d0:	00b50633          	add	a2,a0,a1
    26d4:	68c0ae23          	sw	a2,1692(ra)

000026d8 <inst_457>:
    26d8:	00000513          	li	a0,0
    26dc:	0000b5b7          	lui	a1,0xb
    26e0:	50558593          	addi	a1,a1,1285 # b505 <_end+0x7965>
    26e4:	00b50633          	add	a2,a0,a1
    26e8:	6ac0a023          	sw	a2,1696(ra)

000026ec <inst_458>:
    26ec:	00400513          	li	a0,4
    26f0:	00300593          	li	a1,3
    26f4:	00b50633          	add	a2,a0,a1
    26f8:	6ac0a223          	sw	a2,1700(ra)

000026fc <inst_459>:
    26fc:	00400513          	li	a0,4
    2700:	555555b7          	lui	a1,0x55555
    2704:	55558593          	addi	a1,a1,1365 # 55555555 <_end+0x555519b5>
    2708:	00b50633          	add	a2,a0,a1
    270c:	6ac0a423          	sw	a2,1704(ra)

00002710 <inst_460>:
    2710:	00400513          	li	a0,4
    2714:	aaaab5b7          	lui	a1,0xaaaab
    2718:	aaa58593          	addi	a1,a1,-1366 # aaaaaaaa <_end+0xaaaa6f0a>
    271c:	00b50633          	add	a2,a0,a1
    2720:	6ac0a623          	sw	a2,1708(ra)

00002724 <inst_461>:
    2724:	00400513          	li	a0,4
    2728:	00500593          	li	a1,5
    272c:	00b50633          	add	a2,a0,a1
    2730:	6ac0a823          	sw	a2,1712(ra)

00002734 <inst_462>:
    2734:	00400513          	li	a0,4
    2738:	333335b7          	lui	a1,0x33333
    273c:	33358593          	addi	a1,a1,819 # 33333333 <_end+0x3332f793>
    2740:	00b50633          	add	a2,a0,a1
    2744:	6ac0aa23          	sw	a2,1716(ra)

00002748 <inst_463>:
    2748:	00400513          	li	a0,4
    274c:	666665b7          	lui	a1,0x66666
    2750:	66658593          	addi	a1,a1,1638 # 66666666 <_end+0x66662ac6>
    2754:	00b50633          	add	a2,a0,a1
    2758:	6ac0ac23          	sw	a2,1720(ra)

0000275c <inst_464>:
    275c:	00400513          	li	a0,4
    2760:	ffff55b7          	lui	a1,0xffff5
    2764:	afc58593          	addi	a1,a1,-1284 # ffff4afc <_end+0xffff0f5c>
    2768:	00b50633          	add	a2,a0,a1
    276c:	6ac0ae23          	sw	a2,1724(ra)

00002770 <inst_465>:
    2770:	00400513          	li	a0,4
    2774:	0000b5b7          	lui	a1,0xb
    2778:	50458593          	addi	a1,a1,1284 # b504 <_end+0x7964>
    277c:	00b50633          	add	a2,a0,a1
    2780:	6cc0a023          	sw	a2,1728(ra)

00002784 <inst_466>:
    2784:	00400513          	li	a0,4
    2788:	00200593          	li	a1,2
    278c:	00b50633          	add	a2,a0,a1
    2790:	6cc0a223          	sw	a2,1732(ra)

00002794 <inst_467>:
    2794:	00400513          	li	a0,4
    2798:	555555b7          	lui	a1,0x55555
    279c:	55458593          	addi	a1,a1,1364 # 55555554 <_end+0x555519b4>
    27a0:	00b50633          	add	a2,a0,a1
    27a4:	6cc0a423          	sw	a2,1736(ra)

000027a8 <inst_468>:
    27a8:	00400513          	li	a0,4
    27ac:	00000593          	li	a1,0
    27b0:	00b50633          	add	a2,a0,a1
    27b4:	6cc0a623          	sw	a2,1740(ra)

000027b8 <inst_469>:
    27b8:	00400513          	li	a0,4
    27bc:	00400593          	li	a1,4
    27c0:	00b50633          	add	a2,a0,a1
    27c4:	6cc0a823          	sw	a2,1744(ra)

000027c8 <inst_470>:
    27c8:	00400513          	li	a0,4
    27cc:	333335b7          	lui	a1,0x33333
    27d0:	33258593          	addi	a1,a1,818 # 33333332 <_end+0x3332f792>
    27d4:	00b50633          	add	a2,a0,a1
    27d8:	6cc0aa23          	sw	a2,1748(ra)

000027dc <inst_471>:
    27dc:	00400513          	li	a0,4
    27e0:	666665b7          	lui	a1,0x66666
    27e4:	66558593          	addi	a1,a1,1637 # 66666665 <_end+0x66662ac5>
    27e8:	00b50633          	add	a2,a0,a1
    27ec:	6cc0ac23          	sw	a2,1752(ra)

000027f0 <inst_472>:
    27f0:	00400513          	li	a0,4
    27f4:	0000b5b7          	lui	a1,0xb
    27f8:	50358593          	addi	a1,a1,1283 # b503 <_end+0x7963>
    27fc:	00b50633          	add	a2,a0,a1
    2800:	6cc0ae23          	sw	a2,1756(ra)

00002804 <inst_473>:
    2804:	00400513          	li	a0,4
    2808:	555555b7          	lui	a1,0x55555
    280c:	55658593          	addi	a1,a1,1366 # 55555556 <_end+0x555519b6>
    2810:	00b50633          	add	a2,a0,a1
    2814:	6ec0a023          	sw	a2,1760(ra)

00002818 <inst_474>:
    2818:	00400513          	li	a0,4
    281c:	aaaab5b7          	lui	a1,0xaaaab
    2820:	aab58593          	addi	a1,a1,-1365 # aaaaaaab <_end+0xaaaa6f0b>
    2824:	00b50633          	add	a2,a0,a1
    2828:	6ec0a223          	sw	a2,1764(ra)

0000282c <inst_475>:
    282c:	00400513          	li	a0,4
    2830:	00600593          	li	a1,6
    2834:	00b50633          	add	a2,a0,a1
    2838:	6ec0a423          	sw	a2,1768(ra)

0000283c <inst_476>:
    283c:	00400513          	li	a0,4
    2840:	333335b7          	lui	a1,0x33333
    2844:	33458593          	addi	a1,a1,820 # 33333334 <_end+0x3332f794>
    2848:	00b50633          	add	a2,a0,a1
    284c:	6ec0a623          	sw	a2,1772(ra)

00002850 <inst_477>:
    2850:	00400513          	li	a0,4
    2854:	666665b7          	lui	a1,0x66666
    2858:	66758593          	addi	a1,a1,1639 # 66666667 <_end+0x66662ac7>
    285c:	00b50633          	add	a2,a0,a1
    2860:	6ec0a823          	sw	a2,1776(ra)

00002864 <inst_478>:
    2864:	00400513          	li	a0,4
    2868:	ffff55b7          	lui	a1,0xffff5
    286c:	afd58593          	addi	a1,a1,-1283 # ffff4afd <_end+0xffff0f5d>
    2870:	00b50633          	add	a2,a0,a1
    2874:	6ec0aa23          	sw	a2,1780(ra)

00002878 <inst_479>:
    2878:	00400513          	li	a0,4
    287c:	0000b5b7          	lui	a1,0xb
    2880:	50558593          	addi	a1,a1,1285 # b505 <_end+0x7965>
    2884:	00b50633          	add	a2,a0,a1
    2888:	6ec0ac23          	sw	a2,1784(ra)

0000288c <inst_480>:
    288c:	33333537          	lui	a0,0x33333
    2890:	33250513          	addi	a0,a0,818 # 33333332 <_end+0x3332f792>
    2894:	00300593          	li	a1,3
    2898:	00b50633          	add	a2,a0,a1
    289c:	6ec0ae23          	sw	a2,1788(ra)

000028a0 <inst_481>:
    28a0:	33333537          	lui	a0,0x33333
    28a4:	33250513          	addi	a0,a0,818 # 33333332 <_end+0x3332f792>
    28a8:	555555b7          	lui	a1,0x55555
    28ac:	55558593          	addi	a1,a1,1365 # 55555555 <_end+0x555519b5>
    28b0:	00b50633          	add	a2,a0,a1
    28b4:	70c0a023          	sw	a2,1792(ra)

000028b8 <inst_482>:
    28b8:	33333537          	lui	a0,0x33333
    28bc:	33250513          	addi	a0,a0,818 # 33333332 <_end+0x3332f792>
    28c0:	aaaab5b7          	lui	a1,0xaaaab
    28c4:	aaa58593          	addi	a1,a1,-1366 # aaaaaaaa <_end+0xaaaa6f0a>
    28c8:	00b50633          	add	a2,a0,a1
    28cc:	70c0a223          	sw	a2,1796(ra)

000028d0 <inst_483>:
    28d0:	33333537          	lui	a0,0x33333
    28d4:	33250513          	addi	a0,a0,818 # 33333332 <_end+0x3332f792>
    28d8:	00500593          	li	a1,5
    28dc:	00b50633          	add	a2,a0,a1
    28e0:	70c0a423          	sw	a2,1800(ra)

000028e4 <inst_484>:
    28e4:	33333537          	lui	a0,0x33333
    28e8:	33250513          	addi	a0,a0,818 # 33333332 <_end+0x3332f792>
    28ec:	333335b7          	lui	a1,0x33333
    28f0:	33358593          	addi	a1,a1,819 # 33333333 <_end+0x3332f793>
    28f4:	00b50633          	add	a2,a0,a1
    28f8:	70c0a623          	sw	a2,1804(ra)

000028fc <inst_485>:
    28fc:	33333537          	lui	a0,0x33333
    2900:	33250513          	addi	a0,a0,818 # 33333332 <_end+0x3332f792>
    2904:	666665b7          	lui	a1,0x66666
    2908:	66658593          	addi	a1,a1,1638 # 66666666 <_end+0x66662ac6>
    290c:	00b50633          	add	a2,a0,a1
    2910:	70c0a823          	sw	a2,1808(ra)

00002914 <inst_486>:
    2914:	33333537          	lui	a0,0x33333
    2918:	33250513          	addi	a0,a0,818 # 33333332 <_end+0x3332f792>
    291c:	ffff55b7          	lui	a1,0xffff5
    2920:	afc58593          	addi	a1,a1,-1284 # ffff4afc <_end+0xffff0f5c>
    2924:	00b50633          	add	a2,a0,a1
    2928:	70c0aa23          	sw	a2,1812(ra)

0000292c <inst_487>:
    292c:	33333537          	lui	a0,0x33333
    2930:	33250513          	addi	a0,a0,818 # 33333332 <_end+0x3332f792>
    2934:	0000b5b7          	lui	a1,0xb
    2938:	50458593          	addi	a1,a1,1284 # b504 <_end+0x7964>
    293c:	00b50633          	add	a2,a0,a1
    2940:	70c0ac23          	sw	a2,1816(ra)

00002944 <inst_488>:
    2944:	33333537          	lui	a0,0x33333
    2948:	33250513          	addi	a0,a0,818 # 33333332 <_end+0x3332f792>
    294c:	00200593          	li	a1,2
    2950:	00b50633          	add	a2,a0,a1
    2954:	70c0ae23          	sw	a2,1820(ra)

00002958 <inst_489>:
    2958:	33333537          	lui	a0,0x33333
    295c:	33250513          	addi	a0,a0,818 # 33333332 <_end+0x3332f792>
    2960:	555555b7          	lui	a1,0x55555
    2964:	55458593          	addi	a1,a1,1364 # 55555554 <_end+0x555519b4>
    2968:	00b50633          	add	a2,a0,a1
    296c:	72c0a023          	sw	a2,1824(ra)

00002970 <inst_490>:
    2970:	33333537          	lui	a0,0x33333
    2974:	33250513          	addi	a0,a0,818 # 33333332 <_end+0x3332f792>
    2978:	00000593          	li	a1,0
    297c:	00b50633          	add	a2,a0,a1
    2980:	72c0a223          	sw	a2,1828(ra)

00002984 <inst_491>:
    2984:	33333537          	lui	a0,0x33333
    2988:	33250513          	addi	a0,a0,818 # 33333332 <_end+0x3332f792>
    298c:	00400593          	li	a1,4
    2990:	00b50633          	add	a2,a0,a1
    2994:	72c0a423          	sw	a2,1832(ra)

00002998 <inst_492>:
    2998:	33333537          	lui	a0,0x33333
    299c:	33250513          	addi	a0,a0,818 # 33333332 <_end+0x3332f792>
    29a0:	333335b7          	lui	a1,0x33333
    29a4:	33258593          	addi	a1,a1,818 # 33333332 <_end+0x3332f792>
    29a8:	00b50633          	add	a2,a0,a1
    29ac:	72c0a623          	sw	a2,1836(ra)

000029b0 <inst_493>:
    29b0:	33333537          	lui	a0,0x33333
    29b4:	33250513          	addi	a0,a0,818 # 33333332 <_end+0x3332f792>
    29b8:	666665b7          	lui	a1,0x66666
    29bc:	66558593          	addi	a1,a1,1637 # 66666665 <_end+0x66662ac5>
    29c0:	00b50633          	add	a2,a0,a1
    29c4:	72c0a823          	sw	a2,1840(ra)

000029c8 <inst_494>:
    29c8:	33333537          	lui	a0,0x33333
    29cc:	33250513          	addi	a0,a0,818 # 33333332 <_end+0x3332f792>
    29d0:	0000b5b7          	lui	a1,0xb
    29d4:	50358593          	addi	a1,a1,1283 # b503 <_end+0x7963>
    29d8:	00b50633          	add	a2,a0,a1
    29dc:	72c0aa23          	sw	a2,1844(ra)

000029e0 <inst_495>:
    29e0:	33333537          	lui	a0,0x33333
    29e4:	33250513          	addi	a0,a0,818 # 33333332 <_end+0x3332f792>
    29e8:	555555b7          	lui	a1,0x55555
    29ec:	55658593          	addi	a1,a1,1366 # 55555556 <_end+0x555519b6>
    29f0:	00b50633          	add	a2,a0,a1
    29f4:	72c0ac23          	sw	a2,1848(ra)

000029f8 <inst_496>:
    29f8:	33333537          	lui	a0,0x33333
    29fc:	33250513          	addi	a0,a0,818 # 33333332 <_end+0x3332f792>
    2a00:	aaaab5b7          	lui	a1,0xaaaab
    2a04:	aab58593          	addi	a1,a1,-1365 # aaaaaaab <_end+0xaaaa6f0b>
    2a08:	00b50633          	add	a2,a0,a1
    2a0c:	72c0ae23          	sw	a2,1852(ra)

00002a10 <inst_497>:
    2a10:	33333537          	lui	a0,0x33333
    2a14:	33250513          	addi	a0,a0,818 # 33333332 <_end+0x3332f792>
    2a18:	00600593          	li	a1,6
    2a1c:	00b50633          	add	a2,a0,a1
    2a20:	74c0a023          	sw	a2,1856(ra)

00002a24 <inst_498>:
    2a24:	33333537          	lui	a0,0x33333
    2a28:	33250513          	addi	a0,a0,818 # 33333332 <_end+0x3332f792>
    2a2c:	333335b7          	lui	a1,0x33333
    2a30:	33458593          	addi	a1,a1,820 # 33333334 <_end+0x3332f794>
    2a34:	00b50633          	add	a2,a0,a1
    2a38:	74c0a223          	sw	a2,1860(ra)

00002a3c <inst_499>:
    2a3c:	33333537          	lui	a0,0x33333
    2a40:	33250513          	addi	a0,a0,818 # 33333332 <_end+0x3332f792>
    2a44:	666665b7          	lui	a1,0x66666
    2a48:	66758593          	addi	a1,a1,1639 # 66666667 <_end+0x66662ac7>
    2a4c:	00b50633          	add	a2,a0,a1
    2a50:	74c0a423          	sw	a2,1864(ra)

00002a54 <inst_500>:
    2a54:	33333537          	lui	a0,0x33333
    2a58:	33250513          	addi	a0,a0,818 # 33333332 <_end+0x3332f792>
    2a5c:	ffff55b7          	lui	a1,0xffff5
    2a60:	afd58593          	addi	a1,a1,-1283 # ffff4afd <_end+0xffff0f5d>
    2a64:	00b50633          	add	a2,a0,a1
    2a68:	74c0a623          	sw	a2,1868(ra)

00002a6c <inst_501>:
    2a6c:	33333537          	lui	a0,0x33333
    2a70:	33250513          	addi	a0,a0,818 # 33333332 <_end+0x3332f792>
    2a74:	0000b5b7          	lui	a1,0xb
    2a78:	50558593          	addi	a1,a1,1285 # b505 <_end+0x7965>
    2a7c:	00b50633          	add	a2,a0,a1
    2a80:	74c0a823          	sw	a2,1872(ra)

00002a84 <inst_502>:
    2a84:	66666537          	lui	a0,0x66666
    2a88:	66550513          	addi	a0,a0,1637 # 66666665 <_end+0x66662ac5>
    2a8c:	00300593          	li	a1,3
    2a90:	00b50633          	add	a2,a0,a1
    2a94:	74c0aa23          	sw	a2,1876(ra)

00002a98 <inst_503>:
    2a98:	66666537          	lui	a0,0x66666
    2a9c:	66550513          	addi	a0,a0,1637 # 66666665 <_end+0x66662ac5>
    2aa0:	555555b7          	lui	a1,0x55555
    2aa4:	55558593          	addi	a1,a1,1365 # 55555555 <_end+0x555519b5>
    2aa8:	00b50633          	add	a2,a0,a1
    2aac:	74c0ac23          	sw	a2,1880(ra)

00002ab0 <inst_504>:
    2ab0:	66666537          	lui	a0,0x66666
    2ab4:	66550513          	addi	a0,a0,1637 # 66666665 <_end+0x66662ac5>
    2ab8:	aaaab5b7          	lui	a1,0xaaaab
    2abc:	aaa58593          	addi	a1,a1,-1366 # aaaaaaaa <_end+0xaaaa6f0a>
    2ac0:	00b50633          	add	a2,a0,a1
    2ac4:	74c0ae23          	sw	a2,1884(ra)

00002ac8 <inst_505>:
    2ac8:	66666537          	lui	a0,0x66666
    2acc:	66550513          	addi	a0,a0,1637 # 66666665 <_end+0x66662ac5>
    2ad0:	00500593          	li	a1,5
    2ad4:	00b50633          	add	a2,a0,a1
    2ad8:	76c0a023          	sw	a2,1888(ra)

00002adc <inst_506>:
    2adc:	66666537          	lui	a0,0x66666
    2ae0:	66550513          	addi	a0,a0,1637 # 66666665 <_end+0x66662ac5>
    2ae4:	333335b7          	lui	a1,0x33333
    2ae8:	33358593          	addi	a1,a1,819 # 33333333 <_end+0x3332f793>
    2aec:	00b50633          	add	a2,a0,a1
    2af0:	76c0a223          	sw	a2,1892(ra)

00002af4 <inst_507>:
    2af4:	66666537          	lui	a0,0x66666
    2af8:	66550513          	addi	a0,a0,1637 # 66666665 <_end+0x66662ac5>
    2afc:	666665b7          	lui	a1,0x66666
    2b00:	66658593          	addi	a1,a1,1638 # 66666666 <_end+0x66662ac6>
    2b04:	00b50633          	add	a2,a0,a1
    2b08:	76c0a423          	sw	a2,1896(ra)

00002b0c <inst_508>:
    2b0c:	66666537          	lui	a0,0x66666
    2b10:	66550513          	addi	a0,a0,1637 # 66666665 <_end+0x66662ac5>
    2b14:	ffff55b7          	lui	a1,0xffff5
    2b18:	afc58593          	addi	a1,a1,-1284 # ffff4afc <_end+0xffff0f5c>
    2b1c:	00b50633          	add	a2,a0,a1
    2b20:	76c0a623          	sw	a2,1900(ra)

00002b24 <inst_509>:
    2b24:	66666537          	lui	a0,0x66666
    2b28:	66550513          	addi	a0,a0,1637 # 66666665 <_end+0x66662ac5>
    2b2c:	0000b5b7          	lui	a1,0xb
    2b30:	50458593          	addi	a1,a1,1284 # b504 <_end+0x7964>
    2b34:	00b50633          	add	a2,a0,a1
    2b38:	76c0a823          	sw	a2,1904(ra)

00002b3c <inst_510>:
    2b3c:	66666537          	lui	a0,0x66666
    2b40:	66550513          	addi	a0,a0,1637 # 66666665 <_end+0x66662ac5>
    2b44:	00200593          	li	a1,2
    2b48:	00b50633          	add	a2,a0,a1
    2b4c:	76c0aa23          	sw	a2,1908(ra)

00002b50 <inst_511>:
    2b50:	66666537          	lui	a0,0x66666
    2b54:	66550513          	addi	a0,a0,1637 # 66666665 <_end+0x66662ac5>
    2b58:	555555b7          	lui	a1,0x55555
    2b5c:	55458593          	addi	a1,a1,1364 # 55555554 <_end+0x555519b4>
    2b60:	00b50633          	add	a2,a0,a1
    2b64:	76c0ac23          	sw	a2,1912(ra)

00002b68 <inst_512>:
    2b68:	66666537          	lui	a0,0x66666
    2b6c:	66550513          	addi	a0,a0,1637 # 66666665 <_end+0x66662ac5>
    2b70:	00000593          	li	a1,0
    2b74:	00b50633          	add	a2,a0,a1
    2b78:	76c0ae23          	sw	a2,1916(ra)

00002b7c <inst_513>:
    2b7c:	66666537          	lui	a0,0x66666
    2b80:	66550513          	addi	a0,a0,1637 # 66666665 <_end+0x66662ac5>
    2b84:	00400593          	li	a1,4
    2b88:	00b50633          	add	a2,a0,a1
    2b8c:	78c0a023          	sw	a2,1920(ra)

00002b90 <inst_514>:
    2b90:	66666537          	lui	a0,0x66666
    2b94:	66550513          	addi	a0,a0,1637 # 66666665 <_end+0x66662ac5>
    2b98:	333335b7          	lui	a1,0x33333
    2b9c:	33258593          	addi	a1,a1,818 # 33333332 <_end+0x3332f792>
    2ba0:	00b50633          	add	a2,a0,a1
    2ba4:	78c0a223          	sw	a2,1924(ra)

00002ba8 <inst_515>:
    2ba8:	66666537          	lui	a0,0x66666
    2bac:	66550513          	addi	a0,a0,1637 # 66666665 <_end+0x66662ac5>
    2bb0:	666665b7          	lui	a1,0x66666
    2bb4:	66558593          	addi	a1,a1,1637 # 66666665 <_end+0x66662ac5>
    2bb8:	00b50633          	add	a2,a0,a1
    2bbc:	78c0a423          	sw	a2,1928(ra)

00002bc0 <inst_516>:
    2bc0:	66666537          	lui	a0,0x66666
    2bc4:	66550513          	addi	a0,a0,1637 # 66666665 <_end+0x66662ac5>
    2bc8:	0000b5b7          	lui	a1,0xb
    2bcc:	50358593          	addi	a1,a1,1283 # b503 <_end+0x7963>
    2bd0:	00b50633          	add	a2,a0,a1
    2bd4:	78c0a623          	sw	a2,1932(ra)

00002bd8 <inst_517>:
    2bd8:	66666537          	lui	a0,0x66666
    2bdc:	66550513          	addi	a0,a0,1637 # 66666665 <_end+0x66662ac5>
    2be0:	555555b7          	lui	a1,0x55555
    2be4:	55658593          	addi	a1,a1,1366 # 55555556 <_end+0x555519b6>
    2be8:	00b50633          	add	a2,a0,a1
    2bec:	78c0a823          	sw	a2,1936(ra)

00002bf0 <inst_518>:
    2bf0:	66666537          	lui	a0,0x66666
    2bf4:	66550513          	addi	a0,a0,1637 # 66666665 <_end+0x66662ac5>
    2bf8:	aaaab5b7          	lui	a1,0xaaaab
    2bfc:	aab58593          	addi	a1,a1,-1365 # aaaaaaab <_end+0xaaaa6f0b>
    2c00:	00b50633          	add	a2,a0,a1
    2c04:	78c0aa23          	sw	a2,1940(ra)

00002c08 <inst_519>:
    2c08:	66666537          	lui	a0,0x66666
    2c0c:	66550513          	addi	a0,a0,1637 # 66666665 <_end+0x66662ac5>
    2c10:	00600593          	li	a1,6
    2c14:	00b50633          	add	a2,a0,a1
    2c18:	78c0ac23          	sw	a2,1944(ra)

00002c1c <inst_520>:
    2c1c:	66666537          	lui	a0,0x66666
    2c20:	66550513          	addi	a0,a0,1637 # 66666665 <_end+0x66662ac5>
    2c24:	333335b7          	lui	a1,0x33333
    2c28:	33458593          	addi	a1,a1,820 # 33333334 <_end+0x3332f794>
    2c2c:	00b50633          	add	a2,a0,a1
    2c30:	78c0ae23          	sw	a2,1948(ra)

00002c34 <inst_521>:
    2c34:	66666537          	lui	a0,0x66666
    2c38:	66550513          	addi	a0,a0,1637 # 66666665 <_end+0x66662ac5>
    2c3c:	666665b7          	lui	a1,0x66666
    2c40:	66758593          	addi	a1,a1,1639 # 66666667 <_end+0x66662ac7>
    2c44:	00b50633          	add	a2,a0,a1
    2c48:	7ac0a023          	sw	a2,1952(ra)

00002c4c <inst_522>:
    2c4c:	66666537          	lui	a0,0x66666
    2c50:	66550513          	addi	a0,a0,1637 # 66666665 <_end+0x66662ac5>
    2c54:	ffff55b7          	lui	a1,0xffff5
    2c58:	afd58593          	addi	a1,a1,-1283 # ffff4afd <_end+0xffff0f5d>
    2c5c:	00b50633          	add	a2,a0,a1
    2c60:	7ac0a223          	sw	a2,1956(ra)

00002c64 <inst_523>:
    2c64:	66666537          	lui	a0,0x66666
    2c68:	66550513          	addi	a0,a0,1637 # 66666665 <_end+0x66662ac5>
    2c6c:	0000b5b7          	lui	a1,0xb
    2c70:	50558593          	addi	a1,a1,1285 # b505 <_end+0x7965>
    2c74:	00b50633          	add	a2,a0,a1
    2c78:	7ac0a423          	sw	a2,1960(ra)

00002c7c <inst_524>:
    2c7c:	0000b537          	lui	a0,0xb
    2c80:	50350513          	addi	a0,a0,1283 # b503 <_end+0x7963>
    2c84:	00300593          	li	a1,3
    2c88:	00b50633          	add	a2,a0,a1
    2c8c:	7ac0a623          	sw	a2,1964(ra)

00002c90 <inst_525>:
    2c90:	0000b537          	lui	a0,0xb
    2c94:	50350513          	addi	a0,a0,1283 # b503 <_end+0x7963>
    2c98:	555555b7          	lui	a1,0x55555
    2c9c:	55558593          	addi	a1,a1,1365 # 55555555 <_end+0x555519b5>
    2ca0:	00b50633          	add	a2,a0,a1
    2ca4:	7ac0a823          	sw	a2,1968(ra)

00002ca8 <inst_526>:
    2ca8:	0000b537          	lui	a0,0xb
    2cac:	50350513          	addi	a0,a0,1283 # b503 <_end+0x7963>
    2cb0:	aaaab5b7          	lui	a1,0xaaaab
    2cb4:	aaa58593          	addi	a1,a1,-1366 # aaaaaaaa <_end+0xaaaa6f0a>
    2cb8:	00b50633          	add	a2,a0,a1
    2cbc:	7ac0aa23          	sw	a2,1972(ra)

00002cc0 <inst_527>:
    2cc0:	0000b537          	lui	a0,0xb
    2cc4:	50350513          	addi	a0,a0,1283 # b503 <_end+0x7963>
    2cc8:	00500593          	li	a1,5
    2ccc:	00b50633          	add	a2,a0,a1
    2cd0:	7ac0ac23          	sw	a2,1976(ra)

00002cd4 <inst_528>:
    2cd4:	0000b537          	lui	a0,0xb
    2cd8:	50350513          	addi	a0,a0,1283 # b503 <_end+0x7963>
    2cdc:	333335b7          	lui	a1,0x33333
    2ce0:	33358593          	addi	a1,a1,819 # 33333333 <_end+0x3332f793>
    2ce4:	00b50633          	add	a2,a0,a1
    2ce8:	7ac0ae23          	sw	a2,1980(ra)

00002cec <inst_529>:
    2cec:	0000b537          	lui	a0,0xb
    2cf0:	50350513          	addi	a0,a0,1283 # b503 <_end+0x7963>
    2cf4:	666665b7          	lui	a1,0x66666
    2cf8:	66658593          	addi	a1,a1,1638 # 66666666 <_end+0x66662ac6>
    2cfc:	00b50633          	add	a2,a0,a1
    2d00:	7cc0a023          	sw	a2,1984(ra)

00002d04 <inst_530>:
    2d04:	0000b537          	lui	a0,0xb
    2d08:	50350513          	addi	a0,a0,1283 # b503 <_end+0x7963>
    2d0c:	ffff55b7          	lui	a1,0xffff5
    2d10:	afc58593          	addi	a1,a1,-1284 # ffff4afc <_end+0xffff0f5c>
    2d14:	00b50633          	add	a2,a0,a1
    2d18:	7cc0a223          	sw	a2,1988(ra)

00002d1c <inst_531>:
    2d1c:	0000b537          	lui	a0,0xb
    2d20:	50350513          	addi	a0,a0,1283 # b503 <_end+0x7963>
    2d24:	0000b5b7          	lui	a1,0xb
    2d28:	50458593          	addi	a1,a1,1284 # b504 <_end+0x7964>
    2d2c:	00b50633          	add	a2,a0,a1
    2d30:	7cc0a423          	sw	a2,1992(ra)

00002d34 <inst_532>:
    2d34:	0000b537          	lui	a0,0xb
    2d38:	50350513          	addi	a0,a0,1283 # b503 <_end+0x7963>
    2d3c:	00200593          	li	a1,2
    2d40:	00b50633          	add	a2,a0,a1
    2d44:	7cc0a623          	sw	a2,1996(ra)

00002d48 <inst_533>:
    2d48:	0000b537          	lui	a0,0xb
    2d4c:	50350513          	addi	a0,a0,1283 # b503 <_end+0x7963>
    2d50:	555555b7          	lui	a1,0x55555
    2d54:	55458593          	addi	a1,a1,1364 # 55555554 <_end+0x555519b4>
    2d58:	00b50633          	add	a2,a0,a1
    2d5c:	7cc0a823          	sw	a2,2000(ra)

00002d60 <inst_534>:
    2d60:	0000b537          	lui	a0,0xb
    2d64:	50350513          	addi	a0,a0,1283 # b503 <_end+0x7963>
    2d68:	00000593          	li	a1,0
    2d6c:	00b50633          	add	a2,a0,a1
    2d70:	7cc0aa23          	sw	a2,2004(ra)

00002d74 <inst_535>:
    2d74:	0000b537          	lui	a0,0xb
    2d78:	50350513          	addi	a0,a0,1283 # b503 <_end+0x7963>
    2d7c:	00400593          	li	a1,4
    2d80:	00b50633          	add	a2,a0,a1
    2d84:	7cc0ac23          	sw	a2,2008(ra)

00002d88 <inst_536>:
    2d88:	0000b537          	lui	a0,0xb
    2d8c:	50350513          	addi	a0,a0,1283 # b503 <_end+0x7963>
    2d90:	333335b7          	lui	a1,0x33333
    2d94:	33258593          	addi	a1,a1,818 # 33333332 <_end+0x3332f792>
    2d98:	00b50633          	add	a2,a0,a1
    2d9c:	7cc0ae23          	sw	a2,2012(ra)

00002da0 <inst_537>:
    2da0:	0000b537          	lui	a0,0xb
    2da4:	50350513          	addi	a0,a0,1283 # b503 <_end+0x7963>
    2da8:	666665b7          	lui	a1,0x66666
    2dac:	66558593          	addi	a1,a1,1637 # 66666665 <_end+0x66662ac5>
    2db0:	00b50633          	add	a2,a0,a1
    2db4:	7ec0a023          	sw	a2,2016(ra)

00002db8 <inst_538>:
    2db8:	0000b537          	lui	a0,0xb
    2dbc:	50350513          	addi	a0,a0,1283 # b503 <_end+0x7963>
    2dc0:	0000b5b7          	lui	a1,0xb
    2dc4:	50358593          	addi	a1,a1,1283 # b503 <_end+0x7963>
    2dc8:	00b50633          	add	a2,a0,a1
    2dcc:	7ec0a223          	sw	a2,2020(ra)

00002dd0 <inst_539>:
    2dd0:	0000b537          	lui	a0,0xb
    2dd4:	50350513          	addi	a0,a0,1283 # b503 <_end+0x7963>
    2dd8:	555555b7          	lui	a1,0x55555
    2ddc:	55658593          	addi	a1,a1,1366 # 55555556 <_end+0x555519b6>
    2de0:	00b50633          	add	a2,a0,a1
    2de4:	7ec0a423          	sw	a2,2024(ra)

00002de8 <inst_540>:
    2de8:	0000b537          	lui	a0,0xb
    2dec:	50350513          	addi	a0,a0,1283 # b503 <_end+0x7963>
    2df0:	aaaab5b7          	lui	a1,0xaaaab
    2df4:	aab58593          	addi	a1,a1,-1365 # aaaaaaab <_end+0xaaaa6f0b>
    2df8:	00b50633          	add	a2,a0,a1
    2dfc:	7ec0a623          	sw	a2,2028(ra)

00002e00 <inst_541>:
    2e00:	0000b537          	lui	a0,0xb
    2e04:	50350513          	addi	a0,a0,1283 # b503 <_end+0x7963>
    2e08:	00600593          	li	a1,6
    2e0c:	00b50633          	add	a2,a0,a1
    2e10:	7ec0a823          	sw	a2,2032(ra)

00002e14 <inst_542>:
    2e14:	0000b537          	lui	a0,0xb
    2e18:	50350513          	addi	a0,a0,1283 # b503 <_end+0x7963>
    2e1c:	333335b7          	lui	a1,0x33333
    2e20:	33458593          	addi	a1,a1,820 # 33333334 <_end+0x3332f794>
    2e24:	00b50633          	add	a2,a0,a1
    2e28:	7ec0aa23          	sw	a2,2036(ra)

00002e2c <inst_543>:
    2e2c:	0000b537          	lui	a0,0xb
    2e30:	50350513          	addi	a0,a0,1283 # b503 <_end+0x7963>
    2e34:	666665b7          	lui	a1,0x66666
    2e38:	66758593          	addi	a1,a1,1639 # 66666667 <_end+0x66662ac7>
    2e3c:	00b50633          	add	a2,a0,a1
    2e40:	7ec0ac23          	sw	a2,2040(ra)

00002e44 <inst_544>:
    2e44:	0000b537          	lui	a0,0xb
    2e48:	50350513          	addi	a0,a0,1283 # b503 <_end+0x7963>
    2e4c:	ffff55b7          	lui	a1,0xffff5
    2e50:	afd58593          	addi	a1,a1,-1283 # ffff4afd <_end+0xffff0f5d>
    2e54:	00b50633          	add	a2,a0,a1
    2e58:	7ec0ae23          	sw	a2,2044(ra)
    2e5c:	00001097          	auipc	ra,0x1
    2e60:	c9808093          	addi	ra,ra,-872 # 3af4 <signature_x1_1>

00002e64 <inst_545>:
    2e64:	0000b537          	lui	a0,0xb
    2e68:	50350513          	addi	a0,a0,1283 # b503 <_end+0x7963>
    2e6c:	0000b5b7          	lui	a1,0xb
    2e70:	50558593          	addi	a1,a1,1285 # b505 <_end+0x7965>
    2e74:	00b50633          	add	a2,a0,a1
    2e78:	00c0a023          	sw	a2,0(ra)

00002e7c <inst_546>:
    2e7c:	55555537          	lui	a0,0x55555
    2e80:	55650513          	addi	a0,a0,1366 # 55555556 <_end+0x555519b6>
    2e84:	00300593          	li	a1,3
    2e88:	00b50633          	add	a2,a0,a1
    2e8c:	00c0a223          	sw	a2,4(ra)

00002e90 <inst_547>:
    2e90:	55555537          	lui	a0,0x55555
    2e94:	55650513          	addi	a0,a0,1366 # 55555556 <_end+0x555519b6>
    2e98:	555555b7          	lui	a1,0x55555
    2e9c:	55558593          	addi	a1,a1,1365 # 55555555 <_end+0x555519b5>
    2ea0:	00b50633          	add	a2,a0,a1
    2ea4:	00c0a423          	sw	a2,8(ra)

00002ea8 <inst_548>:
    2ea8:	55555537          	lui	a0,0x55555
    2eac:	55650513          	addi	a0,a0,1366 # 55555556 <_end+0x555519b6>
    2eb0:	aaaab5b7          	lui	a1,0xaaaab
    2eb4:	aaa58593          	addi	a1,a1,-1366 # aaaaaaaa <_end+0xaaaa6f0a>
    2eb8:	00b50633          	add	a2,a0,a1
    2ebc:	00c0a623          	sw	a2,12(ra)

00002ec0 <inst_549>:
    2ec0:	55555537          	lui	a0,0x55555
    2ec4:	55650513          	addi	a0,a0,1366 # 55555556 <_end+0x555519b6>
    2ec8:	00500593          	li	a1,5
    2ecc:	00b50633          	add	a2,a0,a1
    2ed0:	00c0a823          	sw	a2,16(ra)

00002ed4 <inst_550>:
    2ed4:	55555537          	lui	a0,0x55555
    2ed8:	55650513          	addi	a0,a0,1366 # 55555556 <_end+0x555519b6>
    2edc:	333335b7          	lui	a1,0x33333
    2ee0:	33358593          	addi	a1,a1,819 # 33333333 <_end+0x3332f793>
    2ee4:	00b50633          	add	a2,a0,a1
    2ee8:	00c0aa23          	sw	a2,20(ra)

00002eec <inst_551>:
    2eec:	55555537          	lui	a0,0x55555
    2ef0:	55650513          	addi	a0,a0,1366 # 55555556 <_end+0x555519b6>
    2ef4:	666665b7          	lui	a1,0x66666
    2ef8:	66658593          	addi	a1,a1,1638 # 66666666 <_end+0x66662ac6>
    2efc:	00b50633          	add	a2,a0,a1
    2f00:	00c0ac23          	sw	a2,24(ra)

00002f04 <inst_552>:
    2f04:	55555537          	lui	a0,0x55555
    2f08:	55650513          	addi	a0,a0,1366 # 55555556 <_end+0x555519b6>
    2f0c:	ffff55b7          	lui	a1,0xffff5
    2f10:	afc58593          	addi	a1,a1,-1284 # ffff4afc <_end+0xffff0f5c>
    2f14:	00b50633          	add	a2,a0,a1
    2f18:	00c0ae23          	sw	a2,28(ra)

00002f1c <inst_553>:
    2f1c:	55555537          	lui	a0,0x55555
    2f20:	55650513          	addi	a0,a0,1366 # 55555556 <_end+0x555519b6>
    2f24:	0000b5b7          	lui	a1,0xb
    2f28:	50458593          	addi	a1,a1,1284 # b504 <_end+0x7964>
    2f2c:	00b50633          	add	a2,a0,a1
    2f30:	02c0a023          	sw	a2,32(ra)

00002f34 <inst_554>:
    2f34:	55555537          	lui	a0,0x55555
    2f38:	55650513          	addi	a0,a0,1366 # 55555556 <_end+0x555519b6>
    2f3c:	00200593          	li	a1,2
    2f40:	00b50633          	add	a2,a0,a1
    2f44:	02c0a223          	sw	a2,36(ra)

00002f48 <inst_555>:
    2f48:	55555537          	lui	a0,0x55555
    2f4c:	55650513          	addi	a0,a0,1366 # 55555556 <_end+0x555519b6>
    2f50:	555555b7          	lui	a1,0x55555
    2f54:	55458593          	addi	a1,a1,1364 # 55555554 <_end+0x555519b4>
    2f58:	00b50633          	add	a2,a0,a1
    2f5c:	02c0a423          	sw	a2,40(ra)

00002f60 <inst_556>:
    2f60:	55555537          	lui	a0,0x55555
    2f64:	55650513          	addi	a0,a0,1366 # 55555556 <_end+0x555519b6>
    2f68:	00000593          	li	a1,0
    2f6c:	00b50633          	add	a2,a0,a1
    2f70:	02c0a623          	sw	a2,44(ra)

00002f74 <inst_557>:
    2f74:	55555537          	lui	a0,0x55555
    2f78:	55650513          	addi	a0,a0,1366 # 55555556 <_end+0x555519b6>
    2f7c:	00400593          	li	a1,4
    2f80:	00b50633          	add	a2,a0,a1
    2f84:	02c0a823          	sw	a2,48(ra)

00002f88 <inst_558>:
    2f88:	55555537          	lui	a0,0x55555
    2f8c:	55650513          	addi	a0,a0,1366 # 55555556 <_end+0x555519b6>
    2f90:	333335b7          	lui	a1,0x33333
    2f94:	33258593          	addi	a1,a1,818 # 33333332 <_end+0x3332f792>
    2f98:	00b50633          	add	a2,a0,a1
    2f9c:	02c0aa23          	sw	a2,52(ra)

00002fa0 <inst_559>:
    2fa0:	55555537          	lui	a0,0x55555
    2fa4:	55650513          	addi	a0,a0,1366 # 55555556 <_end+0x555519b6>
    2fa8:	666665b7          	lui	a1,0x66666
    2fac:	66558593          	addi	a1,a1,1637 # 66666665 <_end+0x66662ac5>
    2fb0:	00b50633          	add	a2,a0,a1
    2fb4:	02c0ac23          	sw	a2,56(ra)

00002fb8 <inst_560>:
    2fb8:	55555537          	lui	a0,0x55555
    2fbc:	55650513          	addi	a0,a0,1366 # 55555556 <_end+0x555519b6>
    2fc0:	0000b5b7          	lui	a1,0xb
    2fc4:	50358593          	addi	a1,a1,1283 # b503 <_end+0x7963>
    2fc8:	00b50633          	add	a2,a0,a1
    2fcc:	02c0ae23          	sw	a2,60(ra)

00002fd0 <inst_561>:
    2fd0:	55555537          	lui	a0,0x55555
    2fd4:	55650513          	addi	a0,a0,1366 # 55555556 <_end+0x555519b6>
    2fd8:	aaaab5b7          	lui	a1,0xaaaab
    2fdc:	aab58593          	addi	a1,a1,-1365 # aaaaaaab <_end+0xaaaa6f0b>
    2fe0:	00b50633          	add	a2,a0,a1
    2fe4:	04c0a023          	sw	a2,64(ra)

00002fe8 <inst_562>:
    2fe8:	55555537          	lui	a0,0x55555
    2fec:	55650513          	addi	a0,a0,1366 # 55555556 <_end+0x555519b6>
    2ff0:	00600593          	li	a1,6
    2ff4:	00b50633          	add	a2,a0,a1
    2ff8:	04c0a223          	sw	a2,68(ra)

00002ffc <inst_563>:
    2ffc:	55555537          	lui	a0,0x55555
    3000:	55650513          	addi	a0,a0,1366 # 55555556 <_end+0x555519b6>
    3004:	333335b7          	lui	a1,0x33333
    3008:	33458593          	addi	a1,a1,820 # 33333334 <_end+0x3332f794>
    300c:	00b50633          	add	a2,a0,a1
    3010:	04c0a423          	sw	a2,72(ra)

00003014 <inst_564>:
    3014:	55555537          	lui	a0,0x55555
    3018:	55650513          	addi	a0,a0,1366 # 55555556 <_end+0x555519b6>
    301c:	666665b7          	lui	a1,0x66666
    3020:	66758593          	addi	a1,a1,1639 # 66666667 <_end+0x66662ac7>
    3024:	00b50633          	add	a2,a0,a1
    3028:	04c0a623          	sw	a2,76(ra)

0000302c <inst_565>:
    302c:	55555537          	lui	a0,0x55555
    3030:	55650513          	addi	a0,a0,1366 # 55555556 <_end+0x555519b6>
    3034:	ffff55b7          	lui	a1,0xffff5
    3038:	afd58593          	addi	a1,a1,-1283 # ffff4afd <_end+0xffff0f5d>
    303c:	00b50633          	add	a2,a0,a1
    3040:	04c0a823          	sw	a2,80(ra)

00003044 <inst_566>:
    3044:	55555537          	lui	a0,0x55555
    3048:	55650513          	addi	a0,a0,1366 # 55555556 <_end+0x555519b6>
    304c:	0000b5b7          	lui	a1,0xb
    3050:	50558593          	addi	a1,a1,1285 # b505 <_end+0x7965>
    3054:	00b50633          	add	a2,a0,a1
    3058:	04c0aa23          	sw	a2,84(ra)

0000305c <inst_567>:
    305c:	aaaab537          	lui	a0,0xaaaab
    3060:	aab50513          	addi	a0,a0,-1365 # aaaaaaab <_end+0xaaaa6f0b>
    3064:	00300593          	li	a1,3
    3068:	00b50633          	add	a2,a0,a1
    306c:	04c0ac23          	sw	a2,88(ra)

00003070 <inst_568>:
    3070:	aaaab537          	lui	a0,0xaaaab
    3074:	aab50513          	addi	a0,a0,-1365 # aaaaaaab <_end+0xaaaa6f0b>
    3078:	555555b7          	lui	a1,0x55555
    307c:	55558593          	addi	a1,a1,1365 # 55555555 <_end+0x555519b5>
    3080:	00b50633          	add	a2,a0,a1
    3084:	04c0ae23          	sw	a2,92(ra)

00003088 <inst_569>:
    3088:	aaaab537          	lui	a0,0xaaaab
    308c:	aab50513          	addi	a0,a0,-1365 # aaaaaaab <_end+0xaaaa6f0b>
    3090:	aaaab5b7          	lui	a1,0xaaaab
    3094:	aaa58593          	addi	a1,a1,-1366 # aaaaaaaa <_end+0xaaaa6f0a>
    3098:	00b50633          	add	a2,a0,a1
    309c:	06c0a023          	sw	a2,96(ra)

000030a0 <inst_570>:
    30a0:	aaaab537          	lui	a0,0xaaaab
    30a4:	aab50513          	addi	a0,a0,-1365 # aaaaaaab <_end+0xaaaa6f0b>
    30a8:	00500593          	li	a1,5
    30ac:	00b50633          	add	a2,a0,a1
    30b0:	06c0a223          	sw	a2,100(ra)

000030b4 <inst_571>:
    30b4:	aaaab537          	lui	a0,0xaaaab
    30b8:	aab50513          	addi	a0,a0,-1365 # aaaaaaab <_end+0xaaaa6f0b>
    30bc:	333335b7          	lui	a1,0x33333
    30c0:	33358593          	addi	a1,a1,819 # 33333333 <_end+0x3332f793>
    30c4:	00b50633          	add	a2,a0,a1
    30c8:	06c0a423          	sw	a2,104(ra)

000030cc <inst_572>:
    30cc:	aaaab537          	lui	a0,0xaaaab
    30d0:	aab50513          	addi	a0,a0,-1365 # aaaaaaab <_end+0xaaaa6f0b>
    30d4:	666665b7          	lui	a1,0x66666
    30d8:	66658593          	addi	a1,a1,1638 # 66666666 <_end+0x66662ac6>
    30dc:	00b50633          	add	a2,a0,a1
    30e0:	06c0a623          	sw	a2,108(ra)

000030e4 <inst_573>:
    30e4:	aaaab537          	lui	a0,0xaaaab
    30e8:	aab50513          	addi	a0,a0,-1365 # aaaaaaab <_end+0xaaaa6f0b>
    30ec:	ffff55b7          	lui	a1,0xffff5
    30f0:	afc58593          	addi	a1,a1,-1284 # ffff4afc <_end+0xffff0f5c>
    30f4:	00b50633          	add	a2,a0,a1
    30f8:	06c0a823          	sw	a2,112(ra)

000030fc <inst_574>:
    30fc:	aaaab537          	lui	a0,0xaaaab
    3100:	aab50513          	addi	a0,a0,-1365 # aaaaaaab <_end+0xaaaa6f0b>
    3104:	0000b5b7          	lui	a1,0xb
    3108:	50458593          	addi	a1,a1,1284 # b504 <_end+0x7964>
    310c:	00b50633          	add	a2,a0,a1
    3110:	06c0aa23          	sw	a2,116(ra)

00003114 <inst_575>:
    3114:	aaaab537          	lui	a0,0xaaaab
    3118:	aab50513          	addi	a0,a0,-1365 # aaaaaaab <_end+0xaaaa6f0b>
    311c:	00200593          	li	a1,2
    3120:	00b50633          	add	a2,a0,a1
    3124:	06c0ac23          	sw	a2,120(ra)

00003128 <inst_576>:
    3128:	aaaab537          	lui	a0,0xaaaab
    312c:	aab50513          	addi	a0,a0,-1365 # aaaaaaab <_end+0xaaaa6f0b>
    3130:	555555b7          	lui	a1,0x55555
    3134:	55458593          	addi	a1,a1,1364 # 55555554 <_end+0x555519b4>
    3138:	00b50633          	add	a2,a0,a1
    313c:	06c0ae23          	sw	a2,124(ra)

00003140 <inst_577>:
    3140:	aaaab537          	lui	a0,0xaaaab
    3144:	aab50513          	addi	a0,a0,-1365 # aaaaaaab <_end+0xaaaa6f0b>
    3148:	00000593          	li	a1,0
    314c:	00b50633          	add	a2,a0,a1
    3150:	08c0a023          	sw	a2,128(ra)

00003154 <inst_578>:
    3154:	aaaab537          	lui	a0,0xaaaab
    3158:	aab50513          	addi	a0,a0,-1365 # aaaaaaab <_end+0xaaaa6f0b>
    315c:	00400593          	li	a1,4
    3160:	00b50633          	add	a2,a0,a1
    3164:	08c0a223          	sw	a2,132(ra)

00003168 <inst_579>:
    3168:	aaaab537          	lui	a0,0xaaaab
    316c:	aab50513          	addi	a0,a0,-1365 # aaaaaaab <_end+0xaaaa6f0b>
    3170:	333335b7          	lui	a1,0x33333
    3174:	33258593          	addi	a1,a1,818 # 33333332 <_end+0x3332f792>
    3178:	00b50633          	add	a2,a0,a1
    317c:	08c0a423          	sw	a2,136(ra)

00003180 <inst_580>:
    3180:	aaaab537          	lui	a0,0xaaaab
    3184:	aab50513          	addi	a0,a0,-1365 # aaaaaaab <_end+0xaaaa6f0b>
    3188:	666665b7          	lui	a1,0x66666
    318c:	66558593          	addi	a1,a1,1637 # 66666665 <_end+0x66662ac5>
    3190:	00b50633          	add	a2,a0,a1
    3194:	08c0a623          	sw	a2,140(ra)

00003198 <inst_581>:
    3198:	aaaab537          	lui	a0,0xaaaab
    319c:	aab50513          	addi	a0,a0,-1365 # aaaaaaab <_end+0xaaaa6f0b>
    31a0:	0000b5b7          	lui	a1,0xb
    31a4:	50358593          	addi	a1,a1,1283 # b503 <_end+0x7963>
    31a8:	00b50633          	add	a2,a0,a1
    31ac:	08c0a823          	sw	a2,144(ra)

000031b0 <inst_582>:
    31b0:	aaaab537          	lui	a0,0xaaaab
    31b4:	aab50513          	addi	a0,a0,-1365 # aaaaaaab <_end+0xaaaa6f0b>
    31b8:	555555b7          	lui	a1,0x55555
    31bc:	55658593          	addi	a1,a1,1366 # 55555556 <_end+0x555519b6>
    31c0:	00b50633          	add	a2,a0,a1
    31c4:	08c0aa23          	sw	a2,148(ra)

000031c8 <inst_583>:
    31c8:	00020537          	lui	a0,0x20
    31cc:	eff00593          	li	a1,-257
    31d0:	00b50633          	add	a2,a0,a1
    31d4:	08c0ac23          	sw	a2,152(ra)

000031d8 <inst_584>:
    31d8:	ff000537          	lui	a0,0xff000
    31dc:	fff50513          	addi	a0,a0,-1 # feffffff <_end+0xfeffc45f>
    31e0:	ff900593          	li	a1,-7
    31e4:	00b50633          	add	a2,a0,a1
    31e8:	08c0ae23          	sw	a2,156(ra)

000031ec <inst_585>:
    31ec:	00100513          	li	a0,1
    31f0:	008005b7          	lui	a1,0x800
    31f4:	00b50633          	add	a2,a0,a1
    31f8:	0ac0a023          	sw	a2,160(ra)

000031fc <inst_586>:
    31fc:	ffff5537          	lui	a0,0xffff5
    3200:	afc50513          	addi	a0,a0,-1284 # ffff4afc <_end+0xffff0f5c>
    3204:	40000593          	li	a1,1024
    3208:	00b50633          	add	a2,a0,a1
    320c:	0ac0a223          	sw	a2,164(ra)

00003210 <inst_587>:
    3210:	00400513          	li	a0,4
    3214:	000015b7          	lui	a1,0x1
    3218:	00b50633          	add	a2,a0,a1
    321c:	0ac0a423          	sw	a2,168(ra)

00003220 <rvtest_code_end>:
    3220:	00000297          	auipc	t0,0x0
    3224:	05028293          	addi	t0,t0,80 # 3270 <begin_signature>
    3228:	00004337          	lui	t1,0x4
    322c:	ff030313          	addi	t1,t1,-16 # 3ff0 <_end+0x450>
    3230:	00532023          	sw	t0,0(t1)
    3234:	00001297          	auipc	t0,0x1
    3238:	96c28293          	addi	t0,t0,-1684 # 3ba0 <_end>
    323c:	00004337          	lui	t1,0x4
    3240:	ff430313          	addi	t1,t1,-12 # 3ff4 <_end+0x454>
    3244:	00532023          	sw	t0,0(t1)

00003248 <self_loop>:
    3248:	0000006f          	j	3248 <self_loop>
    324c:	0000                	unimp
    324e:	0000                	unimp
    3250:	0000                	unimp
    3252:	0000                	unimp
    3254:	0000                	unimp
    3256:	0000                	unimp
