
generated/addi-01.elf:     file format elf32-littleriscv


Disassembly of section .text.init:

00000000 <rvtest_entry_point>:
       0:	feedc0b7          	lui	ra,0xfeedc
       4:	ead08093          	addi	ra,ra,-339 # feedbead <_end+0xfeed942d>
       8:	ff76e137          	lui	sp,0xff76e
       c:	f5610113          	addi	sp,sp,-170 # ff76df56 <_end+0xff76b4d6>
      10:	7fbb71b7          	lui	gp,0x7fbb7
      14:	fab18193          	addi	gp,gp,-85 # 7fbb6fab <_end+0x7fbb452b>
      18:	bfddb237          	lui	tp,0xbfddb
      1c:	7d520213          	addi	tp,tp,2005 # bfddb7d5 <_end+0xbfdd8d55>
      20:	00000297          	auipc	t0,0x0
      24:	0d828293          	addi	t0,t0,216 # f8 <rvtest_code_begin>
      28:	00002317          	auipc	t1,0x2
      2c:	17830313          	addi	t1,t1,376 # 21a0 <rvtest_data_begin>
      30:	b7fbb3b7          	lui	t2,0xb7fbb
      34:	6fa38393          	addi	t2,t2,1786 # b7fbb6fa <_end+0xb7fb8c7a>
      38:	5bfde437          	lui	s0,0x5bfde
      3c:	b7d40413          	addi	s0,s0,-1155 # 5bfddb7d <_end+0x5bfdb0fd>
      40:	adfef4b7          	lui	s1,0xadfef
      44:	dbe48493          	addi	s1,s1,-578 # adfeedbe <_end+0xadfec33e>
      48:	56ff7537          	lui	a0,0x56ff7
      4c:	6df50513          	addi	a0,a0,1759 # 56ff76df <_end+0x56ff4c5f>
      50:	ab7fc5b7          	lui	a1,0xab7fc
      54:	b6f58593          	addi	a1,a1,-1169 # ab7fbb6f <_end+0xab7f90ef>
      58:	d5bfe637          	lui	a2,0xd5bfe
      5c:	db760613          	addi	a2,a2,-585 # d5bfddb7 <_end+0xd5bfb337>
      60:	eadff6b7          	lui	a3,0xeadff
      64:	edb68693          	addi	a3,a3,-293 # eadfeedb <_end+0xeadfc45b>
      68:	f56ff737          	lui	a4,0xf56ff
      6c:	76d70713          	addi	a4,a4,1901 # f56ff76d <_end+0xf56fcced>
      70:	fab807b7          	lui	a5,0xfab80
      74:	bb678793          	addi	a5,a5,-1098 # fab7fbb6 <_end+0xfab7d136>
      78:	7d5c0837          	lui	a6,0x7d5c0
      7c:	ddb80813          	addi	a6,a6,-549 # 7d5bfddb <_end+0x7d5bd35b>
      80:	beae08b7          	lui	a7,0xbeae0
      84:	eed88893          	addi	a7,a7,-275 # beadfeed <_end+0xbeadd46d>
      88:	df570937          	lui	s2,0xdf570
      8c:	f7690913          	addi	s2,s2,-138 # df56ff76 <_end+0xdf56d4f6>
      90:	6fab89b7          	lui	s3,0x6fab8
      94:	fbb98993          	addi	s3,s3,-69 # 6fab7fbb <_end+0x6fab553b>
      98:	b7d5ca37          	lui	s4,0xb7d5c
      9c:	fdda0a13          	addi	s4,s4,-35 # b7d5bfdd <_end+0xb7d5955d>
      a0:	dbeaeab7          	lui	s5,0xdbeae
      a4:	feea8a93          	addi	s5,s5,-18 # dbeadfee <_end+0xdbeab56e>
      a8:	6df57b37          	lui	s6,0x6df57
      ac:	ff7b0b13          	addi	s6,s6,-9 # 6df56ff7 <_end+0x6df54577>
      b0:	b6fabbb7          	lui	s7,0xb6fab
      b4:	7fbb8b93          	addi	s7,s7,2043 # b6fab7fb <_end+0xb6fa8d7b>
      b8:	db7d6c37          	lui	s8,0xdb7d6
      bc:	bfdc0c13          	addi	s8,s8,-1027 # db7d5bfd <_end+0xdb7d317d>
      c0:	edbebcb7          	lui	s9,0xedbeb
      c4:	dfec8c93          	addi	s9,s9,-514 # edbeadfe <_end+0xedbe837e>
      c8:	76df5d37          	lui	s10,0x76df5
      cc:	6ffd0d13          	addi	s10,s10,1791 # 76df56ff <_end+0x76df2c7f>
      d0:	bb6fbdb7          	lui	s11,0xbb6fb
      d4:	b7fd8d93          	addi	s11,s11,-1153 # bb6fab7f <_end+0xbb6f80ff>
      d8:	ddb7de37          	lui	t3,0xddb7d
      dc:	5bfe0e13          	addi	t3,t3,1471 # ddb7d5bf <_end+0xddb7ab3f>
      e0:	eedbfeb7          	lui	t4,0xeedbf
      e4:	adfe8e93          	addi	t4,t4,-1313 # eedbeadf <_end+0xeedbc05f>
      e8:	f76dff37          	lui	t5,0xf76df
      ec:	56ff0f13          	addi	t5,t5,1391 # f76df56f <_end+0xf76dcaef>
      f0:	fbb70fb7          	lui	t6,0xfbb70
      f4:	ab7f8f93          	addi	t6,t6,-1353 # fbb6fab7 <_end+0xfbb6d037>

000000f8 <rvtest_code_begin>:
      f8:	00002717          	auipc	a4,0x2
      fc:	0b870713          	addi	a4,a4,184 # 21b0 <begin_signature>

00000100 <inst_0>:
     100:	20000a37          	lui	s4,0x20000
     104:	800a0393          	addi	t2,s4,-2048 # 1ffff800 <_end+0x1fffcd80>
     108:	00772023          	sw	t2,0(a4)

0000010c <inst_1>:
     10c:	40000193          	li	gp,1024
     110:	00018193          	mv	gp,gp
     114:	00372223          	sw	gp,4(a4)

00000118 <inst_2>:
     118:	dff00213          	li	tp,-513
     11c:	7ff20b13          	addi	s6,tp,2047 # 7ff <inst_129+0x3>
     120:	01672423          	sw	s6,8(a4)

00000124 <inst_3>:
     124:	00000f13          	li	t5,0
     128:	001f0593          	addi	a1,t5,1
     12c:	00b72623          	sw	a1,12(a4)

00000130 <inst_4>:
     130:	80000db7          	lui	s11,0x80000
     134:	010d8f93          	addi	t6,s11,16 # 80000010 <_end+0x7fffd590>
     138:	01f72823          	sw	t6,16(a4)

0000013c <inst_5>:
     13c:	800008b7          	lui	a7,0x80000
     140:	fff88893          	addi	a7,a7,-1 # 7fffffff <_end+0x7fffd57f>
     144:	00688f13          	addi	t5,a7,6
     148:	01e72a23          	sw	t5,20(a4)

0000014c <inst_6>:
     14c:	00100913          	li	s2,1
     150:	00490e13          	addi	t3,s2,4
     154:	01c72c23          	sw	t3,24(a4)

00000158 <inst_7>:
     158:	00500693          	li	a3,5
     15c:	00568313          	addi	t1,a3,5
     160:	00672e23          	sw	t1,28(a4)

00000164 <inst_8>:
     164:	aaaab537          	lui	a0,0xaaaab
     168:	aab50513          	addi	a0,a0,-1365 # aaaaaaab <_end+0xaaaa802b>
     16c:	fdf50813          	addi	a6,a0,-33
     170:	03072023          	sw	a6,32(a4)

00000174 <inst_9>:
     174:	fef00493          	li	s1,-17
     178:	00248a93          	addi	s5,s1,2
     17c:	03572223          	sw	s5,36(a4)

00000180 <inst_10>:
     180:	0000b3b7          	lui	t2,0xb
     184:	50538393          	addi	t2,t2,1285 # b505 <_end+0x8a85>
     188:	00838113          	addi	sp,t2,8
     18c:	02272423          	sw	sp,40(a4)

00000190 <inst_11>:
     190:	ffff5b37          	lui	s6,0xffff5
     194:	afcb0b13          	addi	s6,s6,-1284 # ffff4afc <_end+0xffff207c>
     198:	020b0913          	addi	s2,s6,32
     19c:	03272623          	sw	s2,44(a4)

000001a0 <inst_12>:
     1a0:	ffe00eb7          	lui	t4,0xffe00
     1a4:	fffe8e93          	addi	t4,t4,-1 # ffdfffff <_end+0xffdfd57f>
     1a8:	040e8013          	addi	zero,t4,64
     1ac:	02072823          	sw	zero,48(a4)

000001b0 <inst_13>:
     1b0:	00500c93          	li	s9,5
     1b4:	080c8693          	addi	a3,s9,128
     1b8:	02d72a23          	sw	a3,52(a4)

000001bc <inst_14>:
     1bc:	fe0005b7          	lui	a1,0xfe000
     1c0:	fff58593          	addi	a1,a1,-1 # fdffffff <_end+0xfdffd57f>
     1c4:	10058e93          	addi	t4,a1,256
     1c8:	03d72c23          	sw	t4,56(a4)

000001cc <inst_15>:
     1cc:	01000313          	li	t1,16
     1d0:	20030413          	addi	s0,t1,512
     1d4:	02872e23          	sw	s0,60(a4)

000001d8 <inst_16>:
     1d8:	00200993          	li	s3,2
     1dc:	40098213          	addi	tp,s3,1024
     1e0:	04472023          	sw	tp,64(a4)

000001e4 <inst_17>:
     1e4:	55555637          	lui	a2,0x55555
     1e8:	55460613          	addi	a2,a2,1364 # 55555554 <_end+0x55552ad4>
     1ec:	ffe60513          	addi	a0,a2,-2
     1f0:	04a72223          	sw	a0,68(a4)

000001f4 <inst_18>:
     1f4:	55555fb7          	lui	t6,0x55555
     1f8:	555f8f93          	addi	t6,t6,1365 # 55555555 <_end+0x55552ad5>
     1fc:	ffdf8d13          	addi	s10,t6,-3
     200:	05a72423          	sw	s10,72(a4)

00000204 <inst_19>:
     204:	55555d37          	lui	s10,0x55555
     208:	554d0d13          	addi	s10,s10,1364 # 55555554 <_end+0x55552ad4>
     20c:	ffbd0793          	addi	a5,s10,-5
     210:	04f72623          	sw	a5,76(a4)

00000214 <inst_20>:
     214:	00300293          	li	t0,3
     218:	ff728993          	addi	s3,t0,-9
     21c:	05372823          	sw	s3,80(a4)

00000220 <inst_21>:
     220:	00000013          	nop
     224:	fef00093          	li	ra,-17
     228:	04172a23          	sw	ra,84(a4)
     22c:	00002197          	auipc	gp,0x2
     230:	fdc18193          	addi	gp,gp,-36 # 2208 <signature_x3_0>

00000234 <inst_22>:
     234:	00800c37          	lui	s8,0x800
     238:	fbfc0b93          	addi	s7,s8,-65 # 7fffbf <_end+0x7fd53f>
     23c:	0171a023          	sw	s7,0(gp)

00000240 <inst_23>:
     240:	fef00793          	li	a5,-17
     244:	f7f78d93          	addi	s11,a5,-129
     248:	01b1a223          	sw	s11,4(gp)

0000024c <inst_24>:
     24c:	55555737          	lui	a4,0x55555
     250:	55570713          	addi	a4,a4,1365 # 55555555 <_end+0x55552ad5>
     254:	eff70893          	addi	a7,a4,-257
     258:	0111a423          	sw	a7,8(gp)

0000025c <inst_25>:
     25c:	55555ab7          	lui	s5,0x55555
     260:	556a8a93          	addi	s5,s5,1366 # 55555556 <_end+0x55552ad6>
     264:	dffa8c93          	addi	s9,s5,-513
     268:	0191a623          	sw	s9,12(gp)

0000026c <inst_26>:
     26c:	000020b7          	lui	ra,0x2
     270:	bff08c13          	addi	s8,ra,-1025 # 1bff <inst_470+0x7>
     274:	0181a823          	sw	s8,16(gp)

00000278 <inst_27>:
     278:	aaaab837          	lui	a6,0xaaaab
     27c:	aaa80813          	addi	a6,a6,-1366 # aaaaaaaa <_end+0xaaaa802a>
     280:	55580613          	addi	a2,a6,1365
     284:	00c1aa23          	sw	a2,20(gp)

00000288 <inst_28>:
     288:	00000113          	li	sp,0
     28c:	aaa10713          	addi	a4,sp,-1366
     290:	00e1ac23          	sw	a4,24(gp)

00000294 <inst_29>:
     294:	00400b93          	li	s7,4
     298:	004b8a13          	addi	s4,s7,4
     29c:	0141ae23          	sw	s4,28(gp)

000002a0 <inst_30>:
     2a0:	00800e13          	li	t3,8
     2a4:	010e0293          	addi	t0,t3,16
     2a8:	0251a023          	sw	t0,32(gp)

000002ac <inst_31>:
     2ac:	02000413          	li	s0,32
     2b0:	fd440493          	addi	s1,s0,-44
     2b4:	0291a223          	sw	s1,36(gp)

000002b8 <inst_32>:
     2b8:	04000513          	li	a0,64
     2bc:	fbf50593          	addi	a1,a0,-65
     2c0:	02b1a423          	sw	a1,40(gp)

000002c4 <inst_33>:
     2c4:	08000513          	li	a0,128
     2c8:	00550593          	addi	a1,a0,5
     2cc:	02b1a623          	sw	a1,44(gp)

000002d0 <inst_34>:
     2d0:	10000513          	li	a0,256
     2d4:	c0050593          	addi	a1,a0,-1024
     2d8:	02b1a823          	sw	a1,48(gp)

000002dc <inst_35>:
     2dc:	20000513          	li	a0,512
     2e0:	10050593          	addi	a1,a0,256
     2e4:	02b1aa23          	sw	a1,52(gp)

000002e8 <inst_36>:
     2e8:	00001537          	lui	a0,0x1
     2ec:	80050513          	addi	a0,a0,-2048 # 800 <inst_129+0x4>
     2f0:	ff650593          	addi	a1,a0,-10
     2f4:	02b1ac23          	sw	a1,56(gp)

000002f8 <inst_37>:
     2f8:	00001537          	lui	a0,0x1
     2fc:	04050593          	addi	a1,a0,64 # 1040 <inst_270+0x8>
     300:	02b1ae23          	sw	a1,60(gp)

00000304 <inst_38>:
     304:	00004537          	lui	a0,0x4
     308:	33250593          	addi	a1,a0,818 # 4332 <_end+0x18b2>
     30c:	04b1a023          	sw	a1,64(gp)

00000310 <inst_39>:
     310:	00008537          	lui	a0,0x8
     314:	c0050593          	addi	a1,a0,-1024 # 7c00 <_end+0x5180>
     318:	04b1a223          	sw	a1,68(gp)

0000031c <inst_40>:
     31c:	00010537          	lui	a0,0x10
     320:	eff50593          	addi	a1,a0,-257 # feff <_end+0xd47f>
     324:	04b1a423          	sw	a1,72(gp)

00000328 <inst_41>:
     328:	00020537          	lui	a0,0x20
     32c:	00450593          	addi	a1,a0,4 # 20004 <_end+0x1d584>
     330:	04b1a623          	sw	a1,76(gp)

00000334 <inst_42>:
     334:	00040537          	lui	a0,0x40
     338:	00050593          	mv	a1,a0
     33c:	04b1a823          	sw	a1,80(gp)

00000340 <inst_43>:
     340:	00080537          	lui	a0,0x80
     344:	00550593          	addi	a1,a0,5 # 80005 <_end+0x7d585>
     348:	04b1aa23          	sw	a1,84(gp)

0000034c <inst_44>:
     34c:	00100537          	lui	a0,0x100
     350:	02c50593          	addi	a1,a0,44 # 10002c <_end+0xfd5ac>
     354:	04b1ac23          	sw	a1,88(gp)

00000358 <inst_45>:
     358:	00200537          	lui	a0,0x200
     35c:	ffc50593          	addi	a1,a0,-4 # 1ffffc <_end+0x1fd57c>
     360:	04b1ae23          	sw	a1,92(gp)

00000364 <inst_46>:
     364:	00400537          	lui	a0,0x400
     368:	02e50593          	addi	a1,a0,46 # 40002e <_end+0x3fd5ae>
     36c:	06b1a023          	sw	a1,96(gp)

00000370 <inst_47>:
     370:	01000537          	lui	a0,0x1000
     374:	c0050593          	addi	a1,a0,-1024 # fffc00 <_end+0xffd180>
     378:	06b1a223          	sw	a1,100(gp)

0000037c <inst_48>:
     37c:	02000537          	lui	a0,0x2000
     380:	fef50593          	addi	a1,a0,-17 # 1ffffef <_end+0x1ffd56f>
     384:	06b1a423          	sw	a1,104(gp)

00000388 <inst_49>:
     388:	04000537          	lui	a0,0x4000
     38c:	ffe50593          	addi	a1,a0,-2 # 3fffffe <_end+0x3ffd57e>
     390:	06b1a623          	sw	a1,108(gp)

00000394 <inst_50>:
     394:	08000537          	lui	a0,0x8000
     398:	00350593          	addi	a1,a0,3 # 8000003 <_end+0x7ffd583>
     39c:	06b1a823          	sw	a1,112(gp)

000003a0 <inst_51>:
     3a0:	10000537          	lui	a0,0x10000
     3a4:	f7f50593          	addi	a1,a0,-129 # fffff7f <_end+0xfffd4ff>
     3a8:	06b1aa23          	sw	a1,116(gp)

000003ac <inst_52>:
     3ac:	40000537          	lui	a0,0x40000
     3b0:	ffe50593          	addi	a1,a0,-2 # 3ffffffe <_end+0x3fffd57e>
     3b4:	06b1ac23          	sw	a1,120(gp)

000003b8 <inst_53>:
     3b8:	ffe00513          	li	a0,-2
     3bc:	dff50593          	addi	a1,a0,-513
     3c0:	06b1ae23          	sw	a1,124(gp)

000003c4 <inst_54>:
     3c4:	ffd00513          	li	a0,-3
     3c8:	ff750593          	addi	a1,a0,-9
     3cc:	08b1a023          	sw	a1,128(gp)

000003d0 <inst_55>:
     3d0:	ffb00513          	li	a0,-5
     3d4:	fd350593          	addi	a1,a0,-45
     3d8:	08b1a223          	sw	a1,132(gp)

000003dc <inst_56>:
     3dc:	ff700513          	li	a0,-9
     3e0:	33450593          	addi	a1,a0,820
     3e4:	08b1a423          	sw	a1,136(gp)

000003e8 <inst_57>:
     3e8:	fdf00513          	li	a0,-33
     3ec:	ffb50593          	addi	a1,a0,-5
     3f0:	08b1a623          	sw	a1,140(gp)

000003f4 <inst_58>:
     3f4:	fbf00513          	li	a0,-65
     3f8:	ff750593          	addi	a1,a0,-9
     3fc:	08b1a823          	sw	a1,144(gp)

00000400 <inst_59>:
     400:	f7f00513          	li	a0,-129
     404:	fef50593          	addi	a1,a0,-17
     408:	08b1aa23          	sw	a1,148(gp)

0000040c <inst_60>:
     40c:	eff00513          	li	a0,-257
     410:	20050593          	addi	a1,a0,512
     414:	08b1ac23          	sw	a1,152(gp)

00000418 <inst_61>:
     418:	bff00513          	li	a0,-1025
     41c:	fd450593          	addi	a1,a0,-44
     420:	08b1ae23          	sw	a1,156(gp)

00000424 <inst_62>:
     424:	fffff537          	lui	a0,0xfffff
     428:	7ff50513          	addi	a0,a0,2047 # fffff7ff <_end+0xffffcd7f>
     42c:	00450593          	addi	a1,a0,4
     430:	0ab1a023          	sw	a1,160(gp)

00000434 <inst_63>:
     434:	fffff537          	lui	a0,0xfffff
     438:	fff50513          	addi	a0,a0,-1 # ffffefff <_end+0xffffc57f>
     43c:	00850593          	addi	a1,a0,8
     440:	0ab1a223          	sw	a1,164(gp)

00000444 <inst_64>:
     444:	ffffe537          	lui	a0,0xffffe
     448:	fff50513          	addi	a0,a0,-1 # ffffdfff <_end+0xffffb57f>
     44c:	dff50593          	addi	a1,a0,-513
     450:	0ab1a423          	sw	a1,168(gp)

00000454 <inst_65>:
     454:	ffffc537          	lui	a0,0xffffc
     458:	fff50513          	addi	a0,a0,-1 # ffffbfff <_end+0xffff957f>
     45c:	40050593          	addi	a1,a0,1024
     460:	0ab1a623          	sw	a1,172(gp)

00000464 <inst_66>:
     464:	ffff8537          	lui	a0,0xffff8
     468:	fff50513          	addi	a0,a0,-1 # ffff7fff <_end+0xffff557f>
     46c:	aaa50593          	addi	a1,a0,-1366
     470:	0ab1a823          	sw	a1,176(gp)

00000474 <inst_67>:
     474:	ffff0537          	lui	a0,0xffff0
     478:	fff50513          	addi	a0,a0,-1 # fffeffff <_end+0xfffed57f>
     47c:	00750593          	addi	a1,a0,7
     480:	0ab1aa23          	sw	a1,180(gp)

00000484 <inst_68>:
     484:	fffe0537          	lui	a0,0xfffe0
     488:	fff50513          	addi	a0,a0,-1 # fffdffff <_end+0xfffdd57f>
     48c:	08050593          	addi	a1,a0,128
     490:	0ab1ac23          	sw	a1,184(gp)

00000494 <inst_69>:
     494:	fffc0537          	lui	a0,0xfffc0
     498:	fff50513          	addi	a0,a0,-1 # fffbffff <_end+0xfffbd57f>
     49c:	00850593          	addi	a1,a0,8
     4a0:	0ab1ae23          	sw	a1,188(gp)

000004a4 <inst_70>:
     4a4:	fff80537          	lui	a0,0xfff80
     4a8:	fff50513          	addi	a0,a0,-1 # fff7ffff <_end+0xfff7d57f>
     4ac:	80050593          	addi	a1,a0,-2048
     4b0:	0cb1a023          	sw	a1,192(gp)

000004b4 <inst_71>:
     4b4:	fff00537          	lui	a0,0xfff00
     4b8:	fff50513          	addi	a0,a0,-1 # ffefffff <_end+0xffefd57f>
     4bc:	fdf50593          	addi	a1,a0,-33
     4c0:	0cb1a223          	sw	a1,196(gp)

000004c4 <inst_72>:
     4c4:	ffc00537          	lui	a0,0xffc00
     4c8:	fff50513          	addi	a0,a0,-1 # ffbfffff <_end+0xffbfd57f>
     4cc:	55450593          	addi	a1,a0,1364
     4d0:	0cb1a423          	sw	a1,200(gp)

000004d4 <inst_73>:
     4d4:	ff800537          	lui	a0,0xff800
     4d8:	fff50513          	addi	a0,a0,-1 # ff7fffff <_end+0xff7fd57f>
     4dc:	ff650593          	addi	a1,a0,-10
     4e0:	0cb1a623          	sw	a1,204(gp)

000004e4 <inst_74>:
     4e4:	ff000537          	lui	a0,0xff000
     4e8:	fff50513          	addi	a0,a0,-1 # feffffff <_end+0xfeffd57f>
     4ec:	02c50593          	addi	a1,a0,44
     4f0:	0cb1a823          	sw	a1,208(gp)

000004f4 <inst_75>:
     4f4:	fc000537          	lui	a0,0xfc000
     4f8:	fff50513          	addi	a0,a0,-1 # fbffffff <_end+0xfbffd57f>
     4fc:	00650593          	addi	a1,a0,6
     500:	0cb1aa23          	sw	a1,212(gp)

00000504 <inst_76>:
     504:	f8000537          	lui	a0,0xf8000
     508:	fff50513          	addi	a0,a0,-1 # f7ffffff <_end+0xf7ffd57f>
     50c:	66650593          	addi	a1,a0,1638
     510:	0cb1ac23          	sw	a1,216(gp)

00000514 <inst_77>:
     514:	f0000537          	lui	a0,0xf0000
     518:	fff50513          	addi	a0,a0,-1 # efffffff <_end+0xefffd57f>
     51c:	02e50593          	addi	a1,a0,46
     520:	0cb1ae23          	sw	a1,220(gp)

00000524 <inst_78>:
     524:	e0000537          	lui	a0,0xe0000
     528:	fff50513          	addi	a0,a0,-1 # dfffffff <_end+0xdfffd57f>
     52c:	00350593          	addi	a1,a0,3
     530:	0eb1a023          	sw	a1,224(gp)

00000534 <inst_79>:
     534:	c0000537          	lui	a0,0xc0000
     538:	fff50513          	addi	a0,a0,-1 # bfffffff <_end+0xbfffd57f>
     53c:	66650593          	addi	a1,a0,1638
     540:	0eb1a223          	sw	a1,228(gp)

00000544 <inst_80>:
     544:	00300513          	li	a0,3
     548:	00350593          	addi	a1,a0,3
     54c:	0eb1a423          	sw	a1,232(gp)

00000550 <inst_81>:
     550:	00300513          	li	a0,3
     554:	55550593          	addi	a1,a0,1365
     558:	0eb1a623          	sw	a1,236(gp)

0000055c <inst_82>:
     55c:	00300513          	li	a0,3
     560:	aaa50593          	addi	a1,a0,-1366
     564:	0eb1a823          	sw	a1,240(gp)

00000568 <inst_83>:
     568:	00300513          	li	a0,3
     56c:	00550593          	addi	a1,a0,5
     570:	0eb1aa23          	sw	a1,244(gp)

00000574 <inst_84>:
     574:	00300513          	li	a0,3
     578:	33350593          	addi	a1,a0,819
     57c:	0eb1ac23          	sw	a1,248(gp)

00000580 <inst_85>:
     580:	00300513          	li	a0,3
     584:	66650593          	addi	a1,a0,1638
     588:	0eb1ae23          	sw	a1,252(gp)

0000058c <inst_86>:
     58c:	00300513          	li	a0,3
     590:	fd350593          	addi	a1,a0,-45
     594:	10b1a023          	sw	a1,256(gp)

00000598 <inst_87>:
     598:	00300513          	li	a0,3
     59c:	02d50593          	addi	a1,a0,45
     5a0:	10b1a223          	sw	a1,260(gp)

000005a4 <inst_88>:
     5a4:	00300513          	li	a0,3
     5a8:	00250593          	addi	a1,a0,2
     5ac:	10b1a423          	sw	a1,264(gp)

000005b0 <inst_89>:
     5b0:	00300513          	li	a0,3
     5b4:	55450593          	addi	a1,a0,1364
     5b8:	10b1a623          	sw	a1,268(gp)

000005bc <inst_90>:
     5bc:	00300513          	li	a0,3
     5c0:	00050593          	mv	a1,a0
     5c4:	10b1a823          	sw	a1,272(gp)

000005c8 <inst_91>:
     5c8:	00300513          	li	a0,3
     5cc:	00450593          	addi	a1,a0,4
     5d0:	10b1aa23          	sw	a1,276(gp)

000005d4 <inst_92>:
     5d4:	00300513          	li	a0,3
     5d8:	33250593          	addi	a1,a0,818
     5dc:	10b1ac23          	sw	a1,280(gp)

000005e0 <inst_93>:
     5e0:	00300513          	li	a0,3
     5e4:	66550593          	addi	a1,a0,1637
     5e8:	10b1ae23          	sw	a1,284(gp)

000005ec <inst_94>:
     5ec:	00300513          	li	a0,3
     5f0:	02c50593          	addi	a1,a0,44
     5f4:	12b1a023          	sw	a1,288(gp)

000005f8 <inst_95>:
     5f8:	00300513          	li	a0,3
     5fc:	55650593          	addi	a1,a0,1366
     600:	12b1a223          	sw	a1,292(gp)

00000604 <inst_96>:
     604:	00300513          	li	a0,3
     608:	aab50593          	addi	a1,a0,-1365
     60c:	12b1a423          	sw	a1,296(gp)

00000610 <inst_97>:
     610:	00300513          	li	a0,3
     614:	00650593          	addi	a1,a0,6
     618:	12b1a623          	sw	a1,300(gp)

0000061c <inst_98>:
     61c:	00300513          	li	a0,3
     620:	33450593          	addi	a1,a0,820
     624:	12b1a823          	sw	a1,304(gp)

00000628 <inst_99>:
     628:	00300513          	li	a0,3
     62c:	66750593          	addi	a1,a0,1639
     630:	12b1aa23          	sw	a1,308(gp)

00000634 <inst_100>:
     634:	00300513          	li	a0,3
     638:	fd450593          	addi	a1,a0,-44
     63c:	12b1ac23          	sw	a1,312(gp)

00000640 <inst_101>:
     640:	00300513          	li	a0,3
     644:	02e50593          	addi	a1,a0,46
     648:	12b1ae23          	sw	a1,316(gp)

0000064c <inst_102>:
     64c:	55555537          	lui	a0,0x55555
     650:	55550513          	addi	a0,a0,1365 # 55555555 <_end+0x55552ad5>
     654:	00350593          	addi	a1,a0,3
     658:	14b1a023          	sw	a1,320(gp)

0000065c <inst_103>:
     65c:	55555537          	lui	a0,0x55555
     660:	55550513          	addi	a0,a0,1365 # 55555555 <_end+0x55552ad5>
     664:	55550593          	addi	a1,a0,1365
     668:	14b1a223          	sw	a1,324(gp)

0000066c <inst_104>:
     66c:	55555537          	lui	a0,0x55555
     670:	55550513          	addi	a0,a0,1365 # 55555555 <_end+0x55552ad5>
     674:	aaa50593          	addi	a1,a0,-1366
     678:	14b1a423          	sw	a1,328(gp)

0000067c <inst_105>:
     67c:	55555537          	lui	a0,0x55555
     680:	55550513          	addi	a0,a0,1365 # 55555555 <_end+0x55552ad5>
     684:	00550593          	addi	a1,a0,5
     688:	14b1a623          	sw	a1,332(gp)

0000068c <inst_106>:
     68c:	55555537          	lui	a0,0x55555
     690:	55550513          	addi	a0,a0,1365 # 55555555 <_end+0x55552ad5>
     694:	33350593          	addi	a1,a0,819
     698:	14b1a823          	sw	a1,336(gp)

0000069c <inst_107>:
     69c:	55555537          	lui	a0,0x55555
     6a0:	55550513          	addi	a0,a0,1365 # 55555555 <_end+0x55552ad5>
     6a4:	66650593          	addi	a1,a0,1638
     6a8:	14b1aa23          	sw	a1,340(gp)

000006ac <inst_108>:
     6ac:	55555537          	lui	a0,0x55555
     6b0:	55550513          	addi	a0,a0,1365 # 55555555 <_end+0x55552ad5>
     6b4:	fd350593          	addi	a1,a0,-45
     6b8:	14b1ac23          	sw	a1,344(gp)

000006bc <inst_109>:
     6bc:	55555537          	lui	a0,0x55555
     6c0:	55550513          	addi	a0,a0,1365 # 55555555 <_end+0x55552ad5>
     6c4:	02d50593          	addi	a1,a0,45
     6c8:	14b1ae23          	sw	a1,348(gp)

000006cc <inst_110>:
     6cc:	55555537          	lui	a0,0x55555
     6d0:	55550513          	addi	a0,a0,1365 # 55555555 <_end+0x55552ad5>
     6d4:	00250593          	addi	a1,a0,2
     6d8:	16b1a023          	sw	a1,352(gp)

000006dc <inst_111>:
     6dc:	55555537          	lui	a0,0x55555
     6e0:	55550513          	addi	a0,a0,1365 # 55555555 <_end+0x55552ad5>
     6e4:	55450593          	addi	a1,a0,1364
     6e8:	16b1a223          	sw	a1,356(gp)

000006ec <inst_112>:
     6ec:	55555537          	lui	a0,0x55555
     6f0:	55550513          	addi	a0,a0,1365 # 55555555 <_end+0x55552ad5>
     6f4:	00050593          	mv	a1,a0
     6f8:	16b1a423          	sw	a1,360(gp)

000006fc <inst_113>:
     6fc:	55555537          	lui	a0,0x55555
     700:	55550513          	addi	a0,a0,1365 # 55555555 <_end+0x55552ad5>
     704:	00450593          	addi	a1,a0,4
     708:	16b1a623          	sw	a1,364(gp)

0000070c <inst_114>:
     70c:	55555537          	lui	a0,0x55555
     710:	55550513          	addi	a0,a0,1365 # 55555555 <_end+0x55552ad5>
     714:	33250593          	addi	a1,a0,818
     718:	16b1a823          	sw	a1,368(gp)

0000071c <inst_115>:
     71c:	55555537          	lui	a0,0x55555
     720:	55550513          	addi	a0,a0,1365 # 55555555 <_end+0x55552ad5>
     724:	66550593          	addi	a1,a0,1637
     728:	16b1aa23          	sw	a1,372(gp)

0000072c <inst_116>:
     72c:	55555537          	lui	a0,0x55555
     730:	55550513          	addi	a0,a0,1365 # 55555555 <_end+0x55552ad5>
     734:	02c50593          	addi	a1,a0,44
     738:	16b1ac23          	sw	a1,376(gp)

0000073c <inst_117>:
     73c:	55555537          	lui	a0,0x55555
     740:	55550513          	addi	a0,a0,1365 # 55555555 <_end+0x55552ad5>
     744:	55650593          	addi	a1,a0,1366
     748:	16b1ae23          	sw	a1,380(gp)

0000074c <inst_118>:
     74c:	55555537          	lui	a0,0x55555
     750:	55550513          	addi	a0,a0,1365 # 55555555 <_end+0x55552ad5>
     754:	aab50593          	addi	a1,a0,-1365
     758:	18b1a023          	sw	a1,384(gp)

0000075c <inst_119>:
     75c:	55555537          	lui	a0,0x55555
     760:	55550513          	addi	a0,a0,1365 # 55555555 <_end+0x55552ad5>
     764:	00650593          	addi	a1,a0,6
     768:	18b1a223          	sw	a1,388(gp)

0000076c <inst_120>:
     76c:	55555537          	lui	a0,0x55555
     770:	55550513          	addi	a0,a0,1365 # 55555555 <_end+0x55552ad5>
     774:	33450593          	addi	a1,a0,820
     778:	18b1a423          	sw	a1,392(gp)

0000077c <inst_121>:
     77c:	55555537          	lui	a0,0x55555
     780:	55550513          	addi	a0,a0,1365 # 55555555 <_end+0x55552ad5>
     784:	66750593          	addi	a1,a0,1639
     788:	18b1a623          	sw	a1,396(gp)

0000078c <inst_122>:
     78c:	55555537          	lui	a0,0x55555
     790:	55550513          	addi	a0,a0,1365 # 55555555 <_end+0x55552ad5>
     794:	fd450593          	addi	a1,a0,-44
     798:	18b1a823          	sw	a1,400(gp)

0000079c <inst_123>:
     79c:	55555537          	lui	a0,0x55555
     7a0:	55550513          	addi	a0,a0,1365 # 55555555 <_end+0x55552ad5>
     7a4:	02e50593          	addi	a1,a0,46
     7a8:	18b1aa23          	sw	a1,404(gp)

000007ac <inst_124>:
     7ac:	aaaab537          	lui	a0,0xaaaab
     7b0:	aaa50513          	addi	a0,a0,-1366 # aaaaaaaa <_end+0xaaaa802a>
     7b4:	00350593          	addi	a1,a0,3
     7b8:	18b1ac23          	sw	a1,408(gp)

000007bc <inst_125>:
     7bc:	aaaab537          	lui	a0,0xaaaab
     7c0:	aaa50513          	addi	a0,a0,-1366 # aaaaaaaa <_end+0xaaaa802a>
     7c4:	aaa50593          	addi	a1,a0,-1366
     7c8:	18b1ae23          	sw	a1,412(gp)

000007cc <inst_126>:
     7cc:	aaaab537          	lui	a0,0xaaaab
     7d0:	aaa50513          	addi	a0,a0,-1366 # aaaaaaaa <_end+0xaaaa802a>
     7d4:	00550593          	addi	a1,a0,5
     7d8:	1ab1a023          	sw	a1,416(gp)

000007dc <inst_127>:
     7dc:	aaaab537          	lui	a0,0xaaaab
     7e0:	aaa50513          	addi	a0,a0,-1366 # aaaaaaaa <_end+0xaaaa802a>
     7e4:	33350593          	addi	a1,a0,819
     7e8:	1ab1a223          	sw	a1,420(gp)

000007ec <inst_128>:
     7ec:	aaaab537          	lui	a0,0xaaaab
     7f0:	aaa50513          	addi	a0,a0,-1366 # aaaaaaaa <_end+0xaaaa802a>
     7f4:	66650593          	addi	a1,a0,1638
     7f8:	1ab1a423          	sw	a1,424(gp)

000007fc <inst_129>:
     7fc:	aaaab537          	lui	a0,0xaaaab
     800:	aaa50513          	addi	a0,a0,-1366 # aaaaaaaa <_end+0xaaaa802a>
     804:	fd350593          	addi	a1,a0,-45
     808:	1ab1a623          	sw	a1,428(gp)

0000080c <inst_130>:
     80c:	aaaab537          	lui	a0,0xaaaab
     810:	aaa50513          	addi	a0,a0,-1366 # aaaaaaaa <_end+0xaaaa802a>
     814:	02d50593          	addi	a1,a0,45
     818:	1ab1a823          	sw	a1,432(gp)

0000081c <inst_131>:
     81c:	aaaab537          	lui	a0,0xaaaab
     820:	aaa50513          	addi	a0,a0,-1366 # aaaaaaaa <_end+0xaaaa802a>
     824:	00250593          	addi	a1,a0,2
     828:	1ab1aa23          	sw	a1,436(gp)

0000082c <inst_132>:
     82c:	aaaab537          	lui	a0,0xaaaab
     830:	aaa50513          	addi	a0,a0,-1366 # aaaaaaaa <_end+0xaaaa802a>
     834:	55450593          	addi	a1,a0,1364
     838:	1ab1ac23          	sw	a1,440(gp)

0000083c <inst_133>:
     83c:	aaaab537          	lui	a0,0xaaaab
     840:	aaa50513          	addi	a0,a0,-1366 # aaaaaaaa <_end+0xaaaa802a>
     844:	00050593          	mv	a1,a0
     848:	1ab1ae23          	sw	a1,444(gp)

0000084c <inst_134>:
     84c:	aaaab537          	lui	a0,0xaaaab
     850:	aaa50513          	addi	a0,a0,-1366 # aaaaaaaa <_end+0xaaaa802a>
     854:	00450593          	addi	a1,a0,4
     858:	1cb1a023          	sw	a1,448(gp)

0000085c <inst_135>:
     85c:	aaaab537          	lui	a0,0xaaaab
     860:	aaa50513          	addi	a0,a0,-1366 # aaaaaaaa <_end+0xaaaa802a>
     864:	33250593          	addi	a1,a0,818
     868:	1cb1a223          	sw	a1,452(gp)

0000086c <inst_136>:
     86c:	aaaab537          	lui	a0,0xaaaab
     870:	aaa50513          	addi	a0,a0,-1366 # aaaaaaaa <_end+0xaaaa802a>
     874:	66550593          	addi	a1,a0,1637
     878:	1cb1a423          	sw	a1,456(gp)

0000087c <inst_137>:
     87c:	aaaab537          	lui	a0,0xaaaab
     880:	aaa50513          	addi	a0,a0,-1366 # aaaaaaaa <_end+0xaaaa802a>
     884:	02c50593          	addi	a1,a0,44
     888:	1cb1a623          	sw	a1,460(gp)

0000088c <inst_138>:
     88c:	aaaab537          	lui	a0,0xaaaab
     890:	aaa50513          	addi	a0,a0,-1366 # aaaaaaaa <_end+0xaaaa802a>
     894:	55650593          	addi	a1,a0,1366
     898:	1cb1a823          	sw	a1,464(gp)

0000089c <inst_139>:
     89c:	aaaab537          	lui	a0,0xaaaab
     8a0:	aaa50513          	addi	a0,a0,-1366 # aaaaaaaa <_end+0xaaaa802a>
     8a4:	aab50593          	addi	a1,a0,-1365
     8a8:	1cb1aa23          	sw	a1,468(gp)

000008ac <inst_140>:
     8ac:	aaaab537          	lui	a0,0xaaaab
     8b0:	aaa50513          	addi	a0,a0,-1366 # aaaaaaaa <_end+0xaaaa802a>
     8b4:	00650593          	addi	a1,a0,6
     8b8:	1cb1ac23          	sw	a1,472(gp)

000008bc <inst_141>:
     8bc:	aaaab537          	lui	a0,0xaaaab
     8c0:	aaa50513          	addi	a0,a0,-1366 # aaaaaaaa <_end+0xaaaa802a>
     8c4:	33450593          	addi	a1,a0,820
     8c8:	1cb1ae23          	sw	a1,476(gp)

000008cc <inst_142>:
     8cc:	aaaab537          	lui	a0,0xaaaab
     8d0:	aaa50513          	addi	a0,a0,-1366 # aaaaaaaa <_end+0xaaaa802a>
     8d4:	66750593          	addi	a1,a0,1639
     8d8:	1eb1a023          	sw	a1,480(gp)

000008dc <inst_143>:
     8dc:	aaaab537          	lui	a0,0xaaaab
     8e0:	aaa50513          	addi	a0,a0,-1366 # aaaaaaaa <_end+0xaaaa802a>
     8e4:	fd450593          	addi	a1,a0,-44
     8e8:	1eb1a223          	sw	a1,484(gp)

000008ec <inst_144>:
     8ec:	aaaab537          	lui	a0,0xaaaab
     8f0:	aaa50513          	addi	a0,a0,-1366 # aaaaaaaa <_end+0xaaaa802a>
     8f4:	02e50593          	addi	a1,a0,46
     8f8:	1eb1a423          	sw	a1,488(gp)

000008fc <inst_145>:
     8fc:	00500513          	li	a0,5
     900:	00350593          	addi	a1,a0,3
     904:	1eb1a623          	sw	a1,492(gp)

00000908 <inst_146>:
     908:	00500513          	li	a0,5
     90c:	55550593          	addi	a1,a0,1365
     910:	1eb1a823          	sw	a1,496(gp)

00000914 <inst_147>:
     914:	00500513          	li	a0,5
     918:	aaa50593          	addi	a1,a0,-1366
     91c:	1eb1aa23          	sw	a1,500(gp)

00000920 <inst_148>:
     920:	00500513          	li	a0,5
     924:	33350593          	addi	a1,a0,819
     928:	1eb1ac23          	sw	a1,504(gp)

0000092c <inst_149>:
     92c:	00500513          	li	a0,5
     930:	66650593          	addi	a1,a0,1638
     934:	1eb1ae23          	sw	a1,508(gp)

00000938 <inst_150>:
     938:	00500513          	li	a0,5
     93c:	fd350593          	addi	a1,a0,-45
     940:	20b1a023          	sw	a1,512(gp)

00000944 <inst_151>:
     944:	00500513          	li	a0,5
     948:	02d50593          	addi	a1,a0,45
     94c:	20b1a223          	sw	a1,516(gp)

00000950 <inst_152>:
     950:	00500513          	li	a0,5
     954:	00250593          	addi	a1,a0,2
     958:	20b1a423          	sw	a1,520(gp)

0000095c <inst_153>:
     95c:	00500513          	li	a0,5
     960:	55450593          	addi	a1,a0,1364
     964:	20b1a623          	sw	a1,524(gp)

00000968 <inst_154>:
     968:	00500513          	li	a0,5
     96c:	00050593          	mv	a1,a0
     970:	20b1a823          	sw	a1,528(gp)

00000974 <inst_155>:
     974:	00500513          	li	a0,5
     978:	00450593          	addi	a1,a0,4
     97c:	20b1aa23          	sw	a1,532(gp)

00000980 <inst_156>:
     980:	00500513          	li	a0,5
     984:	33250593          	addi	a1,a0,818
     988:	20b1ac23          	sw	a1,536(gp)

0000098c <inst_157>:
     98c:	00500513          	li	a0,5
     990:	66550593          	addi	a1,a0,1637
     994:	20b1ae23          	sw	a1,540(gp)

00000998 <inst_158>:
     998:	00500513          	li	a0,5
     99c:	02c50593          	addi	a1,a0,44
     9a0:	22b1a023          	sw	a1,544(gp)

000009a4 <inst_159>:
     9a4:	00500513          	li	a0,5
     9a8:	55650593          	addi	a1,a0,1366
     9ac:	22b1a223          	sw	a1,548(gp)

000009b0 <inst_160>:
     9b0:	00500513          	li	a0,5
     9b4:	aab50593          	addi	a1,a0,-1365
     9b8:	22b1a423          	sw	a1,552(gp)

000009bc <inst_161>:
     9bc:	00500513          	li	a0,5
     9c0:	00650593          	addi	a1,a0,6
     9c4:	22b1a623          	sw	a1,556(gp)

000009c8 <inst_162>:
     9c8:	00500513          	li	a0,5
     9cc:	33450593          	addi	a1,a0,820
     9d0:	22b1a823          	sw	a1,560(gp)

000009d4 <inst_163>:
     9d4:	00500513          	li	a0,5
     9d8:	66750593          	addi	a1,a0,1639
     9dc:	22b1aa23          	sw	a1,564(gp)

000009e0 <inst_164>:
     9e0:	00500513          	li	a0,5
     9e4:	fd450593          	addi	a1,a0,-44
     9e8:	22b1ac23          	sw	a1,568(gp)

000009ec <inst_165>:
     9ec:	00500513          	li	a0,5
     9f0:	02e50593          	addi	a1,a0,46
     9f4:	22b1ae23          	sw	a1,572(gp)

000009f8 <inst_166>:
     9f8:	33333537          	lui	a0,0x33333
     9fc:	33350513          	addi	a0,a0,819 # 33333333 <_end+0x333308b3>
     a00:	00350593          	addi	a1,a0,3
     a04:	24b1a023          	sw	a1,576(gp)

00000a08 <inst_167>:
     a08:	33333537          	lui	a0,0x33333
     a0c:	33350513          	addi	a0,a0,819 # 33333333 <_end+0x333308b3>
     a10:	55550593          	addi	a1,a0,1365
     a14:	24b1a223          	sw	a1,580(gp)

00000a18 <inst_168>:
     a18:	33333537          	lui	a0,0x33333
     a1c:	33350513          	addi	a0,a0,819 # 33333333 <_end+0x333308b3>
     a20:	aaa50593          	addi	a1,a0,-1366
     a24:	24b1a423          	sw	a1,584(gp)

00000a28 <inst_169>:
     a28:	33333537          	lui	a0,0x33333
     a2c:	33350513          	addi	a0,a0,819 # 33333333 <_end+0x333308b3>
     a30:	00550593          	addi	a1,a0,5
     a34:	24b1a623          	sw	a1,588(gp)

00000a38 <inst_170>:
     a38:	33333537          	lui	a0,0x33333
     a3c:	33350513          	addi	a0,a0,819 # 33333333 <_end+0x333308b3>
     a40:	33350593          	addi	a1,a0,819
     a44:	24b1a823          	sw	a1,592(gp)

00000a48 <inst_171>:
     a48:	33333537          	lui	a0,0x33333
     a4c:	33350513          	addi	a0,a0,819 # 33333333 <_end+0x333308b3>
     a50:	66650593          	addi	a1,a0,1638
     a54:	24b1aa23          	sw	a1,596(gp)

00000a58 <inst_172>:
     a58:	33333537          	lui	a0,0x33333
     a5c:	33350513          	addi	a0,a0,819 # 33333333 <_end+0x333308b3>
     a60:	fd350593          	addi	a1,a0,-45
     a64:	24b1ac23          	sw	a1,600(gp)

00000a68 <inst_173>:
     a68:	33333537          	lui	a0,0x33333
     a6c:	33350513          	addi	a0,a0,819 # 33333333 <_end+0x333308b3>
     a70:	02d50593          	addi	a1,a0,45
     a74:	24b1ae23          	sw	a1,604(gp)

00000a78 <inst_174>:
     a78:	33333537          	lui	a0,0x33333
     a7c:	33350513          	addi	a0,a0,819 # 33333333 <_end+0x333308b3>
     a80:	00250593          	addi	a1,a0,2
     a84:	26b1a023          	sw	a1,608(gp)

00000a88 <inst_175>:
     a88:	33333537          	lui	a0,0x33333
     a8c:	33350513          	addi	a0,a0,819 # 33333333 <_end+0x333308b3>
     a90:	55450593          	addi	a1,a0,1364
     a94:	26b1a223          	sw	a1,612(gp)

00000a98 <inst_176>:
     a98:	33333537          	lui	a0,0x33333
     a9c:	33350513          	addi	a0,a0,819 # 33333333 <_end+0x333308b3>
     aa0:	00050593          	mv	a1,a0
     aa4:	26b1a423          	sw	a1,616(gp)

00000aa8 <inst_177>:
     aa8:	33333537          	lui	a0,0x33333
     aac:	33350513          	addi	a0,a0,819 # 33333333 <_end+0x333308b3>
     ab0:	00450593          	addi	a1,a0,4
     ab4:	26b1a623          	sw	a1,620(gp)

00000ab8 <inst_178>:
     ab8:	33333537          	lui	a0,0x33333
     abc:	33350513          	addi	a0,a0,819 # 33333333 <_end+0x333308b3>
     ac0:	33250593          	addi	a1,a0,818
     ac4:	26b1a823          	sw	a1,624(gp)

00000ac8 <inst_179>:
     ac8:	33333537          	lui	a0,0x33333
     acc:	33350513          	addi	a0,a0,819 # 33333333 <_end+0x333308b3>
     ad0:	66550593          	addi	a1,a0,1637
     ad4:	26b1aa23          	sw	a1,628(gp)

00000ad8 <inst_180>:
     ad8:	33333537          	lui	a0,0x33333
     adc:	33350513          	addi	a0,a0,819 # 33333333 <_end+0x333308b3>
     ae0:	02c50593          	addi	a1,a0,44
     ae4:	26b1ac23          	sw	a1,632(gp)

00000ae8 <inst_181>:
     ae8:	33333537          	lui	a0,0x33333
     aec:	33350513          	addi	a0,a0,819 # 33333333 <_end+0x333308b3>
     af0:	55650593          	addi	a1,a0,1366
     af4:	26b1ae23          	sw	a1,636(gp)

00000af8 <inst_182>:
     af8:	33333537          	lui	a0,0x33333
     afc:	33350513          	addi	a0,a0,819 # 33333333 <_end+0x333308b3>
     b00:	aab50593          	addi	a1,a0,-1365
     b04:	28b1a023          	sw	a1,640(gp)

00000b08 <inst_183>:
     b08:	33333537          	lui	a0,0x33333
     b0c:	33350513          	addi	a0,a0,819 # 33333333 <_end+0x333308b3>
     b10:	00650593          	addi	a1,a0,6
     b14:	28b1a223          	sw	a1,644(gp)

00000b18 <inst_184>:
     b18:	33333537          	lui	a0,0x33333
     b1c:	33350513          	addi	a0,a0,819 # 33333333 <_end+0x333308b3>
     b20:	33450593          	addi	a1,a0,820
     b24:	28b1a423          	sw	a1,648(gp)

00000b28 <inst_185>:
     b28:	33333537          	lui	a0,0x33333
     b2c:	33350513          	addi	a0,a0,819 # 33333333 <_end+0x333308b3>
     b30:	66750593          	addi	a1,a0,1639
     b34:	28b1a623          	sw	a1,652(gp)

00000b38 <inst_186>:
     b38:	33333537          	lui	a0,0x33333
     b3c:	33350513          	addi	a0,a0,819 # 33333333 <_end+0x333308b3>
     b40:	fd450593          	addi	a1,a0,-44
     b44:	28b1a823          	sw	a1,656(gp)

00000b48 <inst_187>:
     b48:	33333537          	lui	a0,0x33333
     b4c:	33350513          	addi	a0,a0,819 # 33333333 <_end+0x333308b3>
     b50:	02e50593          	addi	a1,a0,46
     b54:	28b1aa23          	sw	a1,660(gp)

00000b58 <inst_188>:
     b58:	66666537          	lui	a0,0x66666
     b5c:	66650513          	addi	a0,a0,1638 # 66666666 <_end+0x66663be6>
     b60:	00350593          	addi	a1,a0,3
     b64:	28b1ac23          	sw	a1,664(gp)

00000b68 <inst_189>:
     b68:	66666537          	lui	a0,0x66666
     b6c:	66650513          	addi	a0,a0,1638 # 66666666 <_end+0x66663be6>
     b70:	55550593          	addi	a1,a0,1365
     b74:	28b1ae23          	sw	a1,668(gp)

00000b78 <inst_190>:
     b78:	66666537          	lui	a0,0x66666
     b7c:	66650513          	addi	a0,a0,1638 # 66666666 <_end+0x66663be6>
     b80:	aaa50593          	addi	a1,a0,-1366
     b84:	2ab1a023          	sw	a1,672(gp)

00000b88 <inst_191>:
     b88:	66666537          	lui	a0,0x66666
     b8c:	66650513          	addi	a0,a0,1638 # 66666666 <_end+0x66663be6>
     b90:	00550593          	addi	a1,a0,5
     b94:	2ab1a223          	sw	a1,676(gp)

00000b98 <inst_192>:
     b98:	66666537          	lui	a0,0x66666
     b9c:	66650513          	addi	a0,a0,1638 # 66666666 <_end+0x66663be6>
     ba0:	33350593          	addi	a1,a0,819
     ba4:	2ab1a423          	sw	a1,680(gp)

00000ba8 <inst_193>:
     ba8:	66666537          	lui	a0,0x66666
     bac:	66650513          	addi	a0,a0,1638 # 66666666 <_end+0x66663be6>
     bb0:	66650593          	addi	a1,a0,1638
     bb4:	2ab1a623          	sw	a1,684(gp)

00000bb8 <inst_194>:
     bb8:	66666537          	lui	a0,0x66666
     bbc:	66650513          	addi	a0,a0,1638 # 66666666 <_end+0x66663be6>
     bc0:	fd350593          	addi	a1,a0,-45
     bc4:	2ab1a823          	sw	a1,688(gp)

00000bc8 <inst_195>:
     bc8:	66666537          	lui	a0,0x66666
     bcc:	66650513          	addi	a0,a0,1638 # 66666666 <_end+0x66663be6>
     bd0:	02d50593          	addi	a1,a0,45
     bd4:	2ab1aa23          	sw	a1,692(gp)

00000bd8 <inst_196>:
     bd8:	66666537          	lui	a0,0x66666
     bdc:	66650513          	addi	a0,a0,1638 # 66666666 <_end+0x66663be6>
     be0:	00250593          	addi	a1,a0,2
     be4:	2ab1ac23          	sw	a1,696(gp)

00000be8 <inst_197>:
     be8:	66666537          	lui	a0,0x66666
     bec:	66650513          	addi	a0,a0,1638 # 66666666 <_end+0x66663be6>
     bf0:	55450593          	addi	a1,a0,1364
     bf4:	2ab1ae23          	sw	a1,700(gp)

00000bf8 <inst_198>:
     bf8:	66666537          	lui	a0,0x66666
     bfc:	66650513          	addi	a0,a0,1638 # 66666666 <_end+0x66663be6>
     c00:	00050593          	mv	a1,a0
     c04:	2cb1a023          	sw	a1,704(gp)

00000c08 <inst_199>:
     c08:	66666537          	lui	a0,0x66666
     c0c:	66650513          	addi	a0,a0,1638 # 66666666 <_end+0x66663be6>
     c10:	00450593          	addi	a1,a0,4
     c14:	2cb1a223          	sw	a1,708(gp)

00000c18 <inst_200>:
     c18:	66666537          	lui	a0,0x66666
     c1c:	66650513          	addi	a0,a0,1638 # 66666666 <_end+0x66663be6>
     c20:	33250593          	addi	a1,a0,818
     c24:	2cb1a423          	sw	a1,712(gp)

00000c28 <inst_201>:
     c28:	66666537          	lui	a0,0x66666
     c2c:	66650513          	addi	a0,a0,1638 # 66666666 <_end+0x66663be6>
     c30:	66550593          	addi	a1,a0,1637
     c34:	2cb1a623          	sw	a1,716(gp)

00000c38 <inst_202>:
     c38:	66666537          	lui	a0,0x66666
     c3c:	66650513          	addi	a0,a0,1638 # 66666666 <_end+0x66663be6>
     c40:	02c50593          	addi	a1,a0,44
     c44:	2cb1a823          	sw	a1,720(gp)

00000c48 <inst_203>:
     c48:	66666537          	lui	a0,0x66666
     c4c:	66650513          	addi	a0,a0,1638 # 66666666 <_end+0x66663be6>
     c50:	55650593          	addi	a1,a0,1366
     c54:	2cb1aa23          	sw	a1,724(gp)

00000c58 <inst_204>:
     c58:	66666537          	lui	a0,0x66666
     c5c:	66650513          	addi	a0,a0,1638 # 66666666 <_end+0x66663be6>
     c60:	aab50593          	addi	a1,a0,-1365
     c64:	2cb1ac23          	sw	a1,728(gp)

00000c68 <inst_205>:
     c68:	66666537          	lui	a0,0x66666
     c6c:	66650513          	addi	a0,a0,1638 # 66666666 <_end+0x66663be6>
     c70:	00650593          	addi	a1,a0,6
     c74:	2cb1ae23          	sw	a1,732(gp)

00000c78 <inst_206>:
     c78:	66666537          	lui	a0,0x66666
     c7c:	66650513          	addi	a0,a0,1638 # 66666666 <_end+0x66663be6>
     c80:	33450593          	addi	a1,a0,820
     c84:	2eb1a023          	sw	a1,736(gp)

00000c88 <inst_207>:
     c88:	66666537          	lui	a0,0x66666
     c8c:	66650513          	addi	a0,a0,1638 # 66666666 <_end+0x66663be6>
     c90:	66750593          	addi	a1,a0,1639
     c94:	2eb1a223          	sw	a1,740(gp)

00000c98 <inst_208>:
     c98:	66666537          	lui	a0,0x66666
     c9c:	66650513          	addi	a0,a0,1638 # 66666666 <_end+0x66663be6>
     ca0:	fd450593          	addi	a1,a0,-44
     ca4:	2eb1a423          	sw	a1,744(gp)

00000ca8 <inst_209>:
     ca8:	66666537          	lui	a0,0x66666
     cac:	66650513          	addi	a0,a0,1638 # 66666666 <_end+0x66663be6>
     cb0:	02e50593          	addi	a1,a0,46
     cb4:	2eb1a623          	sw	a1,748(gp)

00000cb8 <inst_210>:
     cb8:	ffff5537          	lui	a0,0xffff5
     cbc:	afc50513          	addi	a0,a0,-1284 # ffff4afc <_end+0xffff207c>
     cc0:	00350593          	addi	a1,a0,3
     cc4:	2eb1a823          	sw	a1,752(gp)

00000cc8 <inst_211>:
     cc8:	ffff5537          	lui	a0,0xffff5
     ccc:	afc50513          	addi	a0,a0,-1284 # ffff4afc <_end+0xffff207c>
     cd0:	55550593          	addi	a1,a0,1365
     cd4:	2eb1aa23          	sw	a1,756(gp)

00000cd8 <inst_212>:
     cd8:	ffff5537          	lui	a0,0xffff5
     cdc:	afc50513          	addi	a0,a0,-1284 # ffff4afc <_end+0xffff207c>
     ce0:	aaa50593          	addi	a1,a0,-1366
     ce4:	2eb1ac23          	sw	a1,760(gp)

00000ce8 <inst_213>:
     ce8:	ffff5537          	lui	a0,0xffff5
     cec:	afc50513          	addi	a0,a0,-1284 # ffff4afc <_end+0xffff207c>
     cf0:	00550593          	addi	a1,a0,5
     cf4:	2eb1ae23          	sw	a1,764(gp)

00000cf8 <inst_214>:
     cf8:	ffff5537          	lui	a0,0xffff5
     cfc:	afc50513          	addi	a0,a0,-1284 # ffff4afc <_end+0xffff207c>
     d00:	33350593          	addi	a1,a0,819
     d04:	30b1a023          	sw	a1,768(gp)

00000d08 <inst_215>:
     d08:	ffff5537          	lui	a0,0xffff5
     d0c:	afc50513          	addi	a0,a0,-1284 # ffff4afc <_end+0xffff207c>
     d10:	66650593          	addi	a1,a0,1638
     d14:	30b1a223          	sw	a1,772(gp)

00000d18 <inst_216>:
     d18:	ffff5537          	lui	a0,0xffff5
     d1c:	afc50513          	addi	a0,a0,-1284 # ffff4afc <_end+0xffff207c>
     d20:	fd350593          	addi	a1,a0,-45
     d24:	30b1a423          	sw	a1,776(gp)

00000d28 <inst_217>:
     d28:	ffff5537          	lui	a0,0xffff5
     d2c:	afc50513          	addi	a0,a0,-1284 # ffff4afc <_end+0xffff207c>
     d30:	02d50593          	addi	a1,a0,45
     d34:	30b1a623          	sw	a1,780(gp)

00000d38 <inst_218>:
     d38:	ffff5537          	lui	a0,0xffff5
     d3c:	afc50513          	addi	a0,a0,-1284 # ffff4afc <_end+0xffff207c>
     d40:	00250593          	addi	a1,a0,2
     d44:	30b1a823          	sw	a1,784(gp)

00000d48 <inst_219>:
     d48:	ffff5537          	lui	a0,0xffff5
     d4c:	afc50513          	addi	a0,a0,-1284 # ffff4afc <_end+0xffff207c>
     d50:	55450593          	addi	a1,a0,1364
     d54:	30b1aa23          	sw	a1,788(gp)

00000d58 <inst_220>:
     d58:	ffff5537          	lui	a0,0xffff5
     d5c:	afc50513          	addi	a0,a0,-1284 # ffff4afc <_end+0xffff207c>
     d60:	00050593          	mv	a1,a0
     d64:	30b1ac23          	sw	a1,792(gp)

00000d68 <inst_221>:
     d68:	ffff5537          	lui	a0,0xffff5
     d6c:	afc50513          	addi	a0,a0,-1284 # ffff4afc <_end+0xffff207c>
     d70:	00450593          	addi	a1,a0,4
     d74:	30b1ae23          	sw	a1,796(gp)

00000d78 <inst_222>:
     d78:	ffff5537          	lui	a0,0xffff5
     d7c:	afc50513          	addi	a0,a0,-1284 # ffff4afc <_end+0xffff207c>
     d80:	33250593          	addi	a1,a0,818
     d84:	32b1a023          	sw	a1,800(gp)

00000d88 <inst_223>:
     d88:	ffff5537          	lui	a0,0xffff5
     d8c:	afc50513          	addi	a0,a0,-1284 # ffff4afc <_end+0xffff207c>
     d90:	66550593          	addi	a1,a0,1637
     d94:	32b1a223          	sw	a1,804(gp)

00000d98 <inst_224>:
     d98:	ffff5537          	lui	a0,0xffff5
     d9c:	afc50513          	addi	a0,a0,-1284 # ffff4afc <_end+0xffff207c>
     da0:	02c50593          	addi	a1,a0,44
     da4:	32b1a423          	sw	a1,808(gp)

00000da8 <inst_225>:
     da8:	ffff5537          	lui	a0,0xffff5
     dac:	afc50513          	addi	a0,a0,-1284 # ffff4afc <_end+0xffff207c>
     db0:	55650593          	addi	a1,a0,1366
     db4:	32b1a623          	sw	a1,812(gp)

00000db8 <inst_226>:
     db8:	ffff5537          	lui	a0,0xffff5
     dbc:	afc50513          	addi	a0,a0,-1284 # ffff4afc <_end+0xffff207c>
     dc0:	aab50593          	addi	a1,a0,-1365
     dc4:	32b1a823          	sw	a1,816(gp)

00000dc8 <inst_227>:
     dc8:	ffff5537          	lui	a0,0xffff5
     dcc:	afc50513          	addi	a0,a0,-1284 # ffff4afc <_end+0xffff207c>
     dd0:	00650593          	addi	a1,a0,6
     dd4:	32b1aa23          	sw	a1,820(gp)

00000dd8 <inst_228>:
     dd8:	ffff5537          	lui	a0,0xffff5
     ddc:	afc50513          	addi	a0,a0,-1284 # ffff4afc <_end+0xffff207c>
     de0:	33450593          	addi	a1,a0,820
     de4:	32b1ac23          	sw	a1,824(gp)

00000de8 <inst_229>:
     de8:	ffff5537          	lui	a0,0xffff5
     dec:	afc50513          	addi	a0,a0,-1284 # ffff4afc <_end+0xffff207c>
     df0:	66750593          	addi	a1,a0,1639
     df4:	32b1ae23          	sw	a1,828(gp)

00000df8 <inst_230>:
     df8:	ffff5537          	lui	a0,0xffff5
     dfc:	afc50513          	addi	a0,a0,-1284 # ffff4afc <_end+0xffff207c>
     e00:	fd450593          	addi	a1,a0,-44
     e04:	34b1a023          	sw	a1,832(gp)

00000e08 <inst_231>:
     e08:	ffff5537          	lui	a0,0xffff5
     e0c:	afc50513          	addi	a0,a0,-1284 # ffff4afc <_end+0xffff207c>
     e10:	02e50593          	addi	a1,a0,46
     e14:	34b1a223          	sw	a1,836(gp)

00000e18 <inst_232>:
     e18:	0000b537          	lui	a0,0xb
     e1c:	50450513          	addi	a0,a0,1284 # b504 <_end+0x8a84>
     e20:	00350593          	addi	a1,a0,3
     e24:	34b1a423          	sw	a1,840(gp)

00000e28 <inst_233>:
     e28:	0000b537          	lui	a0,0xb
     e2c:	50450513          	addi	a0,a0,1284 # b504 <_end+0x8a84>
     e30:	55550593          	addi	a1,a0,1365
     e34:	34b1a623          	sw	a1,844(gp)

00000e38 <inst_234>:
     e38:	0000b537          	lui	a0,0xb
     e3c:	50450513          	addi	a0,a0,1284 # b504 <_end+0x8a84>
     e40:	aaa50593          	addi	a1,a0,-1366
     e44:	34b1a823          	sw	a1,848(gp)

00000e48 <inst_235>:
     e48:	0000b537          	lui	a0,0xb
     e4c:	50450513          	addi	a0,a0,1284 # b504 <_end+0x8a84>
     e50:	00550593          	addi	a1,a0,5
     e54:	34b1aa23          	sw	a1,852(gp)

00000e58 <inst_236>:
     e58:	0000b537          	lui	a0,0xb
     e5c:	50450513          	addi	a0,a0,1284 # b504 <_end+0x8a84>
     e60:	33350593          	addi	a1,a0,819
     e64:	34b1ac23          	sw	a1,856(gp)

00000e68 <inst_237>:
     e68:	0000b537          	lui	a0,0xb
     e6c:	50450513          	addi	a0,a0,1284 # b504 <_end+0x8a84>
     e70:	66650593          	addi	a1,a0,1638
     e74:	34b1ae23          	sw	a1,860(gp)

00000e78 <inst_238>:
     e78:	0000b537          	lui	a0,0xb
     e7c:	50450513          	addi	a0,a0,1284 # b504 <_end+0x8a84>
     e80:	fd350593          	addi	a1,a0,-45
     e84:	36b1a023          	sw	a1,864(gp)

00000e88 <inst_239>:
     e88:	0000b537          	lui	a0,0xb
     e8c:	50450513          	addi	a0,a0,1284 # b504 <_end+0x8a84>
     e90:	02d50593          	addi	a1,a0,45
     e94:	36b1a223          	sw	a1,868(gp)

00000e98 <inst_240>:
     e98:	0000b537          	lui	a0,0xb
     e9c:	50450513          	addi	a0,a0,1284 # b504 <_end+0x8a84>
     ea0:	00250593          	addi	a1,a0,2
     ea4:	36b1a423          	sw	a1,872(gp)

00000ea8 <inst_241>:
     ea8:	0000b537          	lui	a0,0xb
     eac:	50450513          	addi	a0,a0,1284 # b504 <_end+0x8a84>
     eb0:	55450593          	addi	a1,a0,1364
     eb4:	36b1a623          	sw	a1,876(gp)

00000eb8 <inst_242>:
     eb8:	0000b537          	lui	a0,0xb
     ebc:	50450513          	addi	a0,a0,1284 # b504 <_end+0x8a84>
     ec0:	00050593          	mv	a1,a0
     ec4:	36b1a823          	sw	a1,880(gp)

00000ec8 <inst_243>:
     ec8:	0000b537          	lui	a0,0xb
     ecc:	50450513          	addi	a0,a0,1284 # b504 <_end+0x8a84>
     ed0:	00450593          	addi	a1,a0,4
     ed4:	36b1aa23          	sw	a1,884(gp)

00000ed8 <inst_244>:
     ed8:	0000b537          	lui	a0,0xb
     edc:	50450513          	addi	a0,a0,1284 # b504 <_end+0x8a84>
     ee0:	33250593          	addi	a1,a0,818
     ee4:	36b1ac23          	sw	a1,888(gp)

00000ee8 <inst_245>:
     ee8:	0000b537          	lui	a0,0xb
     eec:	50450513          	addi	a0,a0,1284 # b504 <_end+0x8a84>
     ef0:	66550593          	addi	a1,a0,1637
     ef4:	36b1ae23          	sw	a1,892(gp)

00000ef8 <inst_246>:
     ef8:	0000b537          	lui	a0,0xb
     efc:	50450513          	addi	a0,a0,1284 # b504 <_end+0x8a84>
     f00:	02c50593          	addi	a1,a0,44
     f04:	38b1a023          	sw	a1,896(gp)

00000f08 <inst_247>:
     f08:	0000b537          	lui	a0,0xb
     f0c:	50450513          	addi	a0,a0,1284 # b504 <_end+0x8a84>
     f10:	55650593          	addi	a1,a0,1366
     f14:	38b1a223          	sw	a1,900(gp)

00000f18 <inst_248>:
     f18:	0000b537          	lui	a0,0xb
     f1c:	50450513          	addi	a0,a0,1284 # b504 <_end+0x8a84>
     f20:	aab50593          	addi	a1,a0,-1365
     f24:	38b1a423          	sw	a1,904(gp)

00000f28 <inst_249>:
     f28:	0000b537          	lui	a0,0xb
     f2c:	50450513          	addi	a0,a0,1284 # b504 <_end+0x8a84>
     f30:	00650593          	addi	a1,a0,6
     f34:	38b1a623          	sw	a1,908(gp)

00000f38 <inst_250>:
     f38:	0000b537          	lui	a0,0xb
     f3c:	50450513          	addi	a0,a0,1284 # b504 <_end+0x8a84>
     f40:	33450593          	addi	a1,a0,820
     f44:	38b1a823          	sw	a1,912(gp)

00000f48 <inst_251>:
     f48:	0000b537          	lui	a0,0xb
     f4c:	50450513          	addi	a0,a0,1284 # b504 <_end+0x8a84>
     f50:	66750593          	addi	a1,a0,1639
     f54:	38b1aa23          	sw	a1,916(gp)

00000f58 <inst_252>:
     f58:	0000b537          	lui	a0,0xb
     f5c:	50450513          	addi	a0,a0,1284 # b504 <_end+0x8a84>
     f60:	fd450593          	addi	a1,a0,-44
     f64:	38b1ac23          	sw	a1,920(gp)

00000f68 <inst_253>:
     f68:	0000b537          	lui	a0,0xb
     f6c:	50450513          	addi	a0,a0,1284 # b504 <_end+0x8a84>
     f70:	02e50593          	addi	a1,a0,46
     f74:	38b1ae23          	sw	a1,924(gp)

00000f78 <inst_254>:
     f78:	00200513          	li	a0,2
     f7c:	00350593          	addi	a1,a0,3
     f80:	3ab1a023          	sw	a1,928(gp)

00000f84 <inst_255>:
     f84:	00200513          	li	a0,2
     f88:	55550593          	addi	a1,a0,1365
     f8c:	3ab1a223          	sw	a1,932(gp)

00000f90 <inst_256>:
     f90:	00200513          	li	a0,2
     f94:	aaa50593          	addi	a1,a0,-1366
     f98:	3ab1a423          	sw	a1,936(gp)

00000f9c <inst_257>:
     f9c:	00200513          	li	a0,2
     fa0:	00550593          	addi	a1,a0,5
     fa4:	3ab1a623          	sw	a1,940(gp)

00000fa8 <inst_258>:
     fa8:	00200513          	li	a0,2
     fac:	33350593          	addi	a1,a0,819
     fb0:	3ab1a823          	sw	a1,944(gp)

00000fb4 <inst_259>:
     fb4:	00200513          	li	a0,2
     fb8:	66650593          	addi	a1,a0,1638
     fbc:	3ab1aa23          	sw	a1,948(gp)

00000fc0 <inst_260>:
     fc0:	00200513          	li	a0,2
     fc4:	fd350593          	addi	a1,a0,-45
     fc8:	3ab1ac23          	sw	a1,952(gp)

00000fcc <inst_261>:
     fcc:	00200513          	li	a0,2
     fd0:	02d50593          	addi	a1,a0,45
     fd4:	3ab1ae23          	sw	a1,956(gp)

00000fd8 <inst_262>:
     fd8:	00200513          	li	a0,2
     fdc:	00250593          	addi	a1,a0,2
     fe0:	3cb1a023          	sw	a1,960(gp)

00000fe4 <inst_263>:
     fe4:	00200513          	li	a0,2
     fe8:	55450593          	addi	a1,a0,1364
     fec:	3cb1a223          	sw	a1,964(gp)

00000ff0 <inst_264>:
     ff0:	00200513          	li	a0,2
     ff4:	00050593          	mv	a1,a0
     ff8:	3cb1a423          	sw	a1,968(gp)

00000ffc <inst_265>:
     ffc:	00200513          	li	a0,2
    1000:	00450593          	addi	a1,a0,4
    1004:	3cb1a623          	sw	a1,972(gp)

00001008 <inst_266>:
    1008:	00200513          	li	a0,2
    100c:	33250593          	addi	a1,a0,818
    1010:	3cb1a823          	sw	a1,976(gp)

00001014 <inst_267>:
    1014:	00200513          	li	a0,2
    1018:	66550593          	addi	a1,a0,1637
    101c:	3cb1aa23          	sw	a1,980(gp)

00001020 <inst_268>:
    1020:	00200513          	li	a0,2
    1024:	02c50593          	addi	a1,a0,44
    1028:	3cb1ac23          	sw	a1,984(gp)

0000102c <inst_269>:
    102c:	00200513          	li	a0,2
    1030:	55650593          	addi	a1,a0,1366
    1034:	3cb1ae23          	sw	a1,988(gp)

00001038 <inst_270>:
    1038:	00200513          	li	a0,2
    103c:	aab50593          	addi	a1,a0,-1365
    1040:	3eb1a023          	sw	a1,992(gp)

00001044 <inst_271>:
    1044:	00200513          	li	a0,2
    1048:	00650593          	addi	a1,a0,6
    104c:	3eb1a223          	sw	a1,996(gp)

00001050 <inst_272>:
    1050:	00200513          	li	a0,2
    1054:	33450593          	addi	a1,a0,820
    1058:	3eb1a423          	sw	a1,1000(gp)

0000105c <inst_273>:
    105c:	00200513          	li	a0,2
    1060:	66750593          	addi	a1,a0,1639
    1064:	3eb1a623          	sw	a1,1004(gp)

00001068 <inst_274>:
    1068:	00200513          	li	a0,2
    106c:	fd450593          	addi	a1,a0,-44
    1070:	3eb1a823          	sw	a1,1008(gp)

00001074 <inst_275>:
    1074:	00200513          	li	a0,2
    1078:	02e50593          	addi	a1,a0,46
    107c:	3eb1aa23          	sw	a1,1012(gp)

00001080 <inst_276>:
    1080:	55555537          	lui	a0,0x55555
    1084:	55450513          	addi	a0,a0,1364 # 55555554 <_end+0x55552ad4>
    1088:	00350593          	addi	a1,a0,3
    108c:	3eb1ac23          	sw	a1,1016(gp)

00001090 <inst_277>:
    1090:	55555537          	lui	a0,0x55555
    1094:	55450513          	addi	a0,a0,1364 # 55555554 <_end+0x55552ad4>
    1098:	55550593          	addi	a1,a0,1365
    109c:	3eb1ae23          	sw	a1,1020(gp)

000010a0 <inst_278>:
    10a0:	55555537          	lui	a0,0x55555
    10a4:	55450513          	addi	a0,a0,1364 # 55555554 <_end+0x55552ad4>
    10a8:	aaa50593          	addi	a1,a0,-1366
    10ac:	40b1a023          	sw	a1,1024(gp)

000010b0 <inst_279>:
    10b0:	55555537          	lui	a0,0x55555
    10b4:	55450513          	addi	a0,a0,1364 # 55555554 <_end+0x55552ad4>
    10b8:	00550593          	addi	a1,a0,5
    10bc:	40b1a223          	sw	a1,1028(gp)

000010c0 <inst_280>:
    10c0:	55555537          	lui	a0,0x55555
    10c4:	55450513          	addi	a0,a0,1364 # 55555554 <_end+0x55552ad4>
    10c8:	33350593          	addi	a1,a0,819
    10cc:	40b1a423          	sw	a1,1032(gp)

000010d0 <inst_281>:
    10d0:	55555537          	lui	a0,0x55555
    10d4:	55450513          	addi	a0,a0,1364 # 55555554 <_end+0x55552ad4>
    10d8:	66650593          	addi	a1,a0,1638
    10dc:	40b1a623          	sw	a1,1036(gp)

000010e0 <inst_282>:
    10e0:	55555537          	lui	a0,0x55555
    10e4:	55450513          	addi	a0,a0,1364 # 55555554 <_end+0x55552ad4>
    10e8:	fd350593          	addi	a1,a0,-45
    10ec:	40b1a823          	sw	a1,1040(gp)

000010f0 <inst_283>:
    10f0:	55555537          	lui	a0,0x55555
    10f4:	55450513          	addi	a0,a0,1364 # 55555554 <_end+0x55552ad4>
    10f8:	02d50593          	addi	a1,a0,45
    10fc:	40b1aa23          	sw	a1,1044(gp)

00001100 <inst_284>:
    1100:	55555537          	lui	a0,0x55555
    1104:	55450513          	addi	a0,a0,1364 # 55555554 <_end+0x55552ad4>
    1108:	00250593          	addi	a1,a0,2
    110c:	40b1ac23          	sw	a1,1048(gp)

00001110 <inst_285>:
    1110:	55555537          	lui	a0,0x55555
    1114:	55450513          	addi	a0,a0,1364 # 55555554 <_end+0x55552ad4>
    1118:	55450593          	addi	a1,a0,1364
    111c:	40b1ae23          	sw	a1,1052(gp)

00001120 <inst_286>:
    1120:	55555537          	lui	a0,0x55555
    1124:	55450513          	addi	a0,a0,1364 # 55555554 <_end+0x55552ad4>
    1128:	00050593          	mv	a1,a0
    112c:	42b1a023          	sw	a1,1056(gp)

00001130 <inst_287>:
    1130:	55555537          	lui	a0,0x55555
    1134:	55450513          	addi	a0,a0,1364 # 55555554 <_end+0x55552ad4>
    1138:	00450593          	addi	a1,a0,4
    113c:	42b1a223          	sw	a1,1060(gp)

00001140 <inst_288>:
    1140:	55555537          	lui	a0,0x55555
    1144:	55450513          	addi	a0,a0,1364 # 55555554 <_end+0x55552ad4>
    1148:	33250593          	addi	a1,a0,818
    114c:	42b1a423          	sw	a1,1064(gp)

00001150 <inst_289>:
    1150:	55555537          	lui	a0,0x55555
    1154:	55450513          	addi	a0,a0,1364 # 55555554 <_end+0x55552ad4>
    1158:	66550593          	addi	a1,a0,1637
    115c:	42b1a623          	sw	a1,1068(gp)

00001160 <inst_290>:
    1160:	55555537          	lui	a0,0x55555
    1164:	55450513          	addi	a0,a0,1364 # 55555554 <_end+0x55552ad4>
    1168:	02c50593          	addi	a1,a0,44
    116c:	42b1a823          	sw	a1,1072(gp)

00001170 <inst_291>:
    1170:	55555537          	lui	a0,0x55555
    1174:	55450513          	addi	a0,a0,1364 # 55555554 <_end+0x55552ad4>
    1178:	55650593          	addi	a1,a0,1366
    117c:	42b1aa23          	sw	a1,1076(gp)

00001180 <inst_292>:
    1180:	55555537          	lui	a0,0x55555
    1184:	55450513          	addi	a0,a0,1364 # 55555554 <_end+0x55552ad4>
    1188:	aab50593          	addi	a1,a0,-1365
    118c:	42b1ac23          	sw	a1,1080(gp)

00001190 <inst_293>:
    1190:	55555537          	lui	a0,0x55555
    1194:	55450513          	addi	a0,a0,1364 # 55555554 <_end+0x55552ad4>
    1198:	00650593          	addi	a1,a0,6
    119c:	42b1ae23          	sw	a1,1084(gp)

000011a0 <inst_294>:
    11a0:	55555537          	lui	a0,0x55555
    11a4:	55450513          	addi	a0,a0,1364 # 55555554 <_end+0x55552ad4>
    11a8:	33450593          	addi	a1,a0,820
    11ac:	44b1a023          	sw	a1,1088(gp)

000011b0 <inst_295>:
    11b0:	55555537          	lui	a0,0x55555
    11b4:	55450513          	addi	a0,a0,1364 # 55555554 <_end+0x55552ad4>
    11b8:	66750593          	addi	a1,a0,1639
    11bc:	44b1a223          	sw	a1,1092(gp)

000011c0 <inst_296>:
    11c0:	55555537          	lui	a0,0x55555
    11c4:	55450513          	addi	a0,a0,1364 # 55555554 <_end+0x55552ad4>
    11c8:	fd450593          	addi	a1,a0,-44
    11cc:	44b1a423          	sw	a1,1096(gp)

000011d0 <inst_297>:
    11d0:	55555537          	lui	a0,0x55555
    11d4:	55450513          	addi	a0,a0,1364 # 55555554 <_end+0x55552ad4>
    11d8:	02e50593          	addi	a1,a0,46
    11dc:	44b1a623          	sw	a1,1100(gp)

000011e0 <inst_298>:
    11e0:	00000513          	li	a0,0
    11e4:	00350593          	addi	a1,a0,3
    11e8:	44b1a823          	sw	a1,1104(gp)

000011ec <inst_299>:
    11ec:	00000513          	li	a0,0
    11f0:	55550593          	addi	a1,a0,1365
    11f4:	44b1aa23          	sw	a1,1108(gp)

000011f8 <inst_300>:
    11f8:	00000513          	li	a0,0
    11fc:	00550593          	addi	a1,a0,5
    1200:	44b1ac23          	sw	a1,1112(gp)

00001204 <inst_301>:
    1204:	00000513          	li	a0,0
    1208:	33350593          	addi	a1,a0,819
    120c:	44b1ae23          	sw	a1,1116(gp)

00001210 <inst_302>:
    1210:	00000513          	li	a0,0
    1214:	66650593          	addi	a1,a0,1638
    1218:	46b1a023          	sw	a1,1120(gp)

0000121c <inst_303>:
    121c:	00000513          	li	a0,0
    1220:	fd350593          	addi	a1,a0,-45
    1224:	46b1a223          	sw	a1,1124(gp)

00001228 <inst_304>:
    1228:	00000513          	li	a0,0
    122c:	02d50593          	addi	a1,a0,45
    1230:	46b1a423          	sw	a1,1128(gp)

00001234 <inst_305>:
    1234:	33333537          	lui	a0,0x33333
    1238:	33450513          	addi	a0,a0,820 # 33333334 <_end+0x333308b4>
    123c:	33250593          	addi	a1,a0,818
    1240:	46b1a623          	sw	a1,1132(gp)

00001244 <inst_306>:
    1244:	33333537          	lui	a0,0x33333
    1248:	33450513          	addi	a0,a0,820 # 33333334 <_end+0x333308b4>
    124c:	66550593          	addi	a1,a0,1637
    1250:	46b1a823          	sw	a1,1136(gp)

00001254 <inst_307>:
    1254:	33333537          	lui	a0,0x33333
    1258:	33450513          	addi	a0,a0,820 # 33333334 <_end+0x333308b4>
    125c:	02c50593          	addi	a1,a0,44
    1260:	46b1aa23          	sw	a1,1140(gp)

00001264 <inst_308>:
    1264:	33333537          	lui	a0,0x33333
    1268:	33450513          	addi	a0,a0,820 # 33333334 <_end+0x333308b4>
    126c:	55650593          	addi	a1,a0,1366
    1270:	46b1ac23          	sw	a1,1144(gp)

00001274 <inst_309>:
    1274:	33333537          	lui	a0,0x33333
    1278:	33450513          	addi	a0,a0,820 # 33333334 <_end+0x333308b4>
    127c:	aab50593          	addi	a1,a0,-1365
    1280:	46b1ae23          	sw	a1,1148(gp)

00001284 <inst_310>:
    1284:	33333537          	lui	a0,0x33333
    1288:	33450513          	addi	a0,a0,820 # 33333334 <_end+0x333308b4>
    128c:	00650593          	addi	a1,a0,6
    1290:	48b1a023          	sw	a1,1152(gp)

00001294 <inst_311>:
    1294:	33333537          	lui	a0,0x33333
    1298:	33450513          	addi	a0,a0,820 # 33333334 <_end+0x333308b4>
    129c:	33450593          	addi	a1,a0,820
    12a0:	48b1a223          	sw	a1,1156(gp)

000012a4 <inst_312>:
    12a4:	33333537          	lui	a0,0x33333
    12a8:	33450513          	addi	a0,a0,820 # 33333334 <_end+0x333308b4>
    12ac:	66750593          	addi	a1,a0,1639
    12b0:	48b1a423          	sw	a1,1160(gp)

000012b4 <inst_313>:
    12b4:	33333537          	lui	a0,0x33333
    12b8:	33450513          	addi	a0,a0,820 # 33333334 <_end+0x333308b4>
    12bc:	fd450593          	addi	a1,a0,-44
    12c0:	48b1a623          	sw	a1,1164(gp)

000012c4 <inst_314>:
    12c4:	33333537          	lui	a0,0x33333
    12c8:	33450513          	addi	a0,a0,820 # 33333334 <_end+0x333308b4>
    12cc:	02e50593          	addi	a1,a0,46
    12d0:	48b1a823          	sw	a1,1168(gp)

000012d4 <inst_315>:
    12d4:	66666537          	lui	a0,0x66666
    12d8:	66750513          	addi	a0,a0,1639 # 66666667 <_end+0x66663be7>
    12dc:	00350593          	addi	a1,a0,3
    12e0:	48b1aa23          	sw	a1,1172(gp)

000012e4 <inst_316>:
    12e4:	66666537          	lui	a0,0x66666
    12e8:	66750513          	addi	a0,a0,1639 # 66666667 <_end+0x66663be7>
    12ec:	55550593          	addi	a1,a0,1365
    12f0:	48b1ac23          	sw	a1,1176(gp)

000012f4 <inst_317>:
    12f4:	66666537          	lui	a0,0x66666
    12f8:	66750513          	addi	a0,a0,1639 # 66666667 <_end+0x66663be7>
    12fc:	aaa50593          	addi	a1,a0,-1366
    1300:	48b1ae23          	sw	a1,1180(gp)

00001304 <inst_318>:
    1304:	66666537          	lui	a0,0x66666
    1308:	66750513          	addi	a0,a0,1639 # 66666667 <_end+0x66663be7>
    130c:	00550593          	addi	a1,a0,5
    1310:	4ab1a023          	sw	a1,1184(gp)

00001314 <inst_319>:
    1314:	66666537          	lui	a0,0x66666
    1318:	66750513          	addi	a0,a0,1639 # 66666667 <_end+0x66663be7>
    131c:	33350593          	addi	a1,a0,819
    1320:	4ab1a223          	sw	a1,1188(gp)

00001324 <inst_320>:
    1324:	66666537          	lui	a0,0x66666
    1328:	66750513          	addi	a0,a0,1639 # 66666667 <_end+0x66663be7>
    132c:	66650593          	addi	a1,a0,1638
    1330:	4ab1a423          	sw	a1,1192(gp)

00001334 <inst_321>:
    1334:	66666537          	lui	a0,0x66666
    1338:	66750513          	addi	a0,a0,1639 # 66666667 <_end+0x66663be7>
    133c:	fd350593          	addi	a1,a0,-45
    1340:	4ab1a623          	sw	a1,1196(gp)

00001344 <inst_322>:
    1344:	66666537          	lui	a0,0x66666
    1348:	66750513          	addi	a0,a0,1639 # 66666667 <_end+0x66663be7>
    134c:	02d50593          	addi	a1,a0,45
    1350:	4ab1a823          	sw	a1,1200(gp)

00001354 <inst_323>:
    1354:	66666537          	lui	a0,0x66666
    1358:	66750513          	addi	a0,a0,1639 # 66666667 <_end+0x66663be7>
    135c:	00250593          	addi	a1,a0,2
    1360:	4ab1aa23          	sw	a1,1204(gp)

00001364 <inst_324>:
    1364:	66666537          	lui	a0,0x66666
    1368:	66750513          	addi	a0,a0,1639 # 66666667 <_end+0x66663be7>
    136c:	55450593          	addi	a1,a0,1364
    1370:	4ab1ac23          	sw	a1,1208(gp)

00001374 <inst_325>:
    1374:	66666537          	lui	a0,0x66666
    1378:	66750513          	addi	a0,a0,1639 # 66666667 <_end+0x66663be7>
    137c:	00050593          	mv	a1,a0
    1380:	4ab1ae23          	sw	a1,1212(gp)

00001384 <inst_326>:
    1384:	66666537          	lui	a0,0x66666
    1388:	66750513          	addi	a0,a0,1639 # 66666667 <_end+0x66663be7>
    138c:	00450593          	addi	a1,a0,4
    1390:	4cb1a023          	sw	a1,1216(gp)

00001394 <inst_327>:
    1394:	66666537          	lui	a0,0x66666
    1398:	66750513          	addi	a0,a0,1639 # 66666667 <_end+0x66663be7>
    139c:	33250593          	addi	a1,a0,818
    13a0:	4cb1a223          	sw	a1,1220(gp)

000013a4 <inst_328>:
    13a4:	66666537          	lui	a0,0x66666
    13a8:	66750513          	addi	a0,a0,1639 # 66666667 <_end+0x66663be7>
    13ac:	66550593          	addi	a1,a0,1637
    13b0:	4cb1a423          	sw	a1,1224(gp)

000013b4 <inst_329>:
    13b4:	66666537          	lui	a0,0x66666
    13b8:	66750513          	addi	a0,a0,1639 # 66666667 <_end+0x66663be7>
    13bc:	02c50593          	addi	a1,a0,44
    13c0:	4cb1a623          	sw	a1,1228(gp)

000013c4 <inst_330>:
    13c4:	66666537          	lui	a0,0x66666
    13c8:	66750513          	addi	a0,a0,1639 # 66666667 <_end+0x66663be7>
    13cc:	55650593          	addi	a1,a0,1366
    13d0:	4cb1a823          	sw	a1,1232(gp)

000013d4 <inst_331>:
    13d4:	66666537          	lui	a0,0x66666
    13d8:	66750513          	addi	a0,a0,1639 # 66666667 <_end+0x66663be7>
    13dc:	aab50593          	addi	a1,a0,-1365
    13e0:	4cb1aa23          	sw	a1,1236(gp)

000013e4 <inst_332>:
    13e4:	66666537          	lui	a0,0x66666
    13e8:	66750513          	addi	a0,a0,1639 # 66666667 <_end+0x66663be7>
    13ec:	00650593          	addi	a1,a0,6
    13f0:	4cb1ac23          	sw	a1,1240(gp)

000013f4 <inst_333>:
    13f4:	66666537          	lui	a0,0x66666
    13f8:	66750513          	addi	a0,a0,1639 # 66666667 <_end+0x66663be7>
    13fc:	33450593          	addi	a1,a0,820
    1400:	4cb1ae23          	sw	a1,1244(gp)

00001404 <inst_334>:
    1404:	66666537          	lui	a0,0x66666
    1408:	66750513          	addi	a0,a0,1639 # 66666667 <_end+0x66663be7>
    140c:	66750593          	addi	a1,a0,1639
    1410:	4eb1a023          	sw	a1,1248(gp)

00001414 <inst_335>:
    1414:	66666537          	lui	a0,0x66666
    1418:	66750513          	addi	a0,a0,1639 # 66666667 <_end+0x66663be7>
    141c:	fd450593          	addi	a1,a0,-44
    1420:	4eb1a223          	sw	a1,1252(gp)

00001424 <inst_336>:
    1424:	66666537          	lui	a0,0x66666
    1428:	66750513          	addi	a0,a0,1639 # 66666667 <_end+0x66663be7>
    142c:	02e50593          	addi	a1,a0,46
    1430:	4eb1a423          	sw	a1,1256(gp)

00001434 <inst_337>:
    1434:	ffff5537          	lui	a0,0xffff5
    1438:	afd50513          	addi	a0,a0,-1283 # ffff4afd <_end+0xffff207d>
    143c:	00350593          	addi	a1,a0,3
    1440:	4eb1a623          	sw	a1,1260(gp)

00001444 <inst_338>:
    1444:	ffff5537          	lui	a0,0xffff5
    1448:	afd50513          	addi	a0,a0,-1283 # ffff4afd <_end+0xffff207d>
    144c:	55550593          	addi	a1,a0,1365
    1450:	4eb1a823          	sw	a1,1264(gp)

00001454 <inst_339>:
    1454:	ffff5537          	lui	a0,0xffff5
    1458:	afd50513          	addi	a0,a0,-1283 # ffff4afd <_end+0xffff207d>
    145c:	aaa50593          	addi	a1,a0,-1366
    1460:	4eb1aa23          	sw	a1,1268(gp)

00001464 <inst_340>:
    1464:	ffff5537          	lui	a0,0xffff5
    1468:	afd50513          	addi	a0,a0,-1283 # ffff4afd <_end+0xffff207d>
    146c:	00550593          	addi	a1,a0,5
    1470:	4eb1ac23          	sw	a1,1272(gp)

00001474 <inst_341>:
    1474:	ffff5537          	lui	a0,0xffff5
    1478:	afd50513          	addi	a0,a0,-1283 # ffff4afd <_end+0xffff207d>
    147c:	33350593          	addi	a1,a0,819
    1480:	4eb1ae23          	sw	a1,1276(gp)

00001484 <inst_342>:
    1484:	ffff5537          	lui	a0,0xffff5
    1488:	afd50513          	addi	a0,a0,-1283 # ffff4afd <_end+0xffff207d>
    148c:	66650593          	addi	a1,a0,1638
    1490:	50b1a023          	sw	a1,1280(gp)

00001494 <inst_343>:
    1494:	ffff5537          	lui	a0,0xffff5
    1498:	afd50513          	addi	a0,a0,-1283 # ffff4afd <_end+0xffff207d>
    149c:	fd350593          	addi	a1,a0,-45
    14a0:	50b1a223          	sw	a1,1284(gp)

000014a4 <inst_344>:
    14a4:	ffff5537          	lui	a0,0xffff5
    14a8:	afd50513          	addi	a0,a0,-1283 # ffff4afd <_end+0xffff207d>
    14ac:	02d50593          	addi	a1,a0,45
    14b0:	50b1a423          	sw	a1,1288(gp)

000014b4 <inst_345>:
    14b4:	ffff5537          	lui	a0,0xffff5
    14b8:	afd50513          	addi	a0,a0,-1283 # ffff4afd <_end+0xffff207d>
    14bc:	00250593          	addi	a1,a0,2
    14c0:	50b1a623          	sw	a1,1292(gp)

000014c4 <inst_346>:
    14c4:	ffff5537          	lui	a0,0xffff5
    14c8:	afd50513          	addi	a0,a0,-1283 # ffff4afd <_end+0xffff207d>
    14cc:	55450593          	addi	a1,a0,1364
    14d0:	50b1a823          	sw	a1,1296(gp)

000014d4 <inst_347>:
    14d4:	ffff5537          	lui	a0,0xffff5
    14d8:	afd50513          	addi	a0,a0,-1283 # ffff4afd <_end+0xffff207d>
    14dc:	00050593          	mv	a1,a0
    14e0:	50b1aa23          	sw	a1,1300(gp)

000014e4 <inst_348>:
    14e4:	ffff5537          	lui	a0,0xffff5
    14e8:	afd50513          	addi	a0,a0,-1283 # ffff4afd <_end+0xffff207d>
    14ec:	00450593          	addi	a1,a0,4
    14f0:	50b1ac23          	sw	a1,1304(gp)

000014f4 <inst_349>:
    14f4:	ffff5537          	lui	a0,0xffff5
    14f8:	afd50513          	addi	a0,a0,-1283 # ffff4afd <_end+0xffff207d>
    14fc:	33250593          	addi	a1,a0,818
    1500:	50b1ae23          	sw	a1,1308(gp)

00001504 <inst_350>:
    1504:	ffff5537          	lui	a0,0xffff5
    1508:	afd50513          	addi	a0,a0,-1283 # ffff4afd <_end+0xffff207d>
    150c:	66550593          	addi	a1,a0,1637
    1510:	52b1a023          	sw	a1,1312(gp)

00001514 <inst_351>:
    1514:	ffff5537          	lui	a0,0xffff5
    1518:	afd50513          	addi	a0,a0,-1283 # ffff4afd <_end+0xffff207d>
    151c:	02c50593          	addi	a1,a0,44
    1520:	52b1a223          	sw	a1,1316(gp)

00001524 <inst_352>:
    1524:	ffff5537          	lui	a0,0xffff5
    1528:	afd50513          	addi	a0,a0,-1283 # ffff4afd <_end+0xffff207d>
    152c:	55650593          	addi	a1,a0,1366
    1530:	52b1a423          	sw	a1,1320(gp)

00001534 <inst_353>:
    1534:	ffff5537          	lui	a0,0xffff5
    1538:	afd50513          	addi	a0,a0,-1283 # ffff4afd <_end+0xffff207d>
    153c:	aab50593          	addi	a1,a0,-1365
    1540:	52b1a623          	sw	a1,1324(gp)

00001544 <inst_354>:
    1544:	ffff5537          	lui	a0,0xffff5
    1548:	afd50513          	addi	a0,a0,-1283 # ffff4afd <_end+0xffff207d>
    154c:	00650593          	addi	a1,a0,6
    1550:	52b1a823          	sw	a1,1328(gp)

00001554 <inst_355>:
    1554:	ffff5537          	lui	a0,0xffff5
    1558:	afd50513          	addi	a0,a0,-1283 # ffff4afd <_end+0xffff207d>
    155c:	33450593          	addi	a1,a0,820
    1560:	52b1aa23          	sw	a1,1332(gp)

00001564 <inst_356>:
    1564:	ffff5537          	lui	a0,0xffff5
    1568:	afd50513          	addi	a0,a0,-1283 # ffff4afd <_end+0xffff207d>
    156c:	66750593          	addi	a1,a0,1639
    1570:	52b1ac23          	sw	a1,1336(gp)

00001574 <inst_357>:
    1574:	ffff5537          	lui	a0,0xffff5
    1578:	afd50513          	addi	a0,a0,-1283 # ffff4afd <_end+0xffff207d>
    157c:	fd450593          	addi	a1,a0,-44
    1580:	52b1ae23          	sw	a1,1340(gp)

00001584 <inst_358>:
    1584:	ffff5537          	lui	a0,0xffff5
    1588:	afd50513          	addi	a0,a0,-1283 # ffff4afd <_end+0xffff207d>
    158c:	02e50593          	addi	a1,a0,46
    1590:	54b1a023          	sw	a1,1344(gp)

00001594 <inst_359>:
    1594:	0000b537          	lui	a0,0xb
    1598:	50550513          	addi	a0,a0,1285 # b505 <_end+0x8a85>
    159c:	00350593          	addi	a1,a0,3
    15a0:	54b1a223          	sw	a1,1348(gp)

000015a4 <inst_360>:
    15a4:	0000b537          	lui	a0,0xb
    15a8:	50550513          	addi	a0,a0,1285 # b505 <_end+0x8a85>
    15ac:	55550593          	addi	a1,a0,1365
    15b0:	54b1a423          	sw	a1,1352(gp)

000015b4 <inst_361>:
    15b4:	0000b537          	lui	a0,0xb
    15b8:	50550513          	addi	a0,a0,1285 # b505 <_end+0x8a85>
    15bc:	aaa50593          	addi	a1,a0,-1366
    15c0:	54b1a623          	sw	a1,1356(gp)

000015c4 <inst_362>:
    15c4:	0000b537          	lui	a0,0xb
    15c8:	50550513          	addi	a0,a0,1285 # b505 <_end+0x8a85>
    15cc:	00550593          	addi	a1,a0,5
    15d0:	54b1a823          	sw	a1,1360(gp)

000015d4 <inst_363>:
    15d4:	0000b537          	lui	a0,0xb
    15d8:	50550513          	addi	a0,a0,1285 # b505 <_end+0x8a85>
    15dc:	33350593          	addi	a1,a0,819
    15e0:	54b1aa23          	sw	a1,1364(gp)

000015e4 <inst_364>:
    15e4:	0000b537          	lui	a0,0xb
    15e8:	50550513          	addi	a0,a0,1285 # b505 <_end+0x8a85>
    15ec:	66650593          	addi	a1,a0,1638
    15f0:	54b1ac23          	sw	a1,1368(gp)

000015f4 <inst_365>:
    15f4:	0000b537          	lui	a0,0xb
    15f8:	50550513          	addi	a0,a0,1285 # b505 <_end+0x8a85>
    15fc:	fd350593          	addi	a1,a0,-45
    1600:	54b1ae23          	sw	a1,1372(gp)

00001604 <inst_366>:
    1604:	0000b537          	lui	a0,0xb
    1608:	50550513          	addi	a0,a0,1285 # b505 <_end+0x8a85>
    160c:	02d50593          	addi	a1,a0,45
    1610:	56b1a023          	sw	a1,1376(gp)

00001614 <inst_367>:
    1614:	0000b537          	lui	a0,0xb
    1618:	50550513          	addi	a0,a0,1285 # b505 <_end+0x8a85>
    161c:	00250593          	addi	a1,a0,2
    1620:	56b1a223          	sw	a1,1380(gp)

00001624 <inst_368>:
    1624:	0000b537          	lui	a0,0xb
    1628:	50550513          	addi	a0,a0,1285 # b505 <_end+0x8a85>
    162c:	55450593          	addi	a1,a0,1364
    1630:	56b1a423          	sw	a1,1384(gp)

00001634 <inst_369>:
    1634:	0000b537          	lui	a0,0xb
    1638:	50550513          	addi	a0,a0,1285 # b505 <_end+0x8a85>
    163c:	00050593          	mv	a1,a0
    1640:	56b1a623          	sw	a1,1388(gp)

00001644 <inst_370>:
    1644:	0000b537          	lui	a0,0xb
    1648:	50550513          	addi	a0,a0,1285 # b505 <_end+0x8a85>
    164c:	00450593          	addi	a1,a0,4
    1650:	56b1a823          	sw	a1,1392(gp)

00001654 <inst_371>:
    1654:	0000b537          	lui	a0,0xb
    1658:	50550513          	addi	a0,a0,1285 # b505 <_end+0x8a85>
    165c:	33250593          	addi	a1,a0,818
    1660:	56b1aa23          	sw	a1,1396(gp)

00001664 <inst_372>:
    1664:	0000b537          	lui	a0,0xb
    1668:	50550513          	addi	a0,a0,1285 # b505 <_end+0x8a85>
    166c:	66550593          	addi	a1,a0,1637
    1670:	56b1ac23          	sw	a1,1400(gp)

00001674 <inst_373>:
    1674:	0000b537          	lui	a0,0xb
    1678:	50550513          	addi	a0,a0,1285 # b505 <_end+0x8a85>
    167c:	02c50593          	addi	a1,a0,44
    1680:	56b1ae23          	sw	a1,1404(gp)

00001684 <inst_374>:
    1684:	0000b537          	lui	a0,0xb
    1688:	50550513          	addi	a0,a0,1285 # b505 <_end+0x8a85>
    168c:	55650593          	addi	a1,a0,1366
    1690:	58b1a023          	sw	a1,1408(gp)

00001694 <inst_375>:
    1694:	0000b537          	lui	a0,0xb
    1698:	50550513          	addi	a0,a0,1285 # b505 <_end+0x8a85>
    169c:	aab50593          	addi	a1,a0,-1365
    16a0:	58b1a223          	sw	a1,1412(gp)

000016a4 <inst_376>:
    16a4:	0000b537          	lui	a0,0xb
    16a8:	50550513          	addi	a0,a0,1285 # b505 <_end+0x8a85>
    16ac:	00650593          	addi	a1,a0,6
    16b0:	58b1a423          	sw	a1,1416(gp)

000016b4 <inst_377>:
    16b4:	0000b537          	lui	a0,0xb
    16b8:	50550513          	addi	a0,a0,1285 # b505 <_end+0x8a85>
    16bc:	33450593          	addi	a1,a0,820
    16c0:	58b1a623          	sw	a1,1420(gp)

000016c4 <inst_378>:
    16c4:	0000b537          	lui	a0,0xb
    16c8:	50550513          	addi	a0,a0,1285 # b505 <_end+0x8a85>
    16cc:	66750593          	addi	a1,a0,1639
    16d0:	58b1a823          	sw	a1,1424(gp)

000016d4 <inst_379>:
    16d4:	0000b537          	lui	a0,0xb
    16d8:	50550513          	addi	a0,a0,1285 # b505 <_end+0x8a85>
    16dc:	fd450593          	addi	a1,a0,-44
    16e0:	58b1aa23          	sw	a1,1428(gp)

000016e4 <inst_380>:
    16e4:	0000b537          	lui	a0,0xb
    16e8:	50550513          	addi	a0,a0,1285 # b505 <_end+0x8a85>
    16ec:	02e50593          	addi	a1,a0,46
    16f0:	58b1ac23          	sw	a1,1432(gp)

000016f4 <inst_381>:
    16f4:	00000513          	li	a0,0
    16f8:	00250593          	addi	a1,a0,2
    16fc:	58b1ae23          	sw	a1,1436(gp)

00001700 <inst_382>:
    1700:	00000513          	li	a0,0
    1704:	55450593          	addi	a1,a0,1364
    1708:	5ab1a023          	sw	a1,1440(gp)

0000170c <inst_383>:
    170c:	00000513          	li	a0,0
    1710:	00050593          	mv	a1,a0
    1714:	5ab1a223          	sw	a1,1444(gp)

00001718 <inst_384>:
    1718:	00000513          	li	a0,0
    171c:	00450593          	addi	a1,a0,4
    1720:	5ab1a423          	sw	a1,1448(gp)

00001724 <inst_385>:
    1724:	00000513          	li	a0,0
    1728:	33250593          	addi	a1,a0,818
    172c:	5ab1a623          	sw	a1,1452(gp)

00001730 <inst_386>:
    1730:	00000513          	li	a0,0
    1734:	66550593          	addi	a1,a0,1637
    1738:	5ab1a823          	sw	a1,1456(gp)

0000173c <inst_387>:
    173c:	00000513          	li	a0,0
    1740:	02c50593          	addi	a1,a0,44
    1744:	5ab1aa23          	sw	a1,1460(gp)

00001748 <inst_388>:
    1748:	00000513          	li	a0,0
    174c:	55650593          	addi	a1,a0,1366
    1750:	5ab1ac23          	sw	a1,1464(gp)

00001754 <inst_389>:
    1754:	00000513          	li	a0,0
    1758:	aab50593          	addi	a1,a0,-1365
    175c:	5ab1ae23          	sw	a1,1468(gp)

00001760 <inst_390>:
    1760:	00000513          	li	a0,0
    1764:	00650593          	addi	a1,a0,6
    1768:	5cb1a023          	sw	a1,1472(gp)

0000176c <inst_391>:
    176c:	00000513          	li	a0,0
    1770:	33450593          	addi	a1,a0,820
    1774:	5cb1a223          	sw	a1,1476(gp)

00001778 <inst_392>:
    1778:	00000513          	li	a0,0
    177c:	66750593          	addi	a1,a0,1639
    1780:	5cb1a423          	sw	a1,1480(gp)

00001784 <inst_393>:
    1784:	00000513          	li	a0,0
    1788:	fd450593          	addi	a1,a0,-44
    178c:	5cb1a623          	sw	a1,1484(gp)

00001790 <inst_394>:
    1790:	00000513          	li	a0,0
    1794:	02e50593          	addi	a1,a0,46
    1798:	5cb1a823          	sw	a1,1488(gp)

0000179c <inst_395>:
    179c:	00400513          	li	a0,4
    17a0:	00350593          	addi	a1,a0,3
    17a4:	5cb1aa23          	sw	a1,1492(gp)

000017a8 <inst_396>:
    17a8:	00400513          	li	a0,4
    17ac:	55550593          	addi	a1,a0,1365
    17b0:	5cb1ac23          	sw	a1,1496(gp)

000017b4 <inst_397>:
    17b4:	00400513          	li	a0,4
    17b8:	aaa50593          	addi	a1,a0,-1366
    17bc:	5cb1ae23          	sw	a1,1500(gp)

000017c0 <inst_398>:
    17c0:	00400513          	li	a0,4
    17c4:	00550593          	addi	a1,a0,5
    17c8:	5eb1a023          	sw	a1,1504(gp)

000017cc <inst_399>:
    17cc:	00400513          	li	a0,4
    17d0:	33350593          	addi	a1,a0,819
    17d4:	5eb1a223          	sw	a1,1508(gp)

000017d8 <inst_400>:
    17d8:	00400513          	li	a0,4
    17dc:	66650593          	addi	a1,a0,1638
    17e0:	5eb1a423          	sw	a1,1512(gp)

000017e4 <inst_401>:
    17e4:	00400513          	li	a0,4
    17e8:	fd350593          	addi	a1,a0,-45
    17ec:	5eb1a623          	sw	a1,1516(gp)

000017f0 <inst_402>:
    17f0:	00400513          	li	a0,4
    17f4:	02d50593          	addi	a1,a0,45
    17f8:	5eb1a823          	sw	a1,1520(gp)

000017fc <inst_403>:
    17fc:	00400513          	li	a0,4
    1800:	00250593          	addi	a1,a0,2
    1804:	5eb1aa23          	sw	a1,1524(gp)

00001808 <inst_404>:
    1808:	00400513          	li	a0,4
    180c:	55450593          	addi	a1,a0,1364
    1810:	5eb1ac23          	sw	a1,1528(gp)

00001814 <inst_405>:
    1814:	00400513          	li	a0,4
    1818:	00050593          	mv	a1,a0
    181c:	5eb1ae23          	sw	a1,1532(gp)

00001820 <inst_406>:
    1820:	00400513          	li	a0,4
    1824:	33250593          	addi	a1,a0,818
    1828:	60b1a023          	sw	a1,1536(gp)

0000182c <inst_407>:
    182c:	00400513          	li	a0,4
    1830:	66550593          	addi	a1,a0,1637
    1834:	60b1a223          	sw	a1,1540(gp)

00001838 <inst_408>:
    1838:	00400513          	li	a0,4
    183c:	02c50593          	addi	a1,a0,44
    1840:	60b1a423          	sw	a1,1544(gp)

00001844 <inst_409>:
    1844:	00400513          	li	a0,4
    1848:	55650593          	addi	a1,a0,1366
    184c:	60b1a623          	sw	a1,1548(gp)

00001850 <inst_410>:
    1850:	00400513          	li	a0,4
    1854:	aab50593          	addi	a1,a0,-1365
    1858:	60b1a823          	sw	a1,1552(gp)

0000185c <inst_411>:
    185c:	00400513          	li	a0,4
    1860:	00650593          	addi	a1,a0,6
    1864:	60b1aa23          	sw	a1,1556(gp)

00001868 <inst_412>:
    1868:	00400513          	li	a0,4
    186c:	33450593          	addi	a1,a0,820
    1870:	60b1ac23          	sw	a1,1560(gp)

00001874 <inst_413>:
    1874:	00400513          	li	a0,4
    1878:	66750593          	addi	a1,a0,1639
    187c:	60b1ae23          	sw	a1,1564(gp)

00001880 <inst_414>:
    1880:	00400513          	li	a0,4
    1884:	fd450593          	addi	a1,a0,-44
    1888:	62b1a023          	sw	a1,1568(gp)

0000188c <inst_415>:
    188c:	00400513          	li	a0,4
    1890:	02e50593          	addi	a1,a0,46
    1894:	62b1a223          	sw	a1,1572(gp)

00001898 <inst_416>:
    1898:	33333537          	lui	a0,0x33333
    189c:	33250513          	addi	a0,a0,818 # 33333332 <_end+0x333308b2>
    18a0:	00350593          	addi	a1,a0,3
    18a4:	62b1a423          	sw	a1,1576(gp)

000018a8 <inst_417>:
    18a8:	33333537          	lui	a0,0x33333
    18ac:	33250513          	addi	a0,a0,818 # 33333332 <_end+0x333308b2>
    18b0:	55550593          	addi	a1,a0,1365
    18b4:	62b1a623          	sw	a1,1580(gp)

000018b8 <inst_418>:
    18b8:	33333537          	lui	a0,0x33333
    18bc:	33250513          	addi	a0,a0,818 # 33333332 <_end+0x333308b2>
    18c0:	aaa50593          	addi	a1,a0,-1366
    18c4:	62b1a823          	sw	a1,1584(gp)

000018c8 <inst_419>:
    18c8:	33333537          	lui	a0,0x33333
    18cc:	33250513          	addi	a0,a0,818 # 33333332 <_end+0x333308b2>
    18d0:	00550593          	addi	a1,a0,5
    18d4:	62b1aa23          	sw	a1,1588(gp)

000018d8 <inst_420>:
    18d8:	33333537          	lui	a0,0x33333
    18dc:	33250513          	addi	a0,a0,818 # 33333332 <_end+0x333308b2>
    18e0:	33350593          	addi	a1,a0,819
    18e4:	62b1ac23          	sw	a1,1592(gp)

000018e8 <inst_421>:
    18e8:	33333537          	lui	a0,0x33333
    18ec:	33250513          	addi	a0,a0,818 # 33333332 <_end+0x333308b2>
    18f0:	66650593          	addi	a1,a0,1638
    18f4:	62b1ae23          	sw	a1,1596(gp)

000018f8 <inst_422>:
    18f8:	33333537          	lui	a0,0x33333
    18fc:	33250513          	addi	a0,a0,818 # 33333332 <_end+0x333308b2>
    1900:	fd350593          	addi	a1,a0,-45
    1904:	64b1a023          	sw	a1,1600(gp)

00001908 <inst_423>:
    1908:	33333537          	lui	a0,0x33333
    190c:	33250513          	addi	a0,a0,818 # 33333332 <_end+0x333308b2>
    1910:	02d50593          	addi	a1,a0,45
    1914:	64b1a223          	sw	a1,1604(gp)

00001918 <inst_424>:
    1918:	33333537          	lui	a0,0x33333
    191c:	33250513          	addi	a0,a0,818 # 33333332 <_end+0x333308b2>
    1920:	00250593          	addi	a1,a0,2
    1924:	64b1a423          	sw	a1,1608(gp)

00001928 <inst_425>:
    1928:	33333537          	lui	a0,0x33333
    192c:	33250513          	addi	a0,a0,818 # 33333332 <_end+0x333308b2>
    1930:	55450593          	addi	a1,a0,1364
    1934:	64b1a623          	sw	a1,1612(gp)

00001938 <inst_426>:
    1938:	33333537          	lui	a0,0x33333
    193c:	33250513          	addi	a0,a0,818 # 33333332 <_end+0x333308b2>
    1940:	00050593          	mv	a1,a0
    1944:	64b1a823          	sw	a1,1616(gp)

00001948 <inst_427>:
    1948:	33333537          	lui	a0,0x33333
    194c:	33250513          	addi	a0,a0,818 # 33333332 <_end+0x333308b2>
    1950:	00450593          	addi	a1,a0,4
    1954:	64b1aa23          	sw	a1,1620(gp)

00001958 <inst_428>:
    1958:	33333537          	lui	a0,0x33333
    195c:	33250513          	addi	a0,a0,818 # 33333332 <_end+0x333308b2>
    1960:	33250593          	addi	a1,a0,818
    1964:	64b1ac23          	sw	a1,1624(gp)

00001968 <inst_429>:
    1968:	33333537          	lui	a0,0x33333
    196c:	33250513          	addi	a0,a0,818 # 33333332 <_end+0x333308b2>
    1970:	66550593          	addi	a1,a0,1637
    1974:	64b1ae23          	sw	a1,1628(gp)

00001978 <inst_430>:
    1978:	33333537          	lui	a0,0x33333
    197c:	33250513          	addi	a0,a0,818 # 33333332 <_end+0x333308b2>
    1980:	02c50593          	addi	a1,a0,44
    1984:	66b1a023          	sw	a1,1632(gp)

00001988 <inst_431>:
    1988:	33333537          	lui	a0,0x33333
    198c:	33250513          	addi	a0,a0,818 # 33333332 <_end+0x333308b2>
    1990:	55650593          	addi	a1,a0,1366
    1994:	66b1a223          	sw	a1,1636(gp)

00001998 <inst_432>:
    1998:	33333537          	lui	a0,0x33333
    199c:	33250513          	addi	a0,a0,818 # 33333332 <_end+0x333308b2>
    19a0:	aab50593          	addi	a1,a0,-1365
    19a4:	66b1a423          	sw	a1,1640(gp)

000019a8 <inst_433>:
    19a8:	33333537          	lui	a0,0x33333
    19ac:	33250513          	addi	a0,a0,818 # 33333332 <_end+0x333308b2>
    19b0:	00650593          	addi	a1,a0,6
    19b4:	66b1a623          	sw	a1,1644(gp)

000019b8 <inst_434>:
    19b8:	33333537          	lui	a0,0x33333
    19bc:	33250513          	addi	a0,a0,818 # 33333332 <_end+0x333308b2>
    19c0:	33450593          	addi	a1,a0,820
    19c4:	66b1a823          	sw	a1,1648(gp)

000019c8 <inst_435>:
    19c8:	33333537          	lui	a0,0x33333
    19cc:	33250513          	addi	a0,a0,818 # 33333332 <_end+0x333308b2>
    19d0:	66750593          	addi	a1,a0,1639
    19d4:	66b1aa23          	sw	a1,1652(gp)

000019d8 <inst_436>:
    19d8:	33333537          	lui	a0,0x33333
    19dc:	33250513          	addi	a0,a0,818 # 33333332 <_end+0x333308b2>
    19e0:	fd450593          	addi	a1,a0,-44
    19e4:	66b1ac23          	sw	a1,1656(gp)

000019e8 <inst_437>:
    19e8:	33333537          	lui	a0,0x33333
    19ec:	33250513          	addi	a0,a0,818 # 33333332 <_end+0x333308b2>
    19f0:	02e50593          	addi	a1,a0,46
    19f4:	66b1ae23          	sw	a1,1660(gp)

000019f8 <inst_438>:
    19f8:	66666537          	lui	a0,0x66666
    19fc:	66550513          	addi	a0,a0,1637 # 66666665 <_end+0x66663be5>
    1a00:	00350593          	addi	a1,a0,3
    1a04:	68b1a023          	sw	a1,1664(gp)

00001a08 <inst_439>:
    1a08:	66666537          	lui	a0,0x66666
    1a0c:	66550513          	addi	a0,a0,1637 # 66666665 <_end+0x66663be5>
    1a10:	55550593          	addi	a1,a0,1365
    1a14:	68b1a223          	sw	a1,1668(gp)

00001a18 <inst_440>:
    1a18:	66666537          	lui	a0,0x66666
    1a1c:	66550513          	addi	a0,a0,1637 # 66666665 <_end+0x66663be5>
    1a20:	aaa50593          	addi	a1,a0,-1366
    1a24:	68b1a423          	sw	a1,1672(gp)

00001a28 <inst_441>:
    1a28:	66666537          	lui	a0,0x66666
    1a2c:	66550513          	addi	a0,a0,1637 # 66666665 <_end+0x66663be5>
    1a30:	00550593          	addi	a1,a0,5
    1a34:	68b1a623          	sw	a1,1676(gp)

00001a38 <inst_442>:
    1a38:	66666537          	lui	a0,0x66666
    1a3c:	66550513          	addi	a0,a0,1637 # 66666665 <_end+0x66663be5>
    1a40:	33350593          	addi	a1,a0,819
    1a44:	68b1a823          	sw	a1,1680(gp)

00001a48 <inst_443>:
    1a48:	66666537          	lui	a0,0x66666
    1a4c:	66550513          	addi	a0,a0,1637 # 66666665 <_end+0x66663be5>
    1a50:	66650593          	addi	a1,a0,1638
    1a54:	68b1aa23          	sw	a1,1684(gp)

00001a58 <inst_444>:
    1a58:	66666537          	lui	a0,0x66666
    1a5c:	66550513          	addi	a0,a0,1637 # 66666665 <_end+0x66663be5>
    1a60:	fd350593          	addi	a1,a0,-45
    1a64:	68b1ac23          	sw	a1,1688(gp)

00001a68 <inst_445>:
    1a68:	66666537          	lui	a0,0x66666
    1a6c:	66550513          	addi	a0,a0,1637 # 66666665 <_end+0x66663be5>
    1a70:	02d50593          	addi	a1,a0,45
    1a74:	68b1ae23          	sw	a1,1692(gp)

00001a78 <inst_446>:
    1a78:	66666537          	lui	a0,0x66666
    1a7c:	66550513          	addi	a0,a0,1637 # 66666665 <_end+0x66663be5>
    1a80:	00250593          	addi	a1,a0,2
    1a84:	6ab1a023          	sw	a1,1696(gp)

00001a88 <inst_447>:
    1a88:	66666537          	lui	a0,0x66666
    1a8c:	66550513          	addi	a0,a0,1637 # 66666665 <_end+0x66663be5>
    1a90:	55450593          	addi	a1,a0,1364
    1a94:	6ab1a223          	sw	a1,1700(gp)

00001a98 <inst_448>:
    1a98:	66666537          	lui	a0,0x66666
    1a9c:	66550513          	addi	a0,a0,1637 # 66666665 <_end+0x66663be5>
    1aa0:	00050593          	mv	a1,a0
    1aa4:	6ab1a423          	sw	a1,1704(gp)

00001aa8 <inst_449>:
    1aa8:	66666537          	lui	a0,0x66666
    1aac:	66550513          	addi	a0,a0,1637 # 66666665 <_end+0x66663be5>
    1ab0:	00450593          	addi	a1,a0,4
    1ab4:	6ab1a623          	sw	a1,1708(gp)

00001ab8 <inst_450>:
    1ab8:	66666537          	lui	a0,0x66666
    1abc:	66550513          	addi	a0,a0,1637 # 66666665 <_end+0x66663be5>
    1ac0:	33250593          	addi	a1,a0,818
    1ac4:	6ab1a823          	sw	a1,1712(gp)

00001ac8 <inst_451>:
    1ac8:	66666537          	lui	a0,0x66666
    1acc:	66550513          	addi	a0,a0,1637 # 66666665 <_end+0x66663be5>
    1ad0:	66550593          	addi	a1,a0,1637
    1ad4:	6ab1aa23          	sw	a1,1716(gp)

00001ad8 <inst_452>:
    1ad8:	66666537          	lui	a0,0x66666
    1adc:	66550513          	addi	a0,a0,1637 # 66666665 <_end+0x66663be5>
    1ae0:	02c50593          	addi	a1,a0,44
    1ae4:	6ab1ac23          	sw	a1,1720(gp)

00001ae8 <inst_453>:
    1ae8:	66666537          	lui	a0,0x66666
    1aec:	66550513          	addi	a0,a0,1637 # 66666665 <_end+0x66663be5>
    1af0:	55650593          	addi	a1,a0,1366
    1af4:	6ab1ae23          	sw	a1,1724(gp)

00001af8 <inst_454>:
    1af8:	66666537          	lui	a0,0x66666
    1afc:	66550513          	addi	a0,a0,1637 # 66666665 <_end+0x66663be5>
    1b00:	aab50593          	addi	a1,a0,-1365
    1b04:	6cb1a023          	sw	a1,1728(gp)

00001b08 <inst_455>:
    1b08:	66666537          	lui	a0,0x66666
    1b0c:	66550513          	addi	a0,a0,1637 # 66666665 <_end+0x66663be5>
    1b10:	00650593          	addi	a1,a0,6
    1b14:	6cb1a223          	sw	a1,1732(gp)

00001b18 <inst_456>:
    1b18:	66666537          	lui	a0,0x66666
    1b1c:	66550513          	addi	a0,a0,1637 # 66666665 <_end+0x66663be5>
    1b20:	33450593          	addi	a1,a0,820
    1b24:	6cb1a423          	sw	a1,1736(gp)

00001b28 <inst_457>:
    1b28:	66666537          	lui	a0,0x66666
    1b2c:	66550513          	addi	a0,a0,1637 # 66666665 <_end+0x66663be5>
    1b30:	66750593          	addi	a1,a0,1639
    1b34:	6cb1a623          	sw	a1,1740(gp)

00001b38 <inst_458>:
    1b38:	66666537          	lui	a0,0x66666
    1b3c:	66550513          	addi	a0,a0,1637 # 66666665 <_end+0x66663be5>
    1b40:	fd450593          	addi	a1,a0,-44
    1b44:	6cb1a823          	sw	a1,1744(gp)

00001b48 <inst_459>:
    1b48:	66666537          	lui	a0,0x66666
    1b4c:	66550513          	addi	a0,a0,1637 # 66666665 <_end+0x66663be5>
    1b50:	02e50593          	addi	a1,a0,46
    1b54:	6cb1aa23          	sw	a1,1748(gp)

00001b58 <inst_460>:
    1b58:	0000b537          	lui	a0,0xb
    1b5c:	50350513          	addi	a0,a0,1283 # b503 <_end+0x8a83>
    1b60:	00350593          	addi	a1,a0,3
    1b64:	6cb1ac23          	sw	a1,1752(gp)

00001b68 <inst_461>:
    1b68:	0000b537          	lui	a0,0xb
    1b6c:	50350513          	addi	a0,a0,1283 # b503 <_end+0x8a83>
    1b70:	55550593          	addi	a1,a0,1365
    1b74:	6cb1ae23          	sw	a1,1756(gp)

00001b78 <inst_462>:
    1b78:	0000b537          	lui	a0,0xb
    1b7c:	50350513          	addi	a0,a0,1283 # b503 <_end+0x8a83>
    1b80:	aaa50593          	addi	a1,a0,-1366
    1b84:	6eb1a023          	sw	a1,1760(gp)

00001b88 <inst_463>:
    1b88:	0000b537          	lui	a0,0xb
    1b8c:	50350513          	addi	a0,a0,1283 # b503 <_end+0x8a83>
    1b90:	00550593          	addi	a1,a0,5
    1b94:	6eb1a223          	sw	a1,1764(gp)

00001b98 <inst_464>:
    1b98:	0000b537          	lui	a0,0xb
    1b9c:	50350513          	addi	a0,a0,1283 # b503 <_end+0x8a83>
    1ba0:	33350593          	addi	a1,a0,819
    1ba4:	6eb1a423          	sw	a1,1768(gp)

00001ba8 <inst_465>:
    1ba8:	0000b537          	lui	a0,0xb
    1bac:	50350513          	addi	a0,a0,1283 # b503 <_end+0x8a83>
    1bb0:	66650593          	addi	a1,a0,1638
    1bb4:	6eb1a623          	sw	a1,1772(gp)

00001bb8 <inst_466>:
    1bb8:	0000b537          	lui	a0,0xb
    1bbc:	50350513          	addi	a0,a0,1283 # b503 <_end+0x8a83>
    1bc0:	fd350593          	addi	a1,a0,-45
    1bc4:	6eb1a823          	sw	a1,1776(gp)

00001bc8 <inst_467>:
    1bc8:	0000b537          	lui	a0,0xb
    1bcc:	50350513          	addi	a0,a0,1283 # b503 <_end+0x8a83>
    1bd0:	02d50593          	addi	a1,a0,45
    1bd4:	6eb1aa23          	sw	a1,1780(gp)

00001bd8 <inst_468>:
    1bd8:	0000b537          	lui	a0,0xb
    1bdc:	50350513          	addi	a0,a0,1283 # b503 <_end+0x8a83>
    1be0:	00250593          	addi	a1,a0,2
    1be4:	6eb1ac23          	sw	a1,1784(gp)

00001be8 <inst_469>:
    1be8:	0000b537          	lui	a0,0xb
    1bec:	50350513          	addi	a0,a0,1283 # b503 <_end+0x8a83>
    1bf0:	55450593          	addi	a1,a0,1364
    1bf4:	6eb1ae23          	sw	a1,1788(gp)

00001bf8 <inst_470>:
    1bf8:	0000b537          	lui	a0,0xb
    1bfc:	50350513          	addi	a0,a0,1283 # b503 <_end+0x8a83>
    1c00:	00050593          	mv	a1,a0
    1c04:	70b1a023          	sw	a1,1792(gp)

00001c08 <inst_471>:
    1c08:	0000b537          	lui	a0,0xb
    1c0c:	50350513          	addi	a0,a0,1283 # b503 <_end+0x8a83>
    1c10:	00450593          	addi	a1,a0,4
    1c14:	70b1a223          	sw	a1,1796(gp)

00001c18 <inst_472>:
    1c18:	0000b537          	lui	a0,0xb
    1c1c:	50350513          	addi	a0,a0,1283 # b503 <_end+0x8a83>
    1c20:	33250593          	addi	a1,a0,818
    1c24:	70b1a423          	sw	a1,1800(gp)

00001c28 <inst_473>:
    1c28:	0000b537          	lui	a0,0xb
    1c2c:	50350513          	addi	a0,a0,1283 # b503 <_end+0x8a83>
    1c30:	66550593          	addi	a1,a0,1637
    1c34:	70b1a623          	sw	a1,1804(gp)

00001c38 <inst_474>:
    1c38:	0000b537          	lui	a0,0xb
    1c3c:	50350513          	addi	a0,a0,1283 # b503 <_end+0x8a83>
    1c40:	02c50593          	addi	a1,a0,44
    1c44:	70b1a823          	sw	a1,1808(gp)

00001c48 <inst_475>:
    1c48:	0000b537          	lui	a0,0xb
    1c4c:	50350513          	addi	a0,a0,1283 # b503 <_end+0x8a83>
    1c50:	55650593          	addi	a1,a0,1366
    1c54:	70b1aa23          	sw	a1,1812(gp)

00001c58 <inst_476>:
    1c58:	0000b537          	lui	a0,0xb
    1c5c:	50350513          	addi	a0,a0,1283 # b503 <_end+0x8a83>
    1c60:	aab50593          	addi	a1,a0,-1365
    1c64:	70b1ac23          	sw	a1,1816(gp)

00001c68 <inst_477>:
    1c68:	0000b537          	lui	a0,0xb
    1c6c:	50350513          	addi	a0,a0,1283 # b503 <_end+0x8a83>
    1c70:	00650593          	addi	a1,a0,6
    1c74:	70b1ae23          	sw	a1,1820(gp)

00001c78 <inst_478>:
    1c78:	0000b537          	lui	a0,0xb
    1c7c:	50350513          	addi	a0,a0,1283 # b503 <_end+0x8a83>
    1c80:	33450593          	addi	a1,a0,820
    1c84:	72b1a023          	sw	a1,1824(gp)

00001c88 <inst_479>:
    1c88:	0000b537          	lui	a0,0xb
    1c8c:	50350513          	addi	a0,a0,1283 # b503 <_end+0x8a83>
    1c90:	66750593          	addi	a1,a0,1639
    1c94:	72b1a223          	sw	a1,1828(gp)

00001c98 <inst_480>:
    1c98:	0000b537          	lui	a0,0xb
    1c9c:	50350513          	addi	a0,a0,1283 # b503 <_end+0x8a83>
    1ca0:	fd450593          	addi	a1,a0,-44
    1ca4:	72b1a423          	sw	a1,1832(gp)

00001ca8 <inst_481>:
    1ca8:	0000b537          	lui	a0,0xb
    1cac:	50350513          	addi	a0,a0,1283 # b503 <_end+0x8a83>
    1cb0:	02e50593          	addi	a1,a0,46
    1cb4:	72b1a623          	sw	a1,1836(gp)

00001cb8 <inst_482>:
    1cb8:	55555537          	lui	a0,0x55555
    1cbc:	55650513          	addi	a0,a0,1366 # 55555556 <_end+0x55552ad6>
    1cc0:	00350593          	addi	a1,a0,3
    1cc4:	72b1a823          	sw	a1,1840(gp)

00001cc8 <inst_483>:
    1cc8:	55555537          	lui	a0,0x55555
    1ccc:	55650513          	addi	a0,a0,1366 # 55555556 <_end+0x55552ad6>
    1cd0:	55550593          	addi	a1,a0,1365
    1cd4:	72b1aa23          	sw	a1,1844(gp)

00001cd8 <inst_484>:
    1cd8:	55555537          	lui	a0,0x55555
    1cdc:	55650513          	addi	a0,a0,1366 # 55555556 <_end+0x55552ad6>
    1ce0:	aaa50593          	addi	a1,a0,-1366
    1ce4:	72b1ac23          	sw	a1,1848(gp)

00001ce8 <inst_485>:
    1ce8:	55555537          	lui	a0,0x55555
    1cec:	55650513          	addi	a0,a0,1366 # 55555556 <_end+0x55552ad6>
    1cf0:	00550593          	addi	a1,a0,5
    1cf4:	72b1ae23          	sw	a1,1852(gp)

00001cf8 <inst_486>:
    1cf8:	55555537          	lui	a0,0x55555
    1cfc:	55650513          	addi	a0,a0,1366 # 55555556 <_end+0x55552ad6>
    1d00:	33350593          	addi	a1,a0,819
    1d04:	74b1a023          	sw	a1,1856(gp)

00001d08 <inst_487>:
    1d08:	55555537          	lui	a0,0x55555
    1d0c:	55650513          	addi	a0,a0,1366 # 55555556 <_end+0x55552ad6>
    1d10:	66650593          	addi	a1,a0,1638
    1d14:	74b1a223          	sw	a1,1860(gp)

00001d18 <inst_488>:
    1d18:	55555537          	lui	a0,0x55555
    1d1c:	55650513          	addi	a0,a0,1366 # 55555556 <_end+0x55552ad6>
    1d20:	fd350593          	addi	a1,a0,-45
    1d24:	74b1a423          	sw	a1,1864(gp)

00001d28 <inst_489>:
    1d28:	55555537          	lui	a0,0x55555
    1d2c:	55650513          	addi	a0,a0,1366 # 55555556 <_end+0x55552ad6>
    1d30:	02d50593          	addi	a1,a0,45
    1d34:	74b1a623          	sw	a1,1868(gp)

00001d38 <inst_490>:
    1d38:	55555537          	lui	a0,0x55555
    1d3c:	55650513          	addi	a0,a0,1366 # 55555556 <_end+0x55552ad6>
    1d40:	00250593          	addi	a1,a0,2
    1d44:	74b1a823          	sw	a1,1872(gp)

00001d48 <inst_491>:
    1d48:	55555537          	lui	a0,0x55555
    1d4c:	55650513          	addi	a0,a0,1366 # 55555556 <_end+0x55552ad6>
    1d50:	55450593          	addi	a1,a0,1364
    1d54:	74b1aa23          	sw	a1,1876(gp)

00001d58 <inst_492>:
    1d58:	55555537          	lui	a0,0x55555
    1d5c:	55650513          	addi	a0,a0,1366 # 55555556 <_end+0x55552ad6>
    1d60:	00050593          	mv	a1,a0
    1d64:	74b1ac23          	sw	a1,1880(gp)

00001d68 <inst_493>:
    1d68:	55555537          	lui	a0,0x55555
    1d6c:	55650513          	addi	a0,a0,1366 # 55555556 <_end+0x55552ad6>
    1d70:	00450593          	addi	a1,a0,4
    1d74:	74b1ae23          	sw	a1,1884(gp)

00001d78 <inst_494>:
    1d78:	55555537          	lui	a0,0x55555
    1d7c:	55650513          	addi	a0,a0,1366 # 55555556 <_end+0x55552ad6>
    1d80:	33250593          	addi	a1,a0,818
    1d84:	76b1a023          	sw	a1,1888(gp)

00001d88 <inst_495>:
    1d88:	55555537          	lui	a0,0x55555
    1d8c:	55650513          	addi	a0,a0,1366 # 55555556 <_end+0x55552ad6>
    1d90:	66550593          	addi	a1,a0,1637
    1d94:	76b1a223          	sw	a1,1892(gp)

00001d98 <inst_496>:
    1d98:	55555537          	lui	a0,0x55555
    1d9c:	55650513          	addi	a0,a0,1366 # 55555556 <_end+0x55552ad6>
    1da0:	02c50593          	addi	a1,a0,44
    1da4:	76b1a423          	sw	a1,1896(gp)

00001da8 <inst_497>:
    1da8:	55555537          	lui	a0,0x55555
    1dac:	55650513          	addi	a0,a0,1366 # 55555556 <_end+0x55552ad6>
    1db0:	55650593          	addi	a1,a0,1366
    1db4:	76b1a623          	sw	a1,1900(gp)

00001db8 <inst_498>:
    1db8:	55555537          	lui	a0,0x55555
    1dbc:	55650513          	addi	a0,a0,1366 # 55555556 <_end+0x55552ad6>
    1dc0:	aab50593          	addi	a1,a0,-1365
    1dc4:	76b1a823          	sw	a1,1904(gp)

00001dc8 <inst_499>:
    1dc8:	55555537          	lui	a0,0x55555
    1dcc:	55650513          	addi	a0,a0,1366 # 55555556 <_end+0x55552ad6>
    1dd0:	00650593          	addi	a1,a0,6
    1dd4:	76b1aa23          	sw	a1,1908(gp)

00001dd8 <inst_500>:
    1dd8:	55555537          	lui	a0,0x55555
    1ddc:	55650513          	addi	a0,a0,1366 # 55555556 <_end+0x55552ad6>
    1de0:	33450593          	addi	a1,a0,820
    1de4:	76b1ac23          	sw	a1,1912(gp)

00001de8 <inst_501>:
    1de8:	55555537          	lui	a0,0x55555
    1dec:	55650513          	addi	a0,a0,1366 # 55555556 <_end+0x55552ad6>
    1df0:	66750593          	addi	a1,a0,1639
    1df4:	76b1ae23          	sw	a1,1916(gp)

00001df8 <inst_502>:
    1df8:	55555537          	lui	a0,0x55555
    1dfc:	55650513          	addi	a0,a0,1366 # 55555556 <_end+0x55552ad6>
    1e00:	fd450593          	addi	a1,a0,-44
    1e04:	78b1a023          	sw	a1,1920(gp)

00001e08 <inst_503>:
    1e08:	55555537          	lui	a0,0x55555
    1e0c:	55650513          	addi	a0,a0,1366 # 55555556 <_end+0x55552ad6>
    1e10:	02e50593          	addi	a1,a0,46
    1e14:	78b1a223          	sw	a1,1924(gp)

00001e18 <inst_504>:
    1e18:	aaaab537          	lui	a0,0xaaaab
    1e1c:	aab50513          	addi	a0,a0,-1365 # aaaaaaab <_end+0xaaaa802b>
    1e20:	00350593          	addi	a1,a0,3
    1e24:	78b1a423          	sw	a1,1928(gp)

00001e28 <inst_505>:
    1e28:	aaaab537          	lui	a0,0xaaaab
    1e2c:	aab50513          	addi	a0,a0,-1365 # aaaaaaab <_end+0xaaaa802b>
    1e30:	55550593          	addi	a1,a0,1365
    1e34:	78b1a623          	sw	a1,1932(gp)

00001e38 <inst_506>:
    1e38:	aaaab537          	lui	a0,0xaaaab
    1e3c:	aab50513          	addi	a0,a0,-1365 # aaaaaaab <_end+0xaaaa802b>
    1e40:	aaa50593          	addi	a1,a0,-1366
    1e44:	78b1a823          	sw	a1,1936(gp)

00001e48 <inst_507>:
    1e48:	aaaab537          	lui	a0,0xaaaab
    1e4c:	aab50513          	addi	a0,a0,-1365 # aaaaaaab <_end+0xaaaa802b>
    1e50:	00550593          	addi	a1,a0,5
    1e54:	78b1aa23          	sw	a1,1940(gp)

00001e58 <inst_508>:
    1e58:	aaaab537          	lui	a0,0xaaaab
    1e5c:	aab50513          	addi	a0,a0,-1365 # aaaaaaab <_end+0xaaaa802b>
    1e60:	33350593          	addi	a1,a0,819
    1e64:	78b1ac23          	sw	a1,1944(gp)

00001e68 <inst_509>:
    1e68:	aaaab537          	lui	a0,0xaaaab
    1e6c:	aab50513          	addi	a0,a0,-1365 # aaaaaaab <_end+0xaaaa802b>
    1e70:	66650593          	addi	a1,a0,1638
    1e74:	78b1ae23          	sw	a1,1948(gp)

00001e78 <inst_510>:
    1e78:	aaaab537          	lui	a0,0xaaaab
    1e7c:	aab50513          	addi	a0,a0,-1365 # aaaaaaab <_end+0xaaaa802b>
    1e80:	fd350593          	addi	a1,a0,-45
    1e84:	7ab1a023          	sw	a1,1952(gp)

00001e88 <inst_511>:
    1e88:	aaaab537          	lui	a0,0xaaaab
    1e8c:	aab50513          	addi	a0,a0,-1365 # aaaaaaab <_end+0xaaaa802b>
    1e90:	02d50593          	addi	a1,a0,45
    1e94:	7ab1a223          	sw	a1,1956(gp)

00001e98 <inst_512>:
    1e98:	aaaab537          	lui	a0,0xaaaab
    1e9c:	aab50513          	addi	a0,a0,-1365 # aaaaaaab <_end+0xaaaa802b>
    1ea0:	00250593          	addi	a1,a0,2
    1ea4:	7ab1a423          	sw	a1,1960(gp)

00001ea8 <inst_513>:
    1ea8:	aaaab537          	lui	a0,0xaaaab
    1eac:	aab50513          	addi	a0,a0,-1365 # aaaaaaab <_end+0xaaaa802b>
    1eb0:	55450593          	addi	a1,a0,1364
    1eb4:	7ab1a623          	sw	a1,1964(gp)

00001eb8 <inst_514>:
    1eb8:	aaaab537          	lui	a0,0xaaaab
    1ebc:	aab50513          	addi	a0,a0,-1365 # aaaaaaab <_end+0xaaaa802b>
    1ec0:	00050593          	mv	a1,a0
    1ec4:	7ab1a823          	sw	a1,1968(gp)

00001ec8 <inst_515>:
    1ec8:	aaaab537          	lui	a0,0xaaaab
    1ecc:	aab50513          	addi	a0,a0,-1365 # aaaaaaab <_end+0xaaaa802b>
    1ed0:	00450593          	addi	a1,a0,4
    1ed4:	7ab1aa23          	sw	a1,1972(gp)

00001ed8 <inst_516>:
    1ed8:	aaaab537          	lui	a0,0xaaaab
    1edc:	aab50513          	addi	a0,a0,-1365 # aaaaaaab <_end+0xaaaa802b>
    1ee0:	33250593          	addi	a1,a0,818
    1ee4:	7ab1ac23          	sw	a1,1976(gp)

00001ee8 <inst_517>:
    1ee8:	aaaab537          	lui	a0,0xaaaab
    1eec:	aab50513          	addi	a0,a0,-1365 # aaaaaaab <_end+0xaaaa802b>
    1ef0:	66550593          	addi	a1,a0,1637
    1ef4:	7ab1ae23          	sw	a1,1980(gp)

00001ef8 <inst_518>:
    1ef8:	aaaab537          	lui	a0,0xaaaab
    1efc:	aab50513          	addi	a0,a0,-1365 # aaaaaaab <_end+0xaaaa802b>
    1f00:	02c50593          	addi	a1,a0,44
    1f04:	7cb1a023          	sw	a1,1984(gp)

00001f08 <inst_519>:
    1f08:	aaaab537          	lui	a0,0xaaaab
    1f0c:	aab50513          	addi	a0,a0,-1365 # aaaaaaab <_end+0xaaaa802b>
    1f10:	55650593          	addi	a1,a0,1366
    1f14:	7cb1a223          	sw	a1,1988(gp)

00001f18 <inst_520>:
    1f18:	aaaab537          	lui	a0,0xaaaab
    1f1c:	aab50513          	addi	a0,a0,-1365 # aaaaaaab <_end+0xaaaa802b>
    1f20:	aab50593          	addi	a1,a0,-1365
    1f24:	7cb1a423          	sw	a1,1992(gp)

00001f28 <inst_521>:
    1f28:	aaaab537          	lui	a0,0xaaaab
    1f2c:	aab50513          	addi	a0,a0,-1365 # aaaaaaab <_end+0xaaaa802b>
    1f30:	00650593          	addi	a1,a0,6
    1f34:	7cb1a623          	sw	a1,1996(gp)

00001f38 <inst_522>:
    1f38:	aaaab537          	lui	a0,0xaaaab
    1f3c:	aab50513          	addi	a0,a0,-1365 # aaaaaaab <_end+0xaaaa802b>
    1f40:	33450593          	addi	a1,a0,820
    1f44:	7cb1a823          	sw	a1,2000(gp)

00001f48 <inst_523>:
    1f48:	aaaab537          	lui	a0,0xaaaab
    1f4c:	aab50513          	addi	a0,a0,-1365 # aaaaaaab <_end+0xaaaa802b>
    1f50:	66750593          	addi	a1,a0,1639
    1f54:	7cb1aa23          	sw	a1,2004(gp)

00001f58 <inst_524>:
    1f58:	aaaab537          	lui	a0,0xaaaab
    1f5c:	aab50513          	addi	a0,a0,-1365 # aaaaaaab <_end+0xaaaa802b>
    1f60:	fd450593          	addi	a1,a0,-44
    1f64:	7cb1ac23          	sw	a1,2008(gp)

00001f68 <inst_525>:
    1f68:	aaaab537          	lui	a0,0xaaaab
    1f6c:	aab50513          	addi	a0,a0,-1365 # aaaaaaab <_end+0xaaaa802b>
    1f70:	02e50593          	addi	a1,a0,46
    1f74:	7cb1ae23          	sw	a1,2012(gp)

00001f78 <inst_526>:
    1f78:	00600513          	li	a0,6
    1f7c:	00350593          	addi	a1,a0,3
    1f80:	7eb1a023          	sw	a1,2016(gp)

00001f84 <inst_527>:
    1f84:	00600513          	li	a0,6
    1f88:	55550593          	addi	a1,a0,1365
    1f8c:	7eb1a223          	sw	a1,2020(gp)

00001f90 <inst_528>:
    1f90:	00600513          	li	a0,6
    1f94:	aaa50593          	addi	a1,a0,-1366
    1f98:	7eb1a423          	sw	a1,2024(gp)

00001f9c <inst_529>:
    1f9c:	00600513          	li	a0,6
    1fa0:	00550593          	addi	a1,a0,5
    1fa4:	7eb1a623          	sw	a1,2028(gp)

00001fa8 <inst_530>:
    1fa8:	00600513          	li	a0,6
    1fac:	33350593          	addi	a1,a0,819
    1fb0:	7eb1a823          	sw	a1,2032(gp)

00001fb4 <inst_531>:
    1fb4:	00600513          	li	a0,6
    1fb8:	66650593          	addi	a1,a0,1638
    1fbc:	7eb1aa23          	sw	a1,2036(gp)

00001fc0 <inst_532>:
    1fc0:	00600513          	li	a0,6
    1fc4:	fd350593          	addi	a1,a0,-45
    1fc8:	7eb1ac23          	sw	a1,2040(gp)

00001fcc <inst_533>:
    1fcc:	00600513          	li	a0,6
    1fd0:	02d50593          	addi	a1,a0,45
    1fd4:	7eb1ae23          	sw	a1,2044(gp)
    1fd8:	00001197          	auipc	gp,0x1
    1fdc:	a3018193          	addi	gp,gp,-1488 # 2a08 <signature_x3_1>

00001fe0 <inst_534>:
    1fe0:	00600513          	li	a0,6
    1fe4:	00250593          	addi	a1,a0,2
    1fe8:	00b1a023          	sw	a1,0(gp)

00001fec <inst_535>:
    1fec:	00600513          	li	a0,6
    1ff0:	55450593          	addi	a1,a0,1364
    1ff4:	00b1a223          	sw	a1,4(gp)

00001ff8 <inst_536>:
    1ff8:	00600513          	li	a0,6
    1ffc:	00050593          	mv	a1,a0
    2000:	00b1a423          	sw	a1,8(gp)

00002004 <inst_537>:
    2004:	00600513          	li	a0,6
    2008:	00450593          	addi	a1,a0,4
    200c:	00b1a623          	sw	a1,12(gp)

00002010 <inst_538>:
    2010:	00600513          	li	a0,6
    2014:	33250593          	addi	a1,a0,818
    2018:	00b1a823          	sw	a1,16(gp)

0000201c <inst_539>:
    201c:	00600513          	li	a0,6
    2020:	66550593          	addi	a1,a0,1637
    2024:	00b1aa23          	sw	a1,20(gp)

00002028 <inst_540>:
    2028:	00600513          	li	a0,6
    202c:	02c50593          	addi	a1,a0,44
    2030:	00b1ac23          	sw	a1,24(gp)

00002034 <inst_541>:
    2034:	00600513          	li	a0,6
    2038:	55650593          	addi	a1,a0,1366
    203c:	00b1ae23          	sw	a1,28(gp)

00002040 <inst_542>:
    2040:	00600513          	li	a0,6
    2044:	aab50593          	addi	a1,a0,-1365
    2048:	02b1a023          	sw	a1,32(gp)

0000204c <inst_543>:
    204c:	00600513          	li	a0,6
    2050:	00650593          	addi	a1,a0,6
    2054:	02b1a223          	sw	a1,36(gp)

00002058 <inst_544>:
    2058:	00600513          	li	a0,6
    205c:	33450593          	addi	a1,a0,820
    2060:	02b1a423          	sw	a1,40(gp)

00002064 <inst_545>:
    2064:	00600513          	li	a0,6
    2068:	66750593          	addi	a1,a0,1639
    206c:	02b1a623          	sw	a1,44(gp)

00002070 <inst_546>:
    2070:	00600513          	li	a0,6
    2074:	fd450593          	addi	a1,a0,-44
    2078:	02b1a823          	sw	a1,48(gp)

0000207c <inst_547>:
    207c:	00600513          	li	a0,6
    2080:	02e50593          	addi	a1,a0,46
    2084:	02b1aa23          	sw	a1,52(gp)

00002088 <inst_548>:
    2088:	33333537          	lui	a0,0x33333
    208c:	33450513          	addi	a0,a0,820 # 33333334 <_end+0x333308b4>
    2090:	00350593          	addi	a1,a0,3
    2094:	02b1ac23          	sw	a1,56(gp)

00002098 <inst_549>:
    2098:	33333537          	lui	a0,0x33333
    209c:	33450513          	addi	a0,a0,820 # 33333334 <_end+0x333308b4>
    20a0:	55550593          	addi	a1,a0,1365
    20a4:	02b1ae23          	sw	a1,60(gp)

000020a8 <inst_550>:
    20a8:	33333537          	lui	a0,0x33333
    20ac:	33450513          	addi	a0,a0,820 # 33333334 <_end+0x333308b4>
    20b0:	aaa50593          	addi	a1,a0,-1366
    20b4:	04b1a023          	sw	a1,64(gp)

000020b8 <inst_551>:
    20b8:	33333537          	lui	a0,0x33333
    20bc:	33450513          	addi	a0,a0,820 # 33333334 <_end+0x333308b4>
    20c0:	00550593          	addi	a1,a0,5
    20c4:	04b1a223          	sw	a1,68(gp)

000020c8 <inst_552>:
    20c8:	33333537          	lui	a0,0x33333
    20cc:	33450513          	addi	a0,a0,820 # 33333334 <_end+0x333308b4>
    20d0:	33350593          	addi	a1,a0,819
    20d4:	04b1a423          	sw	a1,72(gp)

000020d8 <inst_553>:
    20d8:	33333537          	lui	a0,0x33333
    20dc:	33450513          	addi	a0,a0,820 # 33333334 <_end+0x333308b4>
    20e0:	66650593          	addi	a1,a0,1638
    20e4:	04b1a623          	sw	a1,76(gp)

000020e8 <inst_554>:
    20e8:	33333537          	lui	a0,0x33333
    20ec:	33450513          	addi	a0,a0,820 # 33333334 <_end+0x333308b4>
    20f0:	fd350593          	addi	a1,a0,-45
    20f4:	04b1a823          	sw	a1,80(gp)

000020f8 <inst_555>:
    20f8:	33333537          	lui	a0,0x33333
    20fc:	33450513          	addi	a0,a0,820 # 33333334 <_end+0x333308b4>
    2100:	02d50593          	addi	a1,a0,45
    2104:	04b1aa23          	sw	a1,84(gp)

00002108 <inst_556>:
    2108:	33333537          	lui	a0,0x33333
    210c:	33450513          	addi	a0,a0,820 # 33333334 <_end+0x333308b4>
    2110:	00250593          	addi	a1,a0,2
    2114:	04b1ac23          	sw	a1,88(gp)

00002118 <inst_557>:
    2118:	33333537          	lui	a0,0x33333
    211c:	33450513          	addi	a0,a0,820 # 33333334 <_end+0x333308b4>
    2120:	55450593          	addi	a1,a0,1364
    2124:	04b1ae23          	sw	a1,92(gp)

00002128 <inst_558>:
    2128:	33333537          	lui	a0,0x33333
    212c:	33450513          	addi	a0,a0,820 # 33333334 <_end+0x333308b4>
    2130:	00050593          	mv	a1,a0
    2134:	06b1a023          	sw	a1,96(gp)

00002138 <inst_559>:
    2138:	33333537          	lui	a0,0x33333
    213c:	33450513          	addi	a0,a0,820 # 33333334 <_end+0x333308b4>
    2140:	00450593          	addi	a1,a0,4
    2144:	06b1a223          	sw	a1,100(gp)

00002148 <inst_560>:
    2148:	ffe00537          	lui	a0,0xffe00
    214c:	fff50513          	addi	a0,a0,-1 # ffdfffff <_end+0xffdfd57f>
    2150:	04050593          	addi	a1,a0,64
    2154:	06b1a423          	sw	a1,104(gp)
    2158:	00000013          	nop
    215c:	00000013          	nop

00002160 <rvtest_code_end>:
    2160:	00000297          	auipc	t0,0x0
    2164:	05028293          	addi	t0,t0,80 # 21b0 <begin_signature>
    2168:	00004337          	lui	t1,0x4
    216c:	ff030313          	addi	t1,t1,-16 # 3ff0 <_end+0x1570>
    2170:	00532023          	sw	t0,0(t1)
    2174:	00001297          	auipc	t0,0x1
    2178:	90c28293          	addi	t0,t0,-1780 # 2a80 <_end>
    217c:	00004337          	lui	t1,0x4
    2180:	ff430313          	addi	t1,t1,-12 # 3ff4 <_end+0x1574>
    2184:	00532023          	sw	t0,0(t1)

00002188 <self_loop>:
    2188:	0000006f          	j	2188 <self_loop>
    218c:	0000                	unimp
    218e:	0000                	unimp
    2190:	0000                	unimp
    2192:	0000                	unimp
    2194:	0000                	unimp
    2196:	0000                	unimp
    2198:	0000                	unimp
    219a:	0000                	unimp
    219c:	0000                	unimp
    219e:	0000                	unimp
