
generated/and-01.elf:     file format elf32-littleriscv


Disassembly of section .text.init:

00000000 <rvtest_entry_point>:
       0:	feedc0b7          	lui	ra,0xfeedc
       4:	ead08093          	addi	ra,ra,-339 # feedbead <_end+0xfeed836d>
       8:	ff76e137          	lui	sp,0xff76e
       c:	f5610113          	addi	sp,sp,-170 # ff76df56 <_end+0xff76a416>
      10:	7fbb71b7          	lui	gp,0x7fbb7
      14:	fab18193          	addi	gp,gp,-85 # 7fbb6fab <_end+0x7fbb346b>
      18:	bfddb237          	lui	tp,0xbfddb
      1c:	7d520213          	addi	tp,tp,2005 # bfddb7d5 <_end+0xbfdd7c95>
      20:	00000297          	auipc	t0,0x0
      24:	0d828293          	addi	t0,t0,216 # f8 <rvtest_code_begin>
      28:	00003317          	auipc	t1,0x3
      2c:	1e830313          	addi	t1,t1,488 # 3210 <rvtest_data_begin>
      30:	b7fbb3b7          	lui	t2,0xb7fbb
      34:	6fa38393          	addi	t2,t2,1786 # b7fbb6fa <_end+0xb7fb7bba>
      38:	5bfde437          	lui	s0,0x5bfde
      3c:	b7d40413          	addi	s0,s0,-1155 # 5bfddb7d <_end+0x5bfda03d>
      40:	adfef4b7          	lui	s1,0xadfef
      44:	dbe48493          	addi	s1,s1,-578 # adfeedbe <_end+0xadfeb27e>
      48:	56ff7537          	lui	a0,0x56ff7
      4c:	6df50513          	addi	a0,a0,1759 # 56ff76df <_end+0x56ff3b9f>
      50:	ab7fc5b7          	lui	a1,0xab7fc
      54:	b6f58593          	addi	a1,a1,-1169 # ab7fbb6f <_end+0xab7f802f>
      58:	d5bfe637          	lui	a2,0xd5bfe
      5c:	db760613          	addi	a2,a2,-585 # d5bfddb7 <_end+0xd5bfa277>
      60:	eadff6b7          	lui	a3,0xeadff
      64:	edb68693          	addi	a3,a3,-293 # eadfeedb <_end+0xeadfb39b>
      68:	f56ff737          	lui	a4,0xf56ff
      6c:	76d70713          	addi	a4,a4,1901 # f56ff76d <_end+0xf56fbc2d>
      70:	fab807b7          	lui	a5,0xfab80
      74:	bb678793          	addi	a5,a5,-1098 # fab7fbb6 <_end+0xfab7c076>
      78:	7d5c0837          	lui	a6,0x7d5c0
      7c:	ddb80813          	addi	a6,a6,-549 # 7d5bfddb <_end+0x7d5bc29b>
      80:	beae08b7          	lui	a7,0xbeae0
      84:	eed88893          	addi	a7,a7,-275 # beadfeed <_end+0xbeadc3ad>
      88:	df570937          	lui	s2,0xdf570
      8c:	f7690913          	addi	s2,s2,-138 # df56ff76 <_end+0xdf56c436>
      90:	6fab89b7          	lui	s3,0x6fab8
      94:	fbb98993          	addi	s3,s3,-69 # 6fab7fbb <_end+0x6fab447b>
      98:	b7d5ca37          	lui	s4,0xb7d5c
      9c:	fdda0a13          	addi	s4,s4,-35 # b7d5bfdd <_end+0xb7d5849d>
      a0:	dbeaeab7          	lui	s5,0xdbeae
      a4:	feea8a93          	addi	s5,s5,-18 # dbeadfee <_end+0xdbeaa4ae>
      a8:	6df57b37          	lui	s6,0x6df57
      ac:	ff7b0b13          	addi	s6,s6,-9 # 6df56ff7 <_end+0x6df534b7>
      b0:	b6fabbb7          	lui	s7,0xb6fab
      b4:	7fbb8b93          	addi	s7,s7,2043 # b6fab7fb <_end+0xb6fa7cbb>
      b8:	db7d6c37          	lui	s8,0xdb7d6
      bc:	bfdc0c13          	addi	s8,s8,-1027 # db7d5bfd <_end+0xdb7d20bd>
      c0:	edbebcb7          	lui	s9,0xedbeb
      c4:	dfec8c93          	addi	s9,s9,-514 # edbeadfe <_end+0xedbe72be>
      c8:	76df5d37          	lui	s10,0x76df5
      cc:	6ffd0d13          	addi	s10,s10,1791 # 76df56ff <_end+0x76df1bbf>
      d0:	bb6fbdb7          	lui	s11,0xbb6fb
      d4:	b7fd8d93          	addi	s11,s11,-1153 # bb6fab7f <_end+0xbb6f703f>
      d8:	ddb7de37          	lui	t3,0xddb7d
      dc:	5bfe0e13          	addi	t3,t3,1471 # ddb7d5bf <_end+0xddb79a7f>
      e0:	eedbfeb7          	lui	t4,0xeedbf
      e4:	adfe8e93          	addi	t4,t4,-1313 # eedbeadf <_end+0xeedbaf9f>
      e8:	f76dff37          	lui	t5,0xf76df
      ec:	56ff0f13          	addi	t5,t5,1391 # f76df56f <_end+0xf76dba2f>
      f0:	fbb70fb7          	lui	t6,0xfbb70
      f4:	ab7f8f93          	addi	t6,t6,-1353 # fbb6fab7 <_end+0xfbb6bf77>

000000f8 <rvtest_code_begin>:
      f8:	00003317          	auipc	t1,0x3
      fc:	12830313          	addi	t1,t1,296 # 3220 <begin_signature>

00000100 <inst_0>:
     100:	00004c37          	lui	s8,0x4
     104:	00700c93          	li	s9,7
     108:	019c7cb3          	and	s9,s8,s9
     10c:	01932023          	sw	s9,0(t1)

00000110 <inst_1>:
     110:	000011b7          	lui	gp,0x1
     114:	80018193          	addi	gp,gp,-2048 # 800 <inst_95+0x4>
     118:	000011b7          	lui	gp,0x1
     11c:	80018193          	addi	gp,gp,-2048 # 800 <inst_95+0x4>
     120:	0031f933          	and	s2,gp,gp
     124:	01232223          	sw	s2,4(t1)

00000128 <inst_2>:
     128:	ffd00993          	li	s3,-3
     12c:	ffd00993          	li	s3,-3
     130:	0139f9b3          	and	s3,s3,s3
     134:	01332423          	sw	s3,8(t1)

00000138 <inst_3>:
     138:	fff00293          	li	t0,-1
     13c:	80000737          	lui	a4,0x80000
     140:	fff70713          	addi	a4,a4,-1 # 7fffffff <_end+0x7fffc4bf>
     144:	00e2f2b3          	and	t0,t0,a4
     148:	00532623          	sw	t0,12(t1)

0000014c <inst_4>:
     14c:	00500b93          	li	s7,5
     150:	00500813          	li	a6,5
     154:	010bfa33          	and	s4,s7,a6
     158:	01432823          	sw	s4,16(t1)

0000015c <inst_5>:
     15c:	00200a13          	li	s4,2
     160:	80000137          	lui	sp,0x80000
     164:	002a7f33          	and	t5,s4,sp
     168:	01e32a23          	sw	t5,20(t1)

0000016c <inst_6>:
     16c:	333333b7          	lui	t2,0x33333
     170:	33338393          	addi	t2,t2,819 # 33333333 <_end+0x3332f7f3>
     174:	00000c13          	li	s8,0
     178:	0183f6b3          	and	a3,t2,s8
     17c:	00d32c23          	sw	a3,24(t1)

00000180 <inst_7>:
     180:	c0000f37          	lui	t5,0xc0000
     184:	ffff0f13          	addi	t5,t5,-1 # bfffffff <_end+0xbfffc4bf>
     188:	00100d93          	li	s11,1
     18c:	01bf7533          	and	a0,t5,s11
     190:	00a32e23          	sw	a0,28(t1)

00000194 <inst_8>:
     194:	80000e37          	lui	t3,0x80000
     198:	00001937          	lui	s2,0x1
     19c:	80090913          	addi	s2,s2,-2048 # 800 <inst_95+0x4>
     1a0:	012e7b33          	and	s6,t3,s2
     1a4:	03632023          	sw	s6,32(t1)

000001a8 <inst_9>:
     1a8:	00000113          	li	sp,0
     1ac:	20000793          	li	a5,512
     1b0:	00f17033          	and	zero,sp,a5
     1b4:	02032223          	sw	zero,36(t1)

000001b8 <inst_10>:
     1b8:	80000cb7          	lui	s9,0x80000
     1bc:	fffc8c93          	addi	s9,s9,-1 # 7fffffff <_end+0x7fffc4bf>
     1c0:	55555d37          	lui	s10,0x55555
     1c4:	555d0d13          	addi	s10,s10,1365 # 55555555 <_end+0x55551a15>
     1c8:	01acf633          	and	a2,s9,s10
     1cc:	02c32423          	sw	a2,40(t1)

000001d0 <inst_11>:
     1d0:	00100093          	li	ra,1
     1d4:	55555fb7          	lui	t6,0x55555
     1d8:	554f8f93          	addi	t6,t6,1364 # 55555554 <_end+0x55551a14>
     1dc:	01f0f133          	and	sp,ra,t6
     1e0:	02232623          	sw	sp,44(t1)

000001e4 <inst_12>:
     1e4:	00040db7          	lui	s11,0x40
     1e8:	00200593          	li	a1,2
     1ec:	00bdf733          	and	a4,s11,a1
     1f0:	02e32823          	sw	a4,48(t1)

000001f4 <inst_13>:
     1f4:	fffe0fb7          	lui	t6,0xfffe0
     1f8:	ffff8f93          	addi	t6,t6,-1 # fffdffff <_end+0xfffdc4bf>
     1fc:	00400b93          	li	s7,4
     200:	017ff233          	and	tp,t6,s7
     204:	02432a23          	sw	tp,52(t1)

00000208 <inst_14>:
     208:	aaaabab7          	lui	s5,0xaaaab
     20c:	aaba8a93          	addi	s5,s5,-1365 # aaaaaaab <_end+0xaaaa6f6b>
     210:	00800493          	li	s1,8
     214:	009afdb3          	and	s11,s5,s1
     218:	03b32c23          	sw	s11,56(t1)

0000021c <inst_15>:
     21c:	40000d13          	li	s10,1024
     220:	01000393          	li	t2,16
     224:	007d7bb3          	and	s7,s10,t2
     228:	03732e23          	sw	s7,60(t1)

0000022c <inst_16>:
     22c:	ff800493          	li	s1,-8
     230:	02000a13          	li	s4,32
     234:	0144fc33          	and	s8,s1,s4
     238:	05832023          	sw	s8,64(t1)

0000023c <inst_17>:
     23c:	eff00793          	li	a5,-257
     240:	04000693          	li	a3,64
     244:	00d7fd33          	and	s10,a5,a3
     248:	05a32223          	sw	s10,68(t1)

0000024c <inst_18>:
     24c:	fe000637          	lui	a2,0xfe000
     250:	fff60613          	addi	a2,a2,-1 # fdffffff <_end+0xfdffc4bf>
     254:	08000213          	li	tp,128
     258:	004678b3          	and	a7,a2,tp
     25c:	05132423          	sw	a7,72(t1)
     260:	00003117          	auipc	sp,0x3
     264:	00c10113          	addi	sp,sp,12 # 326c <signature_x2_0>

00000268 <inst_19>:
     268:	66666237          	lui	tp,0x66666
     26c:	66520213          	addi	tp,tp,1637 # 66666665 <_end+0x66662b25>
     270:	10000893          	li	a7,256
     274:	01127433          	and	s0,tp,a7
     278:	00812023          	sw	s0,0(sp)

0000027c <inst_20>:
     27c:	f7f00693          	li	a3,-129
     280:	40000b13          	li	s6,1024
     284:	0166f0b3          	and	ra,a3,s6
     288:	00112223          	sw	ra,4(sp)

0000028c <inst_21>:
     28c:	00400413          	li	s0,4
     290:	00001637          	lui	a2,0x1
     294:	00c473b3          	and	t2,s0,a2
     298:	00712423          	sw	t2,8(sp)

0000029c <inst_22>:
     29c:	ffff85b7          	lui	a1,0xffff8
     2a0:	fff58593          	addi	a1,a1,-1 # ffff7fff <_end+0xffff44bf>
     2a4:	000022b7          	lui	t0,0x2
     2a8:	0055fab3          	and	s5,a1,t0
     2ac:	01512623          	sw	s5,12(sp)

000002b0 <inst_23>:
     2b0:	04000713          	li	a4,64
     2b4:	00004ab7          	lui	s5,0x4
     2b8:	01577eb3          	and	t4,a4,s5
     2bc:	01d12823          	sw	t4,16(sp)

000002c0 <inst_24>:
     2c0:	00500893          	li	a7,5
     2c4:	00008537          	lui	a0,0x8
     2c8:	00a8f5b3          	and	a1,a7,a0
     2cc:	00b12a23          	sw	a1,20(sp)

000002d0 <inst_25>:
     2d0:	00800b37          	lui	s6,0x800
     2d4:	00010337          	lui	t1,0x10
     2d8:	006b71b3          	and	gp,s6,t1
     2dc:	00312c23          	sw	gp,24(sp)

000002e0 <inst_26>:
     2e0:	00000013          	nop
     2e4:	00020eb7          	lui	t4,0x20
     2e8:	01d074b3          	and	s1,zero,t4
     2ec:	00912e23          	sw	s1,28(sp)

000002f0 <inst_27>:
     2f0:	00500e93          	li	t4,5
     2f4:	00040f37          	lui	t5,0x40
     2f8:	01eefe33          	and	t3,t4,t5
     2fc:	03c12023          	sw	t3,32(sp)

00000300 <inst_28>:
     300:	00010937          	lui	s2,0x10
     304:	000800b7          	lui	ra,0x80
     308:	00197333          	and	t1,s2,ra
     30c:	02612223          	sw	t1,36(sp)

00000310 <inst_29>:
     310:	08000337          	lui	t1,0x8000
     314:	00000013          	nop
     318:	00037fb3          	and	t6,t1,zero
     31c:	03f12423          	sw	t6,40(sp)

00000320 <inst_30>:
     320:	ffd00813          	li	a6,-3
     324:	00200437          	lui	s0,0x200
     328:	008877b3          	and	a5,a6,s0
     32c:	02f12623          	sw	a5,44(sp)

00000330 <inst_31>:
     330:	00001537          	lui	a0,0x1
     334:	80050513          	addi	a0,a0,-2048 # 800 <inst_95+0x4>
     338:	00400e37          	lui	t3,0x400
     33c:	01c57833          	and	a6,a0,t3
     340:	03012823          	sw	a6,48(sp)

00000344 <inst_32>:
     344:	66666537          	lui	a0,0x66666
     348:	66650513          	addi	a0,a0,1638 # 66666666 <_end+0x66662b26>
     34c:	008005b7          	lui	a1,0x800
     350:	00b57633          	and	a2,a0,a1
     354:	02c12a23          	sw	a2,52(sp)

00000358 <inst_33>:
     358:	33333537          	lui	a0,0x33333
     35c:	33350513          	addi	a0,a0,819 # 33333333 <_end+0x3332f7f3>
     360:	010005b7          	lui	a1,0x1000
     364:	00b57633          	and	a2,a0,a1
     368:	02c12c23          	sw	a2,56(sp)

0000036c <inst_34>:
     36c:	55555537          	lui	a0,0x55555
     370:	55550513          	addi	a0,a0,1365 # 55555555 <_end+0x55551a15>
     374:	020005b7          	lui	a1,0x2000
     378:	00b57633          	and	a2,a0,a1
     37c:	02c12e23          	sw	a2,60(sp)

00000380 <inst_35>:
     380:	00020537          	lui	a0,0x20
     384:	040005b7          	lui	a1,0x4000
     388:	00b57633          	and	a2,a0,a1
     38c:	04c12023          	sw	a2,64(sp)

00000390 <inst_36>:
     390:	ffff8537          	lui	a0,0xffff8
     394:	fff50513          	addi	a0,a0,-1 # ffff7fff <_end+0xffff44bf>
     398:	080005b7          	lui	a1,0x8000
     39c:	00b57633          	and	a2,a0,a1
     3a0:	04c12223          	sw	a2,68(sp)

000003a4 <inst_37>:
     3a4:	66666537          	lui	a0,0x66666
     3a8:	66650513          	addi	a0,a0,1638 # 66666666 <_end+0x66662b26>
     3ac:	100005b7          	lui	a1,0x10000
     3b0:	00b57633          	and	a2,a0,a1
     3b4:	04c12423          	sw	a2,72(sp)

000003b8 <inst_38>:
     3b8:	ffff0537          	lui	a0,0xffff0
     3bc:	fff50513          	addi	a0,a0,-1 # fffeffff <_end+0xfffec4bf>
     3c0:	200005b7          	lui	a1,0x20000
     3c4:	00b57633          	and	a2,a0,a1
     3c8:	04c12623          	sw	a2,76(sp)

000003cc <inst_39>:
     3cc:	08000537          	lui	a0,0x8000
     3d0:	400005b7          	lui	a1,0x40000
     3d4:	00b57633          	and	a2,a0,a1
     3d8:	04c12823          	sw	a2,80(sp)

000003dc <inst_40>:
     3dc:	dff00513          	li	a0,-513
     3e0:	ffe00593          	li	a1,-2
     3e4:	00b57633          	and	a2,a0,a1
     3e8:	04c12a23          	sw	a2,84(sp)

000003ec <inst_41>:
     3ec:	c0000537          	lui	a0,0xc0000
     3f0:	fff50513          	addi	a0,a0,-1 # bfffffff <_end+0xbfffc4bf>
     3f4:	ffd00593          	li	a1,-3
     3f8:	00b57633          	and	a2,a0,a1
     3fc:	04c12c23          	sw	a2,88(sp)

00000400 <inst_42>:
     400:	00800537          	lui	a0,0x800
     404:	ffb00593          	li	a1,-5
     408:	00b57633          	and	a2,a0,a1
     40c:	04c12e23          	sw	a2,92(sp)

00000410 <inst_43>:
     410:	dff00513          	li	a0,-513
     414:	ff700593          	li	a1,-9
     418:	00b57633          	and	a2,a0,a1
     41c:	06c12023          	sw	a2,96(sp)

00000420 <inst_44>:
     420:	f8000537          	lui	a0,0xf8000
     424:	fff50513          	addi	a0,a0,-1 # f7ffffff <_end+0xf7ffc4bf>
     428:	fef00593          	li	a1,-17
     42c:	00b57633          	and	a2,a0,a1
     430:	06c12223          	sw	a2,100(sp)

00000434 <inst_45>:
     434:	00300513          	li	a0,3
     438:	fdf00593          	li	a1,-33
     43c:	00b57633          	and	a2,a0,a1
     440:	06c12423          	sw	a2,104(sp)

00000444 <inst_46>:
     444:	08000513          	li	a0,128
     448:	fbf00593          	li	a1,-65
     44c:	00b57633          	and	a2,a0,a1
     450:	06c12623          	sw	a2,108(sp)

00000454 <inst_47>:
     454:	ff900513          	li	a0,-7
     458:	f7f00593          	li	a1,-129
     45c:	00b57633          	and	a2,a0,a1
     460:	06c12823          	sw	a2,112(sp)

00000464 <inst_48>:
     464:	ff700513          	li	a0,-9
     468:	eff00593          	li	a1,-257
     46c:	00b57633          	and	a2,a0,a1
     470:	06c12a23          	sw	a2,116(sp)

00000474 <inst_49>:
     474:	aaaab537          	lui	a0,0xaaaab
     478:	aaa50513          	addi	a0,a0,-1366 # aaaaaaaa <_end+0xaaaa6f6a>
     47c:	dff00593          	li	a1,-513
     480:	00b57633          	and	a2,a0,a1
     484:	06c12c23          	sw	a2,120(sp)

00000488 <inst_50>:
     488:	ff800537          	lui	a0,0xff800
     48c:	fff50513          	addi	a0,a0,-1 # ff7fffff <_end+0xff7fc4bf>
     490:	bff00593          	li	a1,-1025
     494:	00b57633          	and	a2,a0,a1
     498:	06c12e23          	sw	a2,124(sp)

0000049c <inst_51>:
     49c:	fff00537          	lui	a0,0xfff00
     4a0:	fff50513          	addi	a0,a0,-1 # ffefffff <_end+0xffefc4bf>
     4a4:	fffff5b7          	lui	a1,0xfffff
     4a8:	7ff58593          	addi	a1,a1,2047 # fffff7ff <_end+0xffffbcbf>
     4ac:	00b57633          	and	a2,a0,a1
     4b0:	08c12023          	sw	a2,128(sp)

000004b4 <inst_52>:
     4b4:	40000513          	li	a0,1024
     4b8:	fffff5b7          	lui	a1,0xfffff
     4bc:	fff58593          	addi	a1,a1,-1 # ffffefff <_end+0xffffb4bf>
     4c0:	00b57633          	and	a2,a0,a1
     4c4:	08c12223          	sw	a2,132(sp)

000004c8 <inst_53>:
     4c8:	66666537          	lui	a0,0x66666
     4cc:	66650513          	addi	a0,a0,1638 # 66666666 <_end+0x66662b26>
     4d0:	ffffe5b7          	lui	a1,0xffffe
     4d4:	fff58593          	addi	a1,a1,-1 # ffffdfff <_end+0xffffa4bf>
     4d8:	00b57633          	and	a2,a0,a1
     4dc:	08c12423          	sw	a2,136(sp)

000004e0 <inst_54>:
     4e0:	00700513          	li	a0,7
     4e4:	ffffc5b7          	lui	a1,0xffffc
     4e8:	fff58593          	addi	a1,a1,-1 # ffffbfff <_end+0xffff84bf>
     4ec:	00b57633          	and	a2,a0,a1
     4f0:	08c12623          	sw	a2,140(sp)

000004f4 <inst_55>:
     4f4:	02000537          	lui	a0,0x2000
     4f8:	ffff85b7          	lui	a1,0xffff8
     4fc:	fff58593          	addi	a1,a1,-1 # ffff7fff <_end+0xffff44bf>
     500:	00b57633          	and	a2,a0,a1
     504:	08c12823          	sw	a2,144(sp)

00000508 <inst_56>:
     508:	40000537          	lui	a0,0x40000
     50c:	ffff05b7          	lui	a1,0xffff0
     510:	fff58593          	addi	a1,a1,-1 # fffeffff <_end+0xfffec4bf>
     514:	00b57633          	and	a2,a0,a1
     518:	08c12a23          	sw	a2,148(sp)

0000051c <inst_57>:
     51c:	ffb00513          	li	a0,-5
     520:	fffe05b7          	lui	a1,0xfffe0
     524:	fff58593          	addi	a1,a1,-1 # fffdffff <_end+0xfffdc4bf>
     528:	00b57633          	and	a2,a0,a1
     52c:	08c12c23          	sw	a2,152(sp)

00000530 <inst_58>:
     530:	00040537          	lui	a0,0x40
     534:	fffc05b7          	lui	a1,0xfffc0
     538:	fff58593          	addi	a1,a1,-1 # fffbffff <_end+0xfffbc4bf>
     53c:	00b57633          	and	a2,a0,a1
     540:	08c12e23          	sw	a2,156(sp)

00000544 <inst_59>:
     544:	01000513          	li	a0,16
     548:	fff805b7          	lui	a1,0xfff80
     54c:	fff58593          	addi	a1,a1,-1 # fff7ffff <_end+0xfff7c4bf>
     550:	00b57633          	and	a2,a0,a1
     554:	0ac12023          	sw	a2,160(sp)

00000558 <inst_60>:
     558:	40000513          	li	a0,1024
     55c:	ffe005b7          	lui	a1,0xffe00
     560:	fff58593          	addi	a1,a1,-1 # ffdfffff <_end+0xffdfc4bf>
     564:	00b57633          	and	a2,a0,a1
     568:	0ac12223          	sw	a2,164(sp)

0000056c <inst_61>:
     56c:	fff00513          	li	a0,-1
     570:	ffc005b7          	lui	a1,0xffc00
     574:	fff58593          	addi	a1,a1,-1 # ffbfffff <_end+0xffbfc4bf>
     578:	00b57633          	and	a2,a0,a1
     57c:	0ac12423          	sw	a2,168(sp)

00000580 <inst_62>:
     580:	00020537          	lui	a0,0x20
     584:	ff8005b7          	lui	a1,0xff800
     588:	fff58593          	addi	a1,a1,-1 # ff7fffff <_end+0xff7fc4bf>
     58c:	00b57633          	and	a2,a0,a1
     590:	0ac12623          	sw	a2,172(sp)

00000594 <inst_63>:
     594:	fffc0537          	lui	a0,0xfffc0
     598:	fff50513          	addi	a0,a0,-1 # fffbffff <_end+0xfffbc4bf>
     59c:	ff0005b7          	lui	a1,0xff000
     5a0:	fff58593          	addi	a1,a1,-1 # feffffff <_end+0xfeffc4bf>
     5a4:	00b57633          	and	a2,a0,a1
     5a8:	0ac12823          	sw	a2,176(sp)

000005ac <inst_64>:
     5ac:	00600513          	li	a0,6
     5b0:	fe0005b7          	lui	a1,0xfe000
     5b4:	fff58593          	addi	a1,a1,-1 # fdffffff <_end+0xfdffc4bf>
     5b8:	00b57633          	and	a2,a0,a1
     5bc:	0ac12a23          	sw	a2,180(sp)

000005c0 <inst_65>:
     5c0:	aaaab537          	lui	a0,0xaaaab
     5c4:	aab50513          	addi	a0,a0,-1365 # aaaaaaab <_end+0xaaaa6f6b>
     5c8:	fc0005b7          	lui	a1,0xfc000
     5cc:	fff58593          	addi	a1,a1,-1 # fbffffff <_end+0xfbffc4bf>
     5d0:	00b57633          	and	a2,a0,a1
     5d4:	0ac12c23          	sw	a2,184(sp)

000005d8 <inst_66>:
     5d8:	fef00513          	li	a0,-17
     5dc:	f80005b7          	lui	a1,0xf8000
     5e0:	fff58593          	addi	a1,a1,-1 # f7ffffff <_end+0xf7ffc4bf>
     5e4:	00b57633          	and	a2,a0,a1
     5e8:	0ac12e23          	sw	a2,188(sp)

000005ec <inst_67>:
     5ec:	e0000537          	lui	a0,0xe0000
     5f0:	fff50513          	addi	a0,a0,-1 # dfffffff <_end+0xdfffc4bf>
     5f4:	f00005b7          	lui	a1,0xf0000
     5f8:	fff58593          	addi	a1,a1,-1 # efffffff <_end+0xefffc4bf>
     5fc:	00b57633          	and	a2,a0,a1
     600:	0cc12023          	sw	a2,192(sp)

00000604 <inst_68>:
     604:	ffff5537          	lui	a0,0xffff5
     608:	afd50513          	addi	a0,a0,-1283 # ffff4afd <_end+0xffff0fbd>
     60c:	e00005b7          	lui	a1,0xe0000
     610:	fff58593          	addi	a1,a1,-1 # dfffffff <_end+0xdfffc4bf>
     614:	00b57633          	and	a2,a0,a1
     618:	0cc12223          	sw	a2,196(sp)

0000061c <inst_69>:
     61c:	80000537          	lui	a0,0x80000
     620:	c00005b7          	lui	a1,0xc0000
     624:	fff58593          	addi	a1,a1,-1 # bfffffff <_end+0xbfffc4bf>
     628:	00b57633          	and	a2,a0,a1
     62c:	0cc12423          	sw	a2,200(sp)

00000630 <inst_70>:
     630:	ffff5537          	lui	a0,0xffff5
     634:	afc50513          	addi	a0,a0,-1284 # ffff4afc <_end+0xffff0fbc>
     638:	aaaab5b7          	lui	a1,0xaaaab
     63c:	aaa58593          	addi	a1,a1,-1366 # aaaaaaaa <_end+0xaaaa6f6a>
     640:	00b57633          	and	a2,a0,a1
     644:	0cc12623          	sw	a2,204(sp)

00000648 <inst_71>:
     648:	00800513          	li	a0,8
     64c:	555555b7          	lui	a1,0x55555
     650:	55458593          	addi	a1,a1,1364 # 55555554 <_end+0x55551a14>
     654:	00b57633          	and	a2,a0,a1
     658:	0cc12823          	sw	a2,208(sp)

0000065c <inst_72>:
     65c:	02000513          	li	a0,32
     660:	00400593          	li	a1,4
     664:	00b57633          	and	a2,a0,a1
     668:	0cc12a23          	sw	a2,212(sp)

0000066c <inst_73>:
     66c:	10000513          	li	a0,256
     670:	eff00593          	li	a1,-257
     674:	00b57633          	and	a2,a0,a1
     678:	0cc12c23          	sw	a2,216(sp)

0000067c <inst_74>:
     67c:	20000513          	li	a0,512
     680:	00000593          	li	a1,0
     684:	00b57633          	and	a2,a0,a1
     688:	0cc12e23          	sw	a2,220(sp)

0000068c <inst_75>:
     68c:	00001537          	lui	a0,0x1
     690:	00800593          	li	a1,8
     694:	00b57633          	and	a2,a0,a1
     698:	0ec12023          	sw	a2,224(sp)

0000069c <inst_76>:
     69c:	00002537          	lui	a0,0x2
     6a0:	000405b7          	lui	a1,0x40
     6a4:	00b57633          	and	a2,a0,a1
     6a8:	0ec12223          	sw	a2,228(sp)

000006ac <inst_77>:
     6ac:	00008537          	lui	a0,0x8
     6b0:	ffc00593          	li	a1,-4
     6b4:	00b57633          	and	a2,a0,a1
     6b8:	0ec12423          	sw	a2,232(sp)

000006bc <inst_78>:
     6bc:	00080537          	lui	a0,0x80
     6c0:	400005b7          	lui	a1,0x40000
     6c4:	fff58593          	addi	a1,a1,-1 # 3fffffff <_end+0x3fffc4bf>
     6c8:	00b57633          	and	a2,a0,a1
     6cc:	0ec12623          	sw	a2,236(sp)

000006d0 <inst_79>:
     6d0:	00100537          	lui	a0,0x100
     6d4:	ffffe5b7          	lui	a1,0xffffe
     6d8:	fff58593          	addi	a1,a1,-1 # ffffdfff <_end+0xffffa4bf>
     6dc:	00b57633          	and	a2,a0,a1
     6e0:	0ec12823          	sw	a2,240(sp)

000006e4 <inst_80>:
     6e4:	00200537          	lui	a0,0x200
     6e8:	000085b7          	lui	a1,0x8
     6ec:	00b57633          	and	a2,a0,a1
     6f0:	0ec12a23          	sw	a2,244(sp)

000006f4 <inst_81>:
     6f4:	00400537          	lui	a0,0x400
     6f8:	fef00593          	li	a1,-17
     6fc:	00b57633          	and	a2,a0,a1
     700:	0ec12c23          	sw	a2,248(sp)

00000704 <inst_82>:
     704:	01000537          	lui	a0,0x1000
     708:	00300593          	li	a1,3
     70c:	00b57633          	and	a2,a0,a1
     710:	0ec12e23          	sw	a2,252(sp)

00000714 <inst_83>:
     714:	04000537          	lui	a0,0x4000
     718:	000205b7          	lui	a1,0x20
     71c:	00b57633          	and	a2,a0,a1
     720:	10c12023          	sw	a2,256(sp)

00000724 <inst_84>:
     724:	10000537          	lui	a0,0x10000
     728:	00400593          	li	a1,4
     72c:	00b57633          	and	a2,a0,a1
     730:	10c12223          	sw	a2,260(sp)

00000734 <inst_85>:
     734:	20000537          	lui	a0,0x20000
     738:	00400593          	li	a1,4
     73c:	00b57633          	and	a2,a0,a1
     740:	10c12423          	sw	a2,264(sp)

00000744 <inst_86>:
     744:	ffe00513          	li	a0,-2
     748:	f00005b7          	lui	a1,0xf0000
     74c:	fff58593          	addi	a1,a1,-1 # efffffff <_end+0xefffc4bf>
     750:	00b57633          	and	a2,a0,a1
     754:	10c12623          	sw	a2,268(sp)

00000758 <inst_87>:
     758:	fdf00513          	li	a0,-33
     75c:	333335b7          	lui	a1,0x33333
     760:	33258593          	addi	a1,a1,818 # 33333332 <_end+0x3332f7f2>
     764:	00b57633          	and	a2,a0,a1
     768:	10c12823          	sw	a2,272(sp)

0000076c <inst_88>:
     76c:	fbf00513          	li	a0,-65
     770:	ffc005b7          	lui	a1,0xffc00
     774:	fff58593          	addi	a1,a1,-1 # ffbfffff <_end+0xffbfc4bf>
     778:	00b57633          	and	a2,a0,a1
     77c:	10c12a23          	sw	a2,276(sp)

00000780 <inst_89>:
     780:	bff00513          	li	a0,-1025
     784:	ffffc5b7          	lui	a1,0xffffc
     788:	fff58593          	addi	a1,a1,-1 # ffffbfff <_end+0xffff84bf>
     78c:	00b57633          	and	a2,a0,a1
     790:	10c12c23          	sw	a2,280(sp)

00000794 <inst_90>:
     794:	fffff537          	lui	a0,0xfffff
     798:	7ff50513          	addi	a0,a0,2047 # fffff7ff <_end+0xffffbcbf>
     79c:	ff900593          	li	a1,-7
     7a0:	00b57633          	and	a2,a0,a1
     7a4:	10c12e23          	sw	a2,284(sp)

000007a8 <inst_91>:
     7a8:	fffff537          	lui	a0,0xfffff
     7ac:	fff50513          	addi	a0,a0,-1 # ffffefff <_end+0xffffb4bf>
     7b0:	f7f00593          	li	a1,-129
     7b4:	00b57633          	and	a2,a0,a1
     7b8:	12c12023          	sw	a2,288(sp)

000007bc <inst_92>:
     7bc:	ffffe537          	lui	a0,0xffffe
     7c0:	fff50513          	addi	a0,a0,-1 # ffffdfff <_end+0xffffa4bf>
     7c4:	ffb00593          	li	a1,-5
     7c8:	00b57633          	and	a2,a0,a1
     7cc:	12c12223          	sw	a2,292(sp)

000007d0 <inst_93>:
     7d0:	ffffc537          	lui	a0,0xffffc
     7d4:	fff50513          	addi	a0,a0,-1 # ffffbfff <_end+0xffff84bf>
     7d8:	00400593          	li	a1,4
     7dc:	00b57633          	and	a2,a0,a1
     7e0:	12c12423          	sw	a2,296(sp)

000007e4 <inst_94>:
     7e4:	fff80537          	lui	a0,0xfff80
     7e8:	fff50513          	addi	a0,a0,-1 # fff7ffff <_end+0xfff7c4bf>
     7ec:	ffe005b7          	lui	a1,0xffe00
     7f0:	fff58593          	addi	a1,a1,-1 # ffdfffff <_end+0xffdfc4bf>
     7f4:	00b57633          	and	a2,a0,a1
     7f8:	12c12623          	sw	a2,300(sp)

000007fc <inst_95>:
     7fc:	ffe00537          	lui	a0,0xffe00
     800:	fff50513          	addi	a0,a0,-1 # ffdfffff <_end+0xffdfc4bf>
     804:	00400593          	li	a1,4
     808:	00b57633          	and	a2,a0,a1
     80c:	12c12823          	sw	a2,304(sp)

00000810 <inst_96>:
     810:	ffc00537          	lui	a0,0xffc00
     814:	fff50513          	addi	a0,a0,-1 # ffbfffff <_end+0xffbfc4bf>
     818:	333335b7          	lui	a1,0x33333
     81c:	33458593          	addi	a1,a1,820 # 33333334 <_end+0x3332f7f4>
     820:	00b57633          	and	a2,a0,a1
     824:	12c12a23          	sw	a2,308(sp)

00000828 <inst_97>:
     828:	ff000537          	lui	a0,0xff000
     82c:	fff50513          	addi	a0,a0,-1 # feffffff <_end+0xfeffc4bf>
     830:	800005b7          	lui	a1,0x80000
     834:	fff58593          	addi	a1,a1,-1 # 7fffffff <_end+0x7fffc4bf>
     838:	00b57633          	and	a2,a0,a1
     83c:	12c12c23          	sw	a2,312(sp)

00000840 <inst_98>:
     840:	fc000537          	lui	a0,0xfc000
     844:	fff50513          	addi	a0,a0,-1 # fbffffff <_end+0xfbffc4bf>
     848:	666665b7          	lui	a1,0x66666
     84c:	66558593          	addi	a1,a1,1637 # 66666665 <_end+0x66662b25>
     850:	00b57633          	and	a2,a0,a1
     854:	12c12e23          	sw	a2,316(sp)

00000858 <inst_99>:
     858:	f0000537          	lui	a0,0xf0000
     85c:	fff50513          	addi	a0,a0,-1 # efffffff <_end+0xefffc4bf>
     860:	ffff55b7          	lui	a1,0xffff5
     864:	afd58593          	addi	a1,a1,-1283 # ffff4afd <_end+0xffff0fbd>
     868:	00b57633          	and	a2,a0,a1
     86c:	14c12023          	sw	a2,320(sp)

00000870 <inst_100>:
     870:	00300513          	li	a0,3
     874:	00300593          	li	a1,3
     878:	00b57633          	and	a2,a0,a1
     87c:	14c12223          	sw	a2,324(sp)

00000880 <inst_101>:
     880:	00300513          	li	a0,3
     884:	555555b7          	lui	a1,0x55555
     888:	55558593          	addi	a1,a1,1365 # 55555555 <_end+0x55551a15>
     88c:	00b57633          	and	a2,a0,a1
     890:	14c12423          	sw	a2,328(sp)

00000894 <inst_102>:
     894:	00300513          	li	a0,3
     898:	aaaab5b7          	lui	a1,0xaaaab
     89c:	aaa58593          	addi	a1,a1,-1366 # aaaaaaaa <_end+0xaaaa6f6a>
     8a0:	00b57633          	and	a2,a0,a1
     8a4:	14c12623          	sw	a2,332(sp)

000008a8 <inst_103>:
     8a8:	00300513          	li	a0,3
     8ac:	00500593          	li	a1,5
     8b0:	00b57633          	and	a2,a0,a1
     8b4:	14c12823          	sw	a2,336(sp)

000008b8 <inst_104>:
     8b8:	00300513          	li	a0,3
     8bc:	333335b7          	lui	a1,0x33333
     8c0:	33358593          	addi	a1,a1,819 # 33333333 <_end+0x3332f7f3>
     8c4:	00b57633          	and	a2,a0,a1
     8c8:	14c12a23          	sw	a2,340(sp)

000008cc <inst_105>:
     8cc:	00300513          	li	a0,3
     8d0:	666665b7          	lui	a1,0x66666
     8d4:	66658593          	addi	a1,a1,1638 # 66666666 <_end+0x66662b26>
     8d8:	00b57633          	and	a2,a0,a1
     8dc:	14c12c23          	sw	a2,344(sp)

000008e0 <inst_106>:
     8e0:	00300513          	li	a0,3
     8e4:	ffff55b7          	lui	a1,0xffff5
     8e8:	afc58593          	addi	a1,a1,-1284 # ffff4afc <_end+0xffff0fbc>
     8ec:	00b57633          	and	a2,a0,a1
     8f0:	14c12e23          	sw	a2,348(sp)

000008f4 <inst_107>:
     8f4:	00300513          	li	a0,3
     8f8:	0000b5b7          	lui	a1,0xb
     8fc:	50458593          	addi	a1,a1,1284 # b504 <_end+0x79c4>
     900:	00b57633          	and	a2,a0,a1
     904:	16c12023          	sw	a2,352(sp)

00000908 <inst_108>:
     908:	00300513          	li	a0,3
     90c:	00200593          	li	a1,2
     910:	00b57633          	and	a2,a0,a1
     914:	16c12223          	sw	a2,356(sp)

00000918 <inst_109>:
     918:	00300513          	li	a0,3
     91c:	555555b7          	lui	a1,0x55555
     920:	55458593          	addi	a1,a1,1364 # 55555554 <_end+0x55551a14>
     924:	00b57633          	and	a2,a0,a1
     928:	16c12423          	sw	a2,360(sp)

0000092c <inst_110>:
     92c:	00300513          	li	a0,3
     930:	00000593          	li	a1,0
     934:	00b57633          	and	a2,a0,a1
     938:	16c12623          	sw	a2,364(sp)

0000093c <inst_111>:
     93c:	00300513          	li	a0,3
     940:	00400593          	li	a1,4
     944:	00b57633          	and	a2,a0,a1
     948:	16c12823          	sw	a2,368(sp)

0000094c <inst_112>:
     94c:	00300513          	li	a0,3
     950:	333335b7          	lui	a1,0x33333
     954:	33258593          	addi	a1,a1,818 # 33333332 <_end+0x3332f7f2>
     958:	00b57633          	and	a2,a0,a1
     95c:	16c12a23          	sw	a2,372(sp)

00000960 <inst_113>:
     960:	00300513          	li	a0,3
     964:	666665b7          	lui	a1,0x66666
     968:	66558593          	addi	a1,a1,1637 # 66666665 <_end+0x66662b25>
     96c:	00b57633          	and	a2,a0,a1
     970:	16c12c23          	sw	a2,376(sp)

00000974 <inst_114>:
     974:	00300513          	li	a0,3
     978:	0000b5b7          	lui	a1,0xb
     97c:	50358593          	addi	a1,a1,1283 # b503 <_end+0x79c3>
     980:	00b57633          	and	a2,a0,a1
     984:	16c12e23          	sw	a2,380(sp)

00000988 <inst_115>:
     988:	00300513          	li	a0,3
     98c:	555555b7          	lui	a1,0x55555
     990:	55658593          	addi	a1,a1,1366 # 55555556 <_end+0x55551a16>
     994:	00b57633          	and	a2,a0,a1
     998:	18c12023          	sw	a2,384(sp)

0000099c <inst_116>:
     99c:	00300513          	li	a0,3
     9a0:	aaaab5b7          	lui	a1,0xaaaab
     9a4:	aab58593          	addi	a1,a1,-1365 # aaaaaaab <_end+0xaaaa6f6b>
     9a8:	00b57633          	and	a2,a0,a1
     9ac:	18c12223          	sw	a2,388(sp)

000009b0 <inst_117>:
     9b0:	00300513          	li	a0,3
     9b4:	00600593          	li	a1,6
     9b8:	00b57633          	and	a2,a0,a1
     9bc:	18c12423          	sw	a2,392(sp)

000009c0 <inst_118>:
     9c0:	00300513          	li	a0,3
     9c4:	333335b7          	lui	a1,0x33333
     9c8:	33458593          	addi	a1,a1,820 # 33333334 <_end+0x3332f7f4>
     9cc:	00b57633          	and	a2,a0,a1
     9d0:	18c12623          	sw	a2,396(sp)

000009d4 <inst_119>:
     9d4:	00300513          	li	a0,3
     9d8:	666665b7          	lui	a1,0x66666
     9dc:	66758593          	addi	a1,a1,1639 # 66666667 <_end+0x66662b27>
     9e0:	00b57633          	and	a2,a0,a1
     9e4:	18c12823          	sw	a2,400(sp)

000009e8 <inst_120>:
     9e8:	00300513          	li	a0,3
     9ec:	ffff55b7          	lui	a1,0xffff5
     9f0:	afd58593          	addi	a1,a1,-1283 # ffff4afd <_end+0xffff0fbd>
     9f4:	00b57633          	and	a2,a0,a1
     9f8:	18c12a23          	sw	a2,404(sp)

000009fc <inst_121>:
     9fc:	00300513          	li	a0,3
     a00:	0000b5b7          	lui	a1,0xb
     a04:	50558593          	addi	a1,a1,1285 # b505 <_end+0x79c5>
     a08:	00b57633          	and	a2,a0,a1
     a0c:	18c12c23          	sw	a2,408(sp)

00000a10 <inst_122>:
     a10:	55555537          	lui	a0,0x55555
     a14:	55550513          	addi	a0,a0,1365 # 55555555 <_end+0x55551a15>
     a18:	00300593          	li	a1,3
     a1c:	00b57633          	and	a2,a0,a1
     a20:	18c12e23          	sw	a2,412(sp)

00000a24 <inst_123>:
     a24:	55555537          	lui	a0,0x55555
     a28:	55550513          	addi	a0,a0,1365 # 55555555 <_end+0x55551a15>
     a2c:	555555b7          	lui	a1,0x55555
     a30:	55558593          	addi	a1,a1,1365 # 55555555 <_end+0x55551a15>
     a34:	00b57633          	and	a2,a0,a1
     a38:	1ac12023          	sw	a2,416(sp)

00000a3c <inst_124>:
     a3c:	55555537          	lui	a0,0x55555
     a40:	55550513          	addi	a0,a0,1365 # 55555555 <_end+0x55551a15>
     a44:	aaaab5b7          	lui	a1,0xaaaab
     a48:	aaa58593          	addi	a1,a1,-1366 # aaaaaaaa <_end+0xaaaa6f6a>
     a4c:	00b57633          	and	a2,a0,a1
     a50:	1ac12223          	sw	a2,420(sp)

00000a54 <inst_125>:
     a54:	55555537          	lui	a0,0x55555
     a58:	55550513          	addi	a0,a0,1365 # 55555555 <_end+0x55551a15>
     a5c:	00500593          	li	a1,5
     a60:	00b57633          	and	a2,a0,a1
     a64:	1ac12423          	sw	a2,424(sp)

00000a68 <inst_126>:
     a68:	55555537          	lui	a0,0x55555
     a6c:	55550513          	addi	a0,a0,1365 # 55555555 <_end+0x55551a15>
     a70:	333335b7          	lui	a1,0x33333
     a74:	33358593          	addi	a1,a1,819 # 33333333 <_end+0x3332f7f3>
     a78:	00b57633          	and	a2,a0,a1
     a7c:	1ac12623          	sw	a2,428(sp)

00000a80 <inst_127>:
     a80:	55555537          	lui	a0,0x55555
     a84:	55550513          	addi	a0,a0,1365 # 55555555 <_end+0x55551a15>
     a88:	666665b7          	lui	a1,0x66666
     a8c:	66658593          	addi	a1,a1,1638 # 66666666 <_end+0x66662b26>
     a90:	00b57633          	and	a2,a0,a1
     a94:	1ac12823          	sw	a2,432(sp)

00000a98 <inst_128>:
     a98:	55555537          	lui	a0,0x55555
     a9c:	55550513          	addi	a0,a0,1365 # 55555555 <_end+0x55551a15>
     aa0:	ffff55b7          	lui	a1,0xffff5
     aa4:	afc58593          	addi	a1,a1,-1284 # ffff4afc <_end+0xffff0fbc>
     aa8:	00b57633          	and	a2,a0,a1
     aac:	1ac12a23          	sw	a2,436(sp)

00000ab0 <inst_129>:
     ab0:	55555537          	lui	a0,0x55555
     ab4:	55550513          	addi	a0,a0,1365 # 55555555 <_end+0x55551a15>
     ab8:	0000b5b7          	lui	a1,0xb
     abc:	50458593          	addi	a1,a1,1284 # b504 <_end+0x79c4>
     ac0:	00b57633          	and	a2,a0,a1
     ac4:	1ac12c23          	sw	a2,440(sp)

00000ac8 <inst_130>:
     ac8:	55555537          	lui	a0,0x55555
     acc:	55550513          	addi	a0,a0,1365 # 55555555 <_end+0x55551a15>
     ad0:	00200593          	li	a1,2
     ad4:	00b57633          	and	a2,a0,a1
     ad8:	1ac12e23          	sw	a2,444(sp)

00000adc <inst_131>:
     adc:	55555537          	lui	a0,0x55555
     ae0:	55550513          	addi	a0,a0,1365 # 55555555 <_end+0x55551a15>
     ae4:	555555b7          	lui	a1,0x55555
     ae8:	55458593          	addi	a1,a1,1364 # 55555554 <_end+0x55551a14>
     aec:	00b57633          	and	a2,a0,a1
     af0:	1cc12023          	sw	a2,448(sp)

00000af4 <inst_132>:
     af4:	55555537          	lui	a0,0x55555
     af8:	55550513          	addi	a0,a0,1365 # 55555555 <_end+0x55551a15>
     afc:	00000593          	li	a1,0
     b00:	00b57633          	and	a2,a0,a1
     b04:	1cc12223          	sw	a2,452(sp)

00000b08 <inst_133>:
     b08:	55555537          	lui	a0,0x55555
     b0c:	55550513          	addi	a0,a0,1365 # 55555555 <_end+0x55551a15>
     b10:	00400593          	li	a1,4
     b14:	00b57633          	and	a2,a0,a1
     b18:	1cc12423          	sw	a2,456(sp)

00000b1c <inst_134>:
     b1c:	55555537          	lui	a0,0x55555
     b20:	55550513          	addi	a0,a0,1365 # 55555555 <_end+0x55551a15>
     b24:	333335b7          	lui	a1,0x33333
     b28:	33258593          	addi	a1,a1,818 # 33333332 <_end+0x3332f7f2>
     b2c:	00b57633          	and	a2,a0,a1
     b30:	1cc12623          	sw	a2,460(sp)

00000b34 <inst_135>:
     b34:	55555537          	lui	a0,0x55555
     b38:	55550513          	addi	a0,a0,1365 # 55555555 <_end+0x55551a15>
     b3c:	666665b7          	lui	a1,0x66666
     b40:	66558593          	addi	a1,a1,1637 # 66666665 <_end+0x66662b25>
     b44:	00b57633          	and	a2,a0,a1
     b48:	1cc12823          	sw	a2,464(sp)

00000b4c <inst_136>:
     b4c:	55555537          	lui	a0,0x55555
     b50:	55550513          	addi	a0,a0,1365 # 55555555 <_end+0x55551a15>
     b54:	0000b5b7          	lui	a1,0xb
     b58:	50358593          	addi	a1,a1,1283 # b503 <_end+0x79c3>
     b5c:	00b57633          	and	a2,a0,a1
     b60:	1cc12a23          	sw	a2,468(sp)

00000b64 <inst_137>:
     b64:	55555537          	lui	a0,0x55555
     b68:	55550513          	addi	a0,a0,1365 # 55555555 <_end+0x55551a15>
     b6c:	555555b7          	lui	a1,0x55555
     b70:	55658593          	addi	a1,a1,1366 # 55555556 <_end+0x55551a16>
     b74:	00b57633          	and	a2,a0,a1
     b78:	1cc12c23          	sw	a2,472(sp)

00000b7c <inst_138>:
     b7c:	55555537          	lui	a0,0x55555
     b80:	55550513          	addi	a0,a0,1365 # 55555555 <_end+0x55551a15>
     b84:	aaaab5b7          	lui	a1,0xaaaab
     b88:	aab58593          	addi	a1,a1,-1365 # aaaaaaab <_end+0xaaaa6f6b>
     b8c:	00b57633          	and	a2,a0,a1
     b90:	1cc12e23          	sw	a2,476(sp)

00000b94 <inst_139>:
     b94:	55555537          	lui	a0,0x55555
     b98:	55550513          	addi	a0,a0,1365 # 55555555 <_end+0x55551a15>
     b9c:	00600593          	li	a1,6
     ba0:	00b57633          	and	a2,a0,a1
     ba4:	1ec12023          	sw	a2,480(sp)

00000ba8 <inst_140>:
     ba8:	55555537          	lui	a0,0x55555
     bac:	55550513          	addi	a0,a0,1365 # 55555555 <_end+0x55551a15>
     bb0:	333335b7          	lui	a1,0x33333
     bb4:	33458593          	addi	a1,a1,820 # 33333334 <_end+0x3332f7f4>
     bb8:	00b57633          	and	a2,a0,a1
     bbc:	1ec12223          	sw	a2,484(sp)

00000bc0 <inst_141>:
     bc0:	55555537          	lui	a0,0x55555
     bc4:	55550513          	addi	a0,a0,1365 # 55555555 <_end+0x55551a15>
     bc8:	666665b7          	lui	a1,0x66666
     bcc:	66758593          	addi	a1,a1,1639 # 66666667 <_end+0x66662b27>
     bd0:	00b57633          	and	a2,a0,a1
     bd4:	1ec12423          	sw	a2,488(sp)

00000bd8 <inst_142>:
     bd8:	55555537          	lui	a0,0x55555
     bdc:	55550513          	addi	a0,a0,1365 # 55555555 <_end+0x55551a15>
     be0:	ffff55b7          	lui	a1,0xffff5
     be4:	afd58593          	addi	a1,a1,-1283 # ffff4afd <_end+0xffff0fbd>
     be8:	00b57633          	and	a2,a0,a1
     bec:	1ec12623          	sw	a2,492(sp)

00000bf0 <inst_143>:
     bf0:	55555537          	lui	a0,0x55555
     bf4:	55550513          	addi	a0,a0,1365 # 55555555 <_end+0x55551a15>
     bf8:	0000b5b7          	lui	a1,0xb
     bfc:	50558593          	addi	a1,a1,1285 # b505 <_end+0x79c5>
     c00:	00b57633          	and	a2,a0,a1
     c04:	1ec12823          	sw	a2,496(sp)

00000c08 <inst_144>:
     c08:	aaaab537          	lui	a0,0xaaaab
     c0c:	aaa50513          	addi	a0,a0,-1366 # aaaaaaaa <_end+0xaaaa6f6a>
     c10:	00300593          	li	a1,3
     c14:	00b57633          	and	a2,a0,a1
     c18:	1ec12a23          	sw	a2,500(sp)

00000c1c <inst_145>:
     c1c:	aaaab537          	lui	a0,0xaaaab
     c20:	aaa50513          	addi	a0,a0,-1366 # aaaaaaaa <_end+0xaaaa6f6a>
     c24:	555555b7          	lui	a1,0x55555
     c28:	55558593          	addi	a1,a1,1365 # 55555555 <_end+0x55551a15>
     c2c:	00b57633          	and	a2,a0,a1
     c30:	1ec12c23          	sw	a2,504(sp)

00000c34 <inst_146>:
     c34:	aaaab537          	lui	a0,0xaaaab
     c38:	aaa50513          	addi	a0,a0,-1366 # aaaaaaaa <_end+0xaaaa6f6a>
     c3c:	aaaab5b7          	lui	a1,0xaaaab
     c40:	aaa58593          	addi	a1,a1,-1366 # aaaaaaaa <_end+0xaaaa6f6a>
     c44:	00b57633          	and	a2,a0,a1
     c48:	1ec12e23          	sw	a2,508(sp)

00000c4c <inst_147>:
     c4c:	aaaab537          	lui	a0,0xaaaab
     c50:	aaa50513          	addi	a0,a0,-1366 # aaaaaaaa <_end+0xaaaa6f6a>
     c54:	00500593          	li	a1,5
     c58:	00b57633          	and	a2,a0,a1
     c5c:	20c12023          	sw	a2,512(sp)

00000c60 <inst_148>:
     c60:	aaaab537          	lui	a0,0xaaaab
     c64:	aaa50513          	addi	a0,a0,-1366 # aaaaaaaa <_end+0xaaaa6f6a>
     c68:	333335b7          	lui	a1,0x33333
     c6c:	33358593          	addi	a1,a1,819 # 33333333 <_end+0x3332f7f3>
     c70:	00b57633          	and	a2,a0,a1
     c74:	20c12223          	sw	a2,516(sp)

00000c78 <inst_149>:
     c78:	aaaab537          	lui	a0,0xaaaab
     c7c:	aaa50513          	addi	a0,a0,-1366 # aaaaaaaa <_end+0xaaaa6f6a>
     c80:	666665b7          	lui	a1,0x66666
     c84:	66658593          	addi	a1,a1,1638 # 66666666 <_end+0x66662b26>
     c88:	00b57633          	and	a2,a0,a1
     c8c:	20c12423          	sw	a2,520(sp)

00000c90 <inst_150>:
     c90:	aaaab537          	lui	a0,0xaaaab
     c94:	aaa50513          	addi	a0,a0,-1366 # aaaaaaaa <_end+0xaaaa6f6a>
     c98:	ffff55b7          	lui	a1,0xffff5
     c9c:	afc58593          	addi	a1,a1,-1284 # ffff4afc <_end+0xffff0fbc>
     ca0:	00b57633          	and	a2,a0,a1
     ca4:	20c12623          	sw	a2,524(sp)

00000ca8 <inst_151>:
     ca8:	aaaab537          	lui	a0,0xaaaab
     cac:	aaa50513          	addi	a0,a0,-1366 # aaaaaaaa <_end+0xaaaa6f6a>
     cb0:	0000b5b7          	lui	a1,0xb
     cb4:	50458593          	addi	a1,a1,1284 # b504 <_end+0x79c4>
     cb8:	00b57633          	and	a2,a0,a1
     cbc:	20c12823          	sw	a2,528(sp)

00000cc0 <inst_152>:
     cc0:	aaaab537          	lui	a0,0xaaaab
     cc4:	aaa50513          	addi	a0,a0,-1366 # aaaaaaaa <_end+0xaaaa6f6a>
     cc8:	00200593          	li	a1,2
     ccc:	00b57633          	and	a2,a0,a1
     cd0:	20c12a23          	sw	a2,532(sp)

00000cd4 <inst_153>:
     cd4:	aaaab537          	lui	a0,0xaaaab
     cd8:	aaa50513          	addi	a0,a0,-1366 # aaaaaaaa <_end+0xaaaa6f6a>
     cdc:	555555b7          	lui	a1,0x55555
     ce0:	55458593          	addi	a1,a1,1364 # 55555554 <_end+0x55551a14>
     ce4:	00b57633          	and	a2,a0,a1
     ce8:	20c12c23          	sw	a2,536(sp)

00000cec <inst_154>:
     cec:	aaaab537          	lui	a0,0xaaaab
     cf0:	aaa50513          	addi	a0,a0,-1366 # aaaaaaaa <_end+0xaaaa6f6a>
     cf4:	00000593          	li	a1,0
     cf8:	00b57633          	and	a2,a0,a1
     cfc:	20c12e23          	sw	a2,540(sp)

00000d00 <inst_155>:
     d00:	aaaab537          	lui	a0,0xaaaab
     d04:	aaa50513          	addi	a0,a0,-1366 # aaaaaaaa <_end+0xaaaa6f6a>
     d08:	00400593          	li	a1,4
     d0c:	00b57633          	and	a2,a0,a1
     d10:	22c12023          	sw	a2,544(sp)

00000d14 <inst_156>:
     d14:	aaaab537          	lui	a0,0xaaaab
     d18:	aaa50513          	addi	a0,a0,-1366 # aaaaaaaa <_end+0xaaaa6f6a>
     d1c:	333335b7          	lui	a1,0x33333
     d20:	33258593          	addi	a1,a1,818 # 33333332 <_end+0x3332f7f2>
     d24:	00b57633          	and	a2,a0,a1
     d28:	22c12223          	sw	a2,548(sp)

00000d2c <inst_157>:
     d2c:	aaaab537          	lui	a0,0xaaaab
     d30:	aaa50513          	addi	a0,a0,-1366 # aaaaaaaa <_end+0xaaaa6f6a>
     d34:	666665b7          	lui	a1,0x66666
     d38:	66558593          	addi	a1,a1,1637 # 66666665 <_end+0x66662b25>
     d3c:	00b57633          	and	a2,a0,a1
     d40:	22c12423          	sw	a2,552(sp)

00000d44 <inst_158>:
     d44:	aaaab537          	lui	a0,0xaaaab
     d48:	aaa50513          	addi	a0,a0,-1366 # aaaaaaaa <_end+0xaaaa6f6a>
     d4c:	0000b5b7          	lui	a1,0xb
     d50:	50358593          	addi	a1,a1,1283 # b503 <_end+0x79c3>
     d54:	00b57633          	and	a2,a0,a1
     d58:	22c12623          	sw	a2,556(sp)

00000d5c <inst_159>:
     d5c:	aaaab537          	lui	a0,0xaaaab
     d60:	aaa50513          	addi	a0,a0,-1366 # aaaaaaaa <_end+0xaaaa6f6a>
     d64:	555555b7          	lui	a1,0x55555
     d68:	55658593          	addi	a1,a1,1366 # 55555556 <_end+0x55551a16>
     d6c:	00b57633          	and	a2,a0,a1
     d70:	22c12823          	sw	a2,560(sp)

00000d74 <inst_160>:
     d74:	aaaab537          	lui	a0,0xaaaab
     d78:	aaa50513          	addi	a0,a0,-1366 # aaaaaaaa <_end+0xaaaa6f6a>
     d7c:	aaaab5b7          	lui	a1,0xaaaab
     d80:	aab58593          	addi	a1,a1,-1365 # aaaaaaab <_end+0xaaaa6f6b>
     d84:	00b57633          	and	a2,a0,a1
     d88:	22c12a23          	sw	a2,564(sp)

00000d8c <inst_161>:
     d8c:	aaaab537          	lui	a0,0xaaaab
     d90:	aaa50513          	addi	a0,a0,-1366 # aaaaaaaa <_end+0xaaaa6f6a>
     d94:	00600593          	li	a1,6
     d98:	00b57633          	and	a2,a0,a1
     d9c:	22c12c23          	sw	a2,568(sp)

00000da0 <inst_162>:
     da0:	aaaab537          	lui	a0,0xaaaab
     da4:	aaa50513          	addi	a0,a0,-1366 # aaaaaaaa <_end+0xaaaa6f6a>
     da8:	333335b7          	lui	a1,0x33333
     dac:	33458593          	addi	a1,a1,820 # 33333334 <_end+0x3332f7f4>
     db0:	00b57633          	and	a2,a0,a1
     db4:	22c12e23          	sw	a2,572(sp)

00000db8 <inst_163>:
     db8:	aaaab537          	lui	a0,0xaaaab
     dbc:	aaa50513          	addi	a0,a0,-1366 # aaaaaaaa <_end+0xaaaa6f6a>
     dc0:	666665b7          	lui	a1,0x66666
     dc4:	66758593          	addi	a1,a1,1639 # 66666667 <_end+0x66662b27>
     dc8:	00b57633          	and	a2,a0,a1
     dcc:	24c12023          	sw	a2,576(sp)

00000dd0 <inst_164>:
     dd0:	aaaab537          	lui	a0,0xaaaab
     dd4:	aaa50513          	addi	a0,a0,-1366 # aaaaaaaa <_end+0xaaaa6f6a>
     dd8:	ffff55b7          	lui	a1,0xffff5
     ddc:	afd58593          	addi	a1,a1,-1283 # ffff4afd <_end+0xffff0fbd>
     de0:	00b57633          	and	a2,a0,a1
     de4:	24c12223          	sw	a2,580(sp)

00000de8 <inst_165>:
     de8:	aaaab537          	lui	a0,0xaaaab
     dec:	aaa50513          	addi	a0,a0,-1366 # aaaaaaaa <_end+0xaaaa6f6a>
     df0:	0000b5b7          	lui	a1,0xb
     df4:	50558593          	addi	a1,a1,1285 # b505 <_end+0x79c5>
     df8:	00b57633          	and	a2,a0,a1
     dfc:	24c12423          	sw	a2,584(sp)

00000e00 <inst_166>:
     e00:	00500513          	li	a0,5
     e04:	00300593          	li	a1,3
     e08:	00b57633          	and	a2,a0,a1
     e0c:	24c12623          	sw	a2,588(sp)

00000e10 <inst_167>:
     e10:	00500513          	li	a0,5
     e14:	555555b7          	lui	a1,0x55555
     e18:	55558593          	addi	a1,a1,1365 # 55555555 <_end+0x55551a15>
     e1c:	00b57633          	and	a2,a0,a1
     e20:	24c12823          	sw	a2,592(sp)

00000e24 <inst_168>:
     e24:	00500513          	li	a0,5
     e28:	aaaab5b7          	lui	a1,0xaaaab
     e2c:	aaa58593          	addi	a1,a1,-1366 # aaaaaaaa <_end+0xaaaa6f6a>
     e30:	00b57633          	and	a2,a0,a1
     e34:	24c12a23          	sw	a2,596(sp)

00000e38 <inst_169>:
     e38:	00500513          	li	a0,5
     e3c:	333335b7          	lui	a1,0x33333
     e40:	33358593          	addi	a1,a1,819 # 33333333 <_end+0x3332f7f3>
     e44:	00b57633          	and	a2,a0,a1
     e48:	24c12c23          	sw	a2,600(sp)

00000e4c <inst_170>:
     e4c:	00500513          	li	a0,5
     e50:	666665b7          	lui	a1,0x66666
     e54:	66658593          	addi	a1,a1,1638 # 66666666 <_end+0x66662b26>
     e58:	00b57633          	and	a2,a0,a1
     e5c:	24c12e23          	sw	a2,604(sp)

00000e60 <inst_171>:
     e60:	00500513          	li	a0,5
     e64:	ffff55b7          	lui	a1,0xffff5
     e68:	afc58593          	addi	a1,a1,-1284 # ffff4afc <_end+0xffff0fbc>
     e6c:	00b57633          	and	a2,a0,a1
     e70:	26c12023          	sw	a2,608(sp)

00000e74 <inst_172>:
     e74:	00500513          	li	a0,5
     e78:	0000b5b7          	lui	a1,0xb
     e7c:	50458593          	addi	a1,a1,1284 # b504 <_end+0x79c4>
     e80:	00b57633          	and	a2,a0,a1
     e84:	26c12223          	sw	a2,612(sp)

00000e88 <inst_173>:
     e88:	00500513          	li	a0,5
     e8c:	00200593          	li	a1,2
     e90:	00b57633          	and	a2,a0,a1
     e94:	26c12423          	sw	a2,616(sp)

00000e98 <inst_174>:
     e98:	00500513          	li	a0,5
     e9c:	555555b7          	lui	a1,0x55555
     ea0:	55458593          	addi	a1,a1,1364 # 55555554 <_end+0x55551a14>
     ea4:	00b57633          	and	a2,a0,a1
     ea8:	26c12623          	sw	a2,620(sp)

00000eac <inst_175>:
     eac:	00500513          	li	a0,5
     eb0:	00000593          	li	a1,0
     eb4:	00b57633          	and	a2,a0,a1
     eb8:	26c12823          	sw	a2,624(sp)

00000ebc <inst_176>:
     ebc:	00500513          	li	a0,5
     ec0:	00400593          	li	a1,4
     ec4:	00b57633          	and	a2,a0,a1
     ec8:	26c12a23          	sw	a2,628(sp)

00000ecc <inst_177>:
     ecc:	00500513          	li	a0,5
     ed0:	333335b7          	lui	a1,0x33333
     ed4:	33258593          	addi	a1,a1,818 # 33333332 <_end+0x3332f7f2>
     ed8:	00b57633          	and	a2,a0,a1
     edc:	26c12c23          	sw	a2,632(sp)

00000ee0 <inst_178>:
     ee0:	00500513          	li	a0,5
     ee4:	666665b7          	lui	a1,0x66666
     ee8:	66558593          	addi	a1,a1,1637 # 66666665 <_end+0x66662b25>
     eec:	00b57633          	and	a2,a0,a1
     ef0:	26c12e23          	sw	a2,636(sp)

00000ef4 <inst_179>:
     ef4:	00500513          	li	a0,5
     ef8:	0000b5b7          	lui	a1,0xb
     efc:	50358593          	addi	a1,a1,1283 # b503 <_end+0x79c3>
     f00:	00b57633          	and	a2,a0,a1
     f04:	28c12023          	sw	a2,640(sp)

00000f08 <inst_180>:
     f08:	00500513          	li	a0,5
     f0c:	555555b7          	lui	a1,0x55555
     f10:	55658593          	addi	a1,a1,1366 # 55555556 <_end+0x55551a16>
     f14:	00b57633          	and	a2,a0,a1
     f18:	28c12223          	sw	a2,644(sp)

00000f1c <inst_181>:
     f1c:	00500513          	li	a0,5
     f20:	aaaab5b7          	lui	a1,0xaaaab
     f24:	aab58593          	addi	a1,a1,-1365 # aaaaaaab <_end+0xaaaa6f6b>
     f28:	00b57633          	and	a2,a0,a1
     f2c:	28c12423          	sw	a2,648(sp)

00000f30 <inst_182>:
     f30:	00500513          	li	a0,5
     f34:	00600593          	li	a1,6
     f38:	00b57633          	and	a2,a0,a1
     f3c:	28c12623          	sw	a2,652(sp)

00000f40 <inst_183>:
     f40:	00500513          	li	a0,5
     f44:	333335b7          	lui	a1,0x33333
     f48:	33458593          	addi	a1,a1,820 # 33333334 <_end+0x3332f7f4>
     f4c:	00b57633          	and	a2,a0,a1
     f50:	28c12823          	sw	a2,656(sp)

00000f54 <inst_184>:
     f54:	00500513          	li	a0,5
     f58:	666665b7          	lui	a1,0x66666
     f5c:	66758593          	addi	a1,a1,1639 # 66666667 <_end+0x66662b27>
     f60:	00b57633          	and	a2,a0,a1
     f64:	28c12a23          	sw	a2,660(sp)

00000f68 <inst_185>:
     f68:	00500513          	li	a0,5
     f6c:	ffff55b7          	lui	a1,0xffff5
     f70:	afd58593          	addi	a1,a1,-1283 # ffff4afd <_end+0xffff0fbd>
     f74:	00b57633          	and	a2,a0,a1
     f78:	28c12c23          	sw	a2,664(sp)

00000f7c <inst_186>:
     f7c:	00500513          	li	a0,5
     f80:	0000b5b7          	lui	a1,0xb
     f84:	50558593          	addi	a1,a1,1285 # b505 <_end+0x79c5>
     f88:	00b57633          	and	a2,a0,a1
     f8c:	28c12e23          	sw	a2,668(sp)

00000f90 <inst_187>:
     f90:	33333537          	lui	a0,0x33333
     f94:	33350513          	addi	a0,a0,819 # 33333333 <_end+0x3332f7f3>
     f98:	00300593          	li	a1,3
     f9c:	00b57633          	and	a2,a0,a1
     fa0:	2ac12023          	sw	a2,672(sp)

00000fa4 <inst_188>:
     fa4:	33333537          	lui	a0,0x33333
     fa8:	33350513          	addi	a0,a0,819 # 33333333 <_end+0x3332f7f3>
     fac:	555555b7          	lui	a1,0x55555
     fb0:	55558593          	addi	a1,a1,1365 # 55555555 <_end+0x55551a15>
     fb4:	00b57633          	and	a2,a0,a1
     fb8:	2ac12223          	sw	a2,676(sp)

00000fbc <inst_189>:
     fbc:	33333537          	lui	a0,0x33333
     fc0:	33350513          	addi	a0,a0,819 # 33333333 <_end+0x3332f7f3>
     fc4:	aaaab5b7          	lui	a1,0xaaaab
     fc8:	aaa58593          	addi	a1,a1,-1366 # aaaaaaaa <_end+0xaaaa6f6a>
     fcc:	00b57633          	and	a2,a0,a1
     fd0:	2ac12423          	sw	a2,680(sp)

00000fd4 <inst_190>:
     fd4:	33333537          	lui	a0,0x33333
     fd8:	33350513          	addi	a0,a0,819 # 33333333 <_end+0x3332f7f3>
     fdc:	00500593          	li	a1,5
     fe0:	00b57633          	and	a2,a0,a1
     fe4:	2ac12623          	sw	a2,684(sp)

00000fe8 <inst_191>:
     fe8:	33333537          	lui	a0,0x33333
     fec:	33350513          	addi	a0,a0,819 # 33333333 <_end+0x3332f7f3>
     ff0:	333335b7          	lui	a1,0x33333
     ff4:	33358593          	addi	a1,a1,819 # 33333333 <_end+0x3332f7f3>
     ff8:	00b57633          	and	a2,a0,a1
     ffc:	2ac12823          	sw	a2,688(sp)

00001000 <inst_192>:
    1000:	33333537          	lui	a0,0x33333
    1004:	33350513          	addi	a0,a0,819 # 33333333 <_end+0x3332f7f3>
    1008:	666665b7          	lui	a1,0x66666
    100c:	66658593          	addi	a1,a1,1638 # 66666666 <_end+0x66662b26>
    1010:	00b57633          	and	a2,a0,a1
    1014:	2ac12a23          	sw	a2,692(sp)

00001018 <inst_193>:
    1018:	33333537          	lui	a0,0x33333
    101c:	33350513          	addi	a0,a0,819 # 33333333 <_end+0x3332f7f3>
    1020:	ffff55b7          	lui	a1,0xffff5
    1024:	afc58593          	addi	a1,a1,-1284 # ffff4afc <_end+0xffff0fbc>
    1028:	00b57633          	and	a2,a0,a1
    102c:	2ac12c23          	sw	a2,696(sp)

00001030 <inst_194>:
    1030:	33333537          	lui	a0,0x33333
    1034:	33350513          	addi	a0,a0,819 # 33333333 <_end+0x3332f7f3>
    1038:	0000b5b7          	lui	a1,0xb
    103c:	50458593          	addi	a1,a1,1284 # b504 <_end+0x79c4>
    1040:	00b57633          	and	a2,a0,a1
    1044:	2ac12e23          	sw	a2,700(sp)

00001048 <inst_195>:
    1048:	33333537          	lui	a0,0x33333
    104c:	33350513          	addi	a0,a0,819 # 33333333 <_end+0x3332f7f3>
    1050:	00200593          	li	a1,2
    1054:	00b57633          	and	a2,a0,a1
    1058:	2cc12023          	sw	a2,704(sp)

0000105c <inst_196>:
    105c:	33333537          	lui	a0,0x33333
    1060:	33350513          	addi	a0,a0,819 # 33333333 <_end+0x3332f7f3>
    1064:	555555b7          	lui	a1,0x55555
    1068:	55458593          	addi	a1,a1,1364 # 55555554 <_end+0x55551a14>
    106c:	00b57633          	and	a2,a0,a1
    1070:	2cc12223          	sw	a2,708(sp)

00001074 <inst_197>:
    1074:	33333537          	lui	a0,0x33333
    1078:	33350513          	addi	a0,a0,819 # 33333333 <_end+0x3332f7f3>
    107c:	00400593          	li	a1,4
    1080:	00b57633          	and	a2,a0,a1
    1084:	2cc12423          	sw	a2,712(sp)

00001088 <inst_198>:
    1088:	33333537          	lui	a0,0x33333
    108c:	33350513          	addi	a0,a0,819 # 33333333 <_end+0x3332f7f3>
    1090:	333335b7          	lui	a1,0x33333
    1094:	33258593          	addi	a1,a1,818 # 33333332 <_end+0x3332f7f2>
    1098:	00b57633          	and	a2,a0,a1
    109c:	2cc12623          	sw	a2,716(sp)

000010a0 <inst_199>:
    10a0:	33333537          	lui	a0,0x33333
    10a4:	33350513          	addi	a0,a0,819 # 33333333 <_end+0x3332f7f3>
    10a8:	666665b7          	lui	a1,0x66666
    10ac:	66558593          	addi	a1,a1,1637 # 66666665 <_end+0x66662b25>
    10b0:	00b57633          	and	a2,a0,a1
    10b4:	2cc12823          	sw	a2,720(sp)

000010b8 <inst_200>:
    10b8:	33333537          	lui	a0,0x33333
    10bc:	33350513          	addi	a0,a0,819 # 33333333 <_end+0x3332f7f3>
    10c0:	0000b5b7          	lui	a1,0xb
    10c4:	50358593          	addi	a1,a1,1283 # b503 <_end+0x79c3>
    10c8:	00b57633          	and	a2,a0,a1
    10cc:	2cc12a23          	sw	a2,724(sp)

000010d0 <inst_201>:
    10d0:	33333537          	lui	a0,0x33333
    10d4:	33350513          	addi	a0,a0,819 # 33333333 <_end+0x3332f7f3>
    10d8:	555555b7          	lui	a1,0x55555
    10dc:	55658593          	addi	a1,a1,1366 # 55555556 <_end+0x55551a16>
    10e0:	00b57633          	and	a2,a0,a1
    10e4:	2cc12c23          	sw	a2,728(sp)

000010e8 <inst_202>:
    10e8:	33333537          	lui	a0,0x33333
    10ec:	33350513          	addi	a0,a0,819 # 33333333 <_end+0x3332f7f3>
    10f0:	aaaab5b7          	lui	a1,0xaaaab
    10f4:	aab58593          	addi	a1,a1,-1365 # aaaaaaab <_end+0xaaaa6f6b>
    10f8:	00b57633          	and	a2,a0,a1
    10fc:	2cc12e23          	sw	a2,732(sp)

00001100 <inst_203>:
    1100:	33333537          	lui	a0,0x33333
    1104:	33350513          	addi	a0,a0,819 # 33333333 <_end+0x3332f7f3>
    1108:	00600593          	li	a1,6
    110c:	00b57633          	and	a2,a0,a1
    1110:	2ec12023          	sw	a2,736(sp)

00001114 <inst_204>:
    1114:	33333537          	lui	a0,0x33333
    1118:	33350513          	addi	a0,a0,819 # 33333333 <_end+0x3332f7f3>
    111c:	333335b7          	lui	a1,0x33333
    1120:	33458593          	addi	a1,a1,820 # 33333334 <_end+0x3332f7f4>
    1124:	00b57633          	and	a2,a0,a1
    1128:	2ec12223          	sw	a2,740(sp)

0000112c <inst_205>:
    112c:	33333537          	lui	a0,0x33333
    1130:	33350513          	addi	a0,a0,819 # 33333333 <_end+0x3332f7f3>
    1134:	666665b7          	lui	a1,0x66666
    1138:	66758593          	addi	a1,a1,1639 # 66666667 <_end+0x66662b27>
    113c:	00b57633          	and	a2,a0,a1
    1140:	2ec12423          	sw	a2,744(sp)

00001144 <inst_206>:
    1144:	33333537          	lui	a0,0x33333
    1148:	33350513          	addi	a0,a0,819 # 33333333 <_end+0x3332f7f3>
    114c:	ffff55b7          	lui	a1,0xffff5
    1150:	afd58593          	addi	a1,a1,-1283 # ffff4afd <_end+0xffff0fbd>
    1154:	00b57633          	and	a2,a0,a1
    1158:	2ec12623          	sw	a2,748(sp)

0000115c <inst_207>:
    115c:	33333537          	lui	a0,0x33333
    1160:	33350513          	addi	a0,a0,819 # 33333333 <_end+0x3332f7f3>
    1164:	0000b5b7          	lui	a1,0xb
    1168:	50558593          	addi	a1,a1,1285 # b505 <_end+0x79c5>
    116c:	00b57633          	and	a2,a0,a1
    1170:	2ec12823          	sw	a2,752(sp)

00001174 <inst_208>:
    1174:	66666537          	lui	a0,0x66666
    1178:	66650513          	addi	a0,a0,1638 # 66666666 <_end+0x66662b26>
    117c:	00300593          	li	a1,3
    1180:	00b57633          	and	a2,a0,a1
    1184:	2ec12a23          	sw	a2,756(sp)

00001188 <inst_209>:
    1188:	66666537          	lui	a0,0x66666
    118c:	66650513          	addi	a0,a0,1638 # 66666666 <_end+0x66662b26>
    1190:	555555b7          	lui	a1,0x55555
    1194:	55558593          	addi	a1,a1,1365 # 55555555 <_end+0x55551a15>
    1198:	00b57633          	and	a2,a0,a1
    119c:	2ec12c23          	sw	a2,760(sp)

000011a0 <inst_210>:
    11a0:	66666537          	lui	a0,0x66666
    11a4:	66650513          	addi	a0,a0,1638 # 66666666 <_end+0x66662b26>
    11a8:	aaaab5b7          	lui	a1,0xaaaab
    11ac:	aaa58593          	addi	a1,a1,-1366 # aaaaaaaa <_end+0xaaaa6f6a>
    11b0:	00b57633          	and	a2,a0,a1
    11b4:	2ec12e23          	sw	a2,764(sp)

000011b8 <inst_211>:
    11b8:	66666537          	lui	a0,0x66666
    11bc:	66650513          	addi	a0,a0,1638 # 66666666 <_end+0x66662b26>
    11c0:	00500593          	li	a1,5
    11c4:	00b57633          	and	a2,a0,a1
    11c8:	30c12023          	sw	a2,768(sp)

000011cc <inst_212>:
    11cc:	66666537          	lui	a0,0x66666
    11d0:	66650513          	addi	a0,a0,1638 # 66666666 <_end+0x66662b26>
    11d4:	333335b7          	lui	a1,0x33333
    11d8:	33358593          	addi	a1,a1,819 # 33333333 <_end+0x3332f7f3>
    11dc:	00b57633          	and	a2,a0,a1
    11e0:	30c12223          	sw	a2,772(sp)

000011e4 <inst_213>:
    11e4:	66666537          	lui	a0,0x66666
    11e8:	66650513          	addi	a0,a0,1638 # 66666666 <_end+0x66662b26>
    11ec:	666665b7          	lui	a1,0x66666
    11f0:	66658593          	addi	a1,a1,1638 # 66666666 <_end+0x66662b26>
    11f4:	00b57633          	and	a2,a0,a1
    11f8:	30c12423          	sw	a2,776(sp)

000011fc <inst_214>:
    11fc:	66666537          	lui	a0,0x66666
    1200:	66650513          	addi	a0,a0,1638 # 66666666 <_end+0x66662b26>
    1204:	ffff55b7          	lui	a1,0xffff5
    1208:	afc58593          	addi	a1,a1,-1284 # ffff4afc <_end+0xffff0fbc>
    120c:	00b57633          	and	a2,a0,a1
    1210:	30c12623          	sw	a2,780(sp)

00001214 <inst_215>:
    1214:	66666537          	lui	a0,0x66666
    1218:	66650513          	addi	a0,a0,1638 # 66666666 <_end+0x66662b26>
    121c:	0000b5b7          	lui	a1,0xb
    1220:	50458593          	addi	a1,a1,1284 # b504 <_end+0x79c4>
    1224:	00b57633          	and	a2,a0,a1
    1228:	30c12823          	sw	a2,784(sp)

0000122c <inst_216>:
    122c:	66666537          	lui	a0,0x66666
    1230:	66650513          	addi	a0,a0,1638 # 66666666 <_end+0x66662b26>
    1234:	00200593          	li	a1,2
    1238:	00b57633          	and	a2,a0,a1
    123c:	30c12a23          	sw	a2,788(sp)

00001240 <inst_217>:
    1240:	66666537          	lui	a0,0x66666
    1244:	66650513          	addi	a0,a0,1638 # 66666666 <_end+0x66662b26>
    1248:	555555b7          	lui	a1,0x55555
    124c:	55458593          	addi	a1,a1,1364 # 55555554 <_end+0x55551a14>
    1250:	00b57633          	and	a2,a0,a1
    1254:	30c12c23          	sw	a2,792(sp)

00001258 <inst_218>:
    1258:	66666537          	lui	a0,0x66666
    125c:	66650513          	addi	a0,a0,1638 # 66666666 <_end+0x66662b26>
    1260:	00000593          	li	a1,0
    1264:	00b57633          	and	a2,a0,a1
    1268:	30c12e23          	sw	a2,796(sp)

0000126c <inst_219>:
    126c:	66666537          	lui	a0,0x66666
    1270:	66650513          	addi	a0,a0,1638 # 66666666 <_end+0x66662b26>
    1274:	00400593          	li	a1,4
    1278:	00b57633          	and	a2,a0,a1
    127c:	32c12023          	sw	a2,800(sp)

00001280 <inst_220>:
    1280:	66666537          	lui	a0,0x66666
    1284:	66650513          	addi	a0,a0,1638 # 66666666 <_end+0x66662b26>
    1288:	333335b7          	lui	a1,0x33333
    128c:	33258593          	addi	a1,a1,818 # 33333332 <_end+0x3332f7f2>
    1290:	00b57633          	and	a2,a0,a1
    1294:	32c12223          	sw	a2,804(sp)

00001298 <inst_221>:
    1298:	66666537          	lui	a0,0x66666
    129c:	66650513          	addi	a0,a0,1638 # 66666666 <_end+0x66662b26>
    12a0:	666665b7          	lui	a1,0x66666
    12a4:	66558593          	addi	a1,a1,1637 # 66666665 <_end+0x66662b25>
    12a8:	00b57633          	and	a2,a0,a1
    12ac:	32c12423          	sw	a2,808(sp)

000012b0 <inst_222>:
    12b0:	66666537          	lui	a0,0x66666
    12b4:	66650513          	addi	a0,a0,1638 # 66666666 <_end+0x66662b26>
    12b8:	0000b5b7          	lui	a1,0xb
    12bc:	50358593          	addi	a1,a1,1283 # b503 <_end+0x79c3>
    12c0:	00b57633          	and	a2,a0,a1
    12c4:	32c12623          	sw	a2,812(sp)

000012c8 <inst_223>:
    12c8:	66666537          	lui	a0,0x66666
    12cc:	66650513          	addi	a0,a0,1638 # 66666666 <_end+0x66662b26>
    12d0:	555555b7          	lui	a1,0x55555
    12d4:	55658593          	addi	a1,a1,1366 # 55555556 <_end+0x55551a16>
    12d8:	00b57633          	and	a2,a0,a1
    12dc:	32c12823          	sw	a2,816(sp)

000012e0 <inst_224>:
    12e0:	66666537          	lui	a0,0x66666
    12e4:	66650513          	addi	a0,a0,1638 # 66666666 <_end+0x66662b26>
    12e8:	aaaab5b7          	lui	a1,0xaaaab
    12ec:	aab58593          	addi	a1,a1,-1365 # aaaaaaab <_end+0xaaaa6f6b>
    12f0:	00b57633          	and	a2,a0,a1
    12f4:	32c12a23          	sw	a2,820(sp)

000012f8 <inst_225>:
    12f8:	66666537          	lui	a0,0x66666
    12fc:	66650513          	addi	a0,a0,1638 # 66666666 <_end+0x66662b26>
    1300:	00600593          	li	a1,6
    1304:	00b57633          	and	a2,a0,a1
    1308:	32c12c23          	sw	a2,824(sp)

0000130c <inst_226>:
    130c:	66666537          	lui	a0,0x66666
    1310:	66650513          	addi	a0,a0,1638 # 66666666 <_end+0x66662b26>
    1314:	333335b7          	lui	a1,0x33333
    1318:	33458593          	addi	a1,a1,820 # 33333334 <_end+0x3332f7f4>
    131c:	00b57633          	and	a2,a0,a1
    1320:	32c12e23          	sw	a2,828(sp)

00001324 <inst_227>:
    1324:	66666537          	lui	a0,0x66666
    1328:	66650513          	addi	a0,a0,1638 # 66666666 <_end+0x66662b26>
    132c:	666665b7          	lui	a1,0x66666
    1330:	66758593          	addi	a1,a1,1639 # 66666667 <_end+0x66662b27>
    1334:	00b57633          	and	a2,a0,a1
    1338:	34c12023          	sw	a2,832(sp)

0000133c <inst_228>:
    133c:	66666537          	lui	a0,0x66666
    1340:	66650513          	addi	a0,a0,1638 # 66666666 <_end+0x66662b26>
    1344:	ffff55b7          	lui	a1,0xffff5
    1348:	afd58593          	addi	a1,a1,-1283 # ffff4afd <_end+0xffff0fbd>
    134c:	00b57633          	and	a2,a0,a1
    1350:	34c12223          	sw	a2,836(sp)

00001354 <inst_229>:
    1354:	66666537          	lui	a0,0x66666
    1358:	66650513          	addi	a0,a0,1638 # 66666666 <_end+0x66662b26>
    135c:	0000b5b7          	lui	a1,0xb
    1360:	50558593          	addi	a1,a1,1285 # b505 <_end+0x79c5>
    1364:	00b57633          	and	a2,a0,a1
    1368:	34c12423          	sw	a2,840(sp)

0000136c <inst_230>:
    136c:	ffff5537          	lui	a0,0xffff5
    1370:	afc50513          	addi	a0,a0,-1284 # ffff4afc <_end+0xffff0fbc>
    1374:	00300593          	li	a1,3
    1378:	00b57633          	and	a2,a0,a1
    137c:	34c12623          	sw	a2,844(sp)

00001380 <inst_231>:
    1380:	ffff5537          	lui	a0,0xffff5
    1384:	afc50513          	addi	a0,a0,-1284 # ffff4afc <_end+0xffff0fbc>
    1388:	555555b7          	lui	a1,0x55555
    138c:	55558593          	addi	a1,a1,1365 # 55555555 <_end+0x55551a15>
    1390:	00b57633          	and	a2,a0,a1
    1394:	34c12823          	sw	a2,848(sp)

00001398 <inst_232>:
    1398:	ffff5537          	lui	a0,0xffff5
    139c:	afc50513          	addi	a0,a0,-1284 # ffff4afc <_end+0xffff0fbc>
    13a0:	00500593          	li	a1,5
    13a4:	00b57633          	and	a2,a0,a1
    13a8:	34c12a23          	sw	a2,852(sp)

000013ac <inst_233>:
    13ac:	ffff5537          	lui	a0,0xffff5
    13b0:	afc50513          	addi	a0,a0,-1284 # ffff4afc <_end+0xffff0fbc>
    13b4:	333335b7          	lui	a1,0x33333
    13b8:	33358593          	addi	a1,a1,819 # 33333333 <_end+0x3332f7f3>
    13bc:	00b57633          	and	a2,a0,a1
    13c0:	34c12c23          	sw	a2,856(sp)

000013c4 <inst_234>:
    13c4:	ffff5537          	lui	a0,0xffff5
    13c8:	afc50513          	addi	a0,a0,-1284 # ffff4afc <_end+0xffff0fbc>
    13cc:	666665b7          	lui	a1,0x66666
    13d0:	66658593          	addi	a1,a1,1638 # 66666666 <_end+0x66662b26>
    13d4:	00b57633          	and	a2,a0,a1
    13d8:	34c12e23          	sw	a2,860(sp)

000013dc <inst_235>:
    13dc:	ffff5537          	lui	a0,0xffff5
    13e0:	afc50513          	addi	a0,a0,-1284 # ffff4afc <_end+0xffff0fbc>
    13e4:	ffff55b7          	lui	a1,0xffff5
    13e8:	afc58593          	addi	a1,a1,-1284 # ffff4afc <_end+0xffff0fbc>
    13ec:	00b57633          	and	a2,a0,a1
    13f0:	36c12023          	sw	a2,864(sp)

000013f4 <inst_236>:
    13f4:	ffff5537          	lui	a0,0xffff5
    13f8:	afc50513          	addi	a0,a0,-1284 # ffff4afc <_end+0xffff0fbc>
    13fc:	0000b5b7          	lui	a1,0xb
    1400:	50458593          	addi	a1,a1,1284 # b504 <_end+0x79c4>
    1404:	00b57633          	and	a2,a0,a1
    1408:	36c12223          	sw	a2,868(sp)

0000140c <inst_237>:
    140c:	ffff5537          	lui	a0,0xffff5
    1410:	afc50513          	addi	a0,a0,-1284 # ffff4afc <_end+0xffff0fbc>
    1414:	00200593          	li	a1,2
    1418:	00b57633          	and	a2,a0,a1
    141c:	36c12423          	sw	a2,872(sp)

00001420 <inst_238>:
    1420:	ffff5537          	lui	a0,0xffff5
    1424:	afc50513          	addi	a0,a0,-1284 # ffff4afc <_end+0xffff0fbc>
    1428:	555555b7          	lui	a1,0x55555
    142c:	55458593          	addi	a1,a1,1364 # 55555554 <_end+0x55551a14>
    1430:	00b57633          	and	a2,a0,a1
    1434:	36c12623          	sw	a2,876(sp)

00001438 <inst_239>:
    1438:	ffff5537          	lui	a0,0xffff5
    143c:	afc50513          	addi	a0,a0,-1284 # ffff4afc <_end+0xffff0fbc>
    1440:	00000593          	li	a1,0
    1444:	00b57633          	and	a2,a0,a1
    1448:	36c12823          	sw	a2,880(sp)

0000144c <inst_240>:
    144c:	ffff5537          	lui	a0,0xffff5
    1450:	afc50513          	addi	a0,a0,-1284 # ffff4afc <_end+0xffff0fbc>
    1454:	00400593          	li	a1,4
    1458:	00b57633          	and	a2,a0,a1
    145c:	36c12a23          	sw	a2,884(sp)

00001460 <inst_241>:
    1460:	ffff5537          	lui	a0,0xffff5
    1464:	afc50513          	addi	a0,a0,-1284 # ffff4afc <_end+0xffff0fbc>
    1468:	333335b7          	lui	a1,0x33333
    146c:	33258593          	addi	a1,a1,818 # 33333332 <_end+0x3332f7f2>
    1470:	00b57633          	and	a2,a0,a1
    1474:	36c12c23          	sw	a2,888(sp)

00001478 <inst_242>:
    1478:	ffff5537          	lui	a0,0xffff5
    147c:	afc50513          	addi	a0,a0,-1284 # ffff4afc <_end+0xffff0fbc>
    1480:	666665b7          	lui	a1,0x66666
    1484:	66558593          	addi	a1,a1,1637 # 66666665 <_end+0x66662b25>
    1488:	00b57633          	and	a2,a0,a1
    148c:	36c12e23          	sw	a2,892(sp)

00001490 <inst_243>:
    1490:	ffff5537          	lui	a0,0xffff5
    1494:	afc50513          	addi	a0,a0,-1284 # ffff4afc <_end+0xffff0fbc>
    1498:	0000b5b7          	lui	a1,0xb
    149c:	50358593          	addi	a1,a1,1283 # b503 <_end+0x79c3>
    14a0:	00b57633          	and	a2,a0,a1
    14a4:	38c12023          	sw	a2,896(sp)

000014a8 <inst_244>:
    14a8:	ffff5537          	lui	a0,0xffff5
    14ac:	afc50513          	addi	a0,a0,-1284 # ffff4afc <_end+0xffff0fbc>
    14b0:	555555b7          	lui	a1,0x55555
    14b4:	55658593          	addi	a1,a1,1366 # 55555556 <_end+0x55551a16>
    14b8:	00b57633          	and	a2,a0,a1
    14bc:	38c12223          	sw	a2,900(sp)

000014c0 <inst_245>:
    14c0:	ffff5537          	lui	a0,0xffff5
    14c4:	afc50513          	addi	a0,a0,-1284 # ffff4afc <_end+0xffff0fbc>
    14c8:	aaaab5b7          	lui	a1,0xaaaab
    14cc:	aab58593          	addi	a1,a1,-1365 # aaaaaaab <_end+0xaaaa6f6b>
    14d0:	00b57633          	and	a2,a0,a1
    14d4:	38c12423          	sw	a2,904(sp)

000014d8 <inst_246>:
    14d8:	ffff5537          	lui	a0,0xffff5
    14dc:	afc50513          	addi	a0,a0,-1284 # ffff4afc <_end+0xffff0fbc>
    14e0:	00600593          	li	a1,6
    14e4:	00b57633          	and	a2,a0,a1
    14e8:	38c12623          	sw	a2,908(sp)

000014ec <inst_247>:
    14ec:	ffff5537          	lui	a0,0xffff5
    14f0:	afc50513          	addi	a0,a0,-1284 # ffff4afc <_end+0xffff0fbc>
    14f4:	333335b7          	lui	a1,0x33333
    14f8:	33458593          	addi	a1,a1,820 # 33333334 <_end+0x3332f7f4>
    14fc:	00b57633          	and	a2,a0,a1
    1500:	38c12823          	sw	a2,912(sp)

00001504 <inst_248>:
    1504:	ffff5537          	lui	a0,0xffff5
    1508:	afc50513          	addi	a0,a0,-1284 # ffff4afc <_end+0xffff0fbc>
    150c:	666665b7          	lui	a1,0x66666
    1510:	66758593          	addi	a1,a1,1639 # 66666667 <_end+0x66662b27>
    1514:	00b57633          	and	a2,a0,a1
    1518:	38c12a23          	sw	a2,916(sp)

0000151c <inst_249>:
    151c:	ffff5537          	lui	a0,0xffff5
    1520:	afc50513          	addi	a0,a0,-1284 # ffff4afc <_end+0xffff0fbc>
    1524:	ffff55b7          	lui	a1,0xffff5
    1528:	afd58593          	addi	a1,a1,-1283 # ffff4afd <_end+0xffff0fbd>
    152c:	00b57633          	and	a2,a0,a1
    1530:	38c12c23          	sw	a2,920(sp)

00001534 <inst_250>:
    1534:	ffff5537          	lui	a0,0xffff5
    1538:	afc50513          	addi	a0,a0,-1284 # ffff4afc <_end+0xffff0fbc>
    153c:	0000b5b7          	lui	a1,0xb
    1540:	50558593          	addi	a1,a1,1285 # b505 <_end+0x79c5>
    1544:	00b57633          	and	a2,a0,a1
    1548:	38c12e23          	sw	a2,924(sp)

0000154c <inst_251>:
    154c:	0000b537          	lui	a0,0xb
    1550:	50450513          	addi	a0,a0,1284 # b504 <_end+0x79c4>
    1554:	00300593          	li	a1,3
    1558:	00b57633          	and	a2,a0,a1
    155c:	3ac12023          	sw	a2,928(sp)

00001560 <inst_252>:
    1560:	0000b537          	lui	a0,0xb
    1564:	50450513          	addi	a0,a0,1284 # b504 <_end+0x79c4>
    1568:	555555b7          	lui	a1,0x55555
    156c:	55558593          	addi	a1,a1,1365 # 55555555 <_end+0x55551a15>
    1570:	00b57633          	and	a2,a0,a1
    1574:	3ac12223          	sw	a2,932(sp)

00001578 <inst_253>:
    1578:	0000b537          	lui	a0,0xb
    157c:	50450513          	addi	a0,a0,1284 # b504 <_end+0x79c4>
    1580:	aaaab5b7          	lui	a1,0xaaaab
    1584:	aaa58593          	addi	a1,a1,-1366 # aaaaaaaa <_end+0xaaaa6f6a>
    1588:	00b57633          	and	a2,a0,a1
    158c:	3ac12423          	sw	a2,936(sp)

00001590 <inst_254>:
    1590:	0000b537          	lui	a0,0xb
    1594:	50450513          	addi	a0,a0,1284 # b504 <_end+0x79c4>
    1598:	00500593          	li	a1,5
    159c:	00b57633          	and	a2,a0,a1
    15a0:	3ac12623          	sw	a2,940(sp)

000015a4 <inst_255>:
    15a4:	0000b537          	lui	a0,0xb
    15a8:	50450513          	addi	a0,a0,1284 # b504 <_end+0x79c4>
    15ac:	333335b7          	lui	a1,0x33333
    15b0:	33358593          	addi	a1,a1,819 # 33333333 <_end+0x3332f7f3>
    15b4:	00b57633          	and	a2,a0,a1
    15b8:	3ac12823          	sw	a2,944(sp)

000015bc <inst_256>:
    15bc:	0000b537          	lui	a0,0xb
    15c0:	50450513          	addi	a0,a0,1284 # b504 <_end+0x79c4>
    15c4:	666665b7          	lui	a1,0x66666
    15c8:	66658593          	addi	a1,a1,1638 # 66666666 <_end+0x66662b26>
    15cc:	00b57633          	and	a2,a0,a1
    15d0:	3ac12a23          	sw	a2,948(sp)

000015d4 <inst_257>:
    15d4:	0000b537          	lui	a0,0xb
    15d8:	50450513          	addi	a0,a0,1284 # b504 <_end+0x79c4>
    15dc:	ffff55b7          	lui	a1,0xffff5
    15e0:	afc58593          	addi	a1,a1,-1284 # ffff4afc <_end+0xffff0fbc>
    15e4:	00b57633          	and	a2,a0,a1
    15e8:	3ac12c23          	sw	a2,952(sp)

000015ec <inst_258>:
    15ec:	0000b537          	lui	a0,0xb
    15f0:	50450513          	addi	a0,a0,1284 # b504 <_end+0x79c4>
    15f4:	0000b5b7          	lui	a1,0xb
    15f8:	50458593          	addi	a1,a1,1284 # b504 <_end+0x79c4>
    15fc:	00b57633          	and	a2,a0,a1
    1600:	3ac12e23          	sw	a2,956(sp)

00001604 <inst_259>:
    1604:	0000b537          	lui	a0,0xb
    1608:	50450513          	addi	a0,a0,1284 # b504 <_end+0x79c4>
    160c:	00200593          	li	a1,2
    1610:	00b57633          	and	a2,a0,a1
    1614:	3cc12023          	sw	a2,960(sp)

00001618 <inst_260>:
    1618:	0000b537          	lui	a0,0xb
    161c:	50450513          	addi	a0,a0,1284 # b504 <_end+0x79c4>
    1620:	555555b7          	lui	a1,0x55555
    1624:	55458593          	addi	a1,a1,1364 # 55555554 <_end+0x55551a14>
    1628:	00b57633          	and	a2,a0,a1
    162c:	3cc12223          	sw	a2,964(sp)

00001630 <inst_261>:
    1630:	0000b537          	lui	a0,0xb
    1634:	50450513          	addi	a0,a0,1284 # b504 <_end+0x79c4>
    1638:	00000593          	li	a1,0
    163c:	00b57633          	and	a2,a0,a1
    1640:	3cc12423          	sw	a2,968(sp)

00001644 <inst_262>:
    1644:	0000b537          	lui	a0,0xb
    1648:	50450513          	addi	a0,a0,1284 # b504 <_end+0x79c4>
    164c:	00400593          	li	a1,4
    1650:	00b57633          	and	a2,a0,a1
    1654:	3cc12623          	sw	a2,972(sp)

00001658 <inst_263>:
    1658:	0000b537          	lui	a0,0xb
    165c:	50450513          	addi	a0,a0,1284 # b504 <_end+0x79c4>
    1660:	333335b7          	lui	a1,0x33333
    1664:	33258593          	addi	a1,a1,818 # 33333332 <_end+0x3332f7f2>
    1668:	00b57633          	and	a2,a0,a1
    166c:	3cc12823          	sw	a2,976(sp)

00001670 <inst_264>:
    1670:	0000b537          	lui	a0,0xb
    1674:	50450513          	addi	a0,a0,1284 # b504 <_end+0x79c4>
    1678:	666665b7          	lui	a1,0x66666
    167c:	66558593          	addi	a1,a1,1637 # 66666665 <_end+0x66662b25>
    1680:	00b57633          	and	a2,a0,a1
    1684:	3cc12a23          	sw	a2,980(sp)

00001688 <inst_265>:
    1688:	0000b537          	lui	a0,0xb
    168c:	50450513          	addi	a0,a0,1284 # b504 <_end+0x79c4>
    1690:	0000b5b7          	lui	a1,0xb
    1694:	50358593          	addi	a1,a1,1283 # b503 <_end+0x79c3>
    1698:	00b57633          	and	a2,a0,a1
    169c:	3cc12c23          	sw	a2,984(sp)

000016a0 <inst_266>:
    16a0:	0000b537          	lui	a0,0xb
    16a4:	50450513          	addi	a0,a0,1284 # b504 <_end+0x79c4>
    16a8:	555555b7          	lui	a1,0x55555
    16ac:	55658593          	addi	a1,a1,1366 # 55555556 <_end+0x55551a16>
    16b0:	00b57633          	and	a2,a0,a1
    16b4:	3cc12e23          	sw	a2,988(sp)

000016b8 <inst_267>:
    16b8:	0000b537          	lui	a0,0xb
    16bc:	50450513          	addi	a0,a0,1284 # b504 <_end+0x79c4>
    16c0:	aaaab5b7          	lui	a1,0xaaaab
    16c4:	aab58593          	addi	a1,a1,-1365 # aaaaaaab <_end+0xaaaa6f6b>
    16c8:	00b57633          	and	a2,a0,a1
    16cc:	3ec12023          	sw	a2,992(sp)

000016d0 <inst_268>:
    16d0:	0000b537          	lui	a0,0xb
    16d4:	50450513          	addi	a0,a0,1284 # b504 <_end+0x79c4>
    16d8:	00600593          	li	a1,6
    16dc:	00b57633          	and	a2,a0,a1
    16e0:	3ec12223          	sw	a2,996(sp)

000016e4 <inst_269>:
    16e4:	0000b537          	lui	a0,0xb
    16e8:	50450513          	addi	a0,a0,1284 # b504 <_end+0x79c4>
    16ec:	333335b7          	lui	a1,0x33333
    16f0:	33458593          	addi	a1,a1,820 # 33333334 <_end+0x3332f7f4>
    16f4:	00b57633          	and	a2,a0,a1
    16f8:	3ec12423          	sw	a2,1000(sp)

000016fc <inst_270>:
    16fc:	0000b537          	lui	a0,0xb
    1700:	50450513          	addi	a0,a0,1284 # b504 <_end+0x79c4>
    1704:	666665b7          	lui	a1,0x66666
    1708:	66758593          	addi	a1,a1,1639 # 66666667 <_end+0x66662b27>
    170c:	00b57633          	and	a2,a0,a1
    1710:	3ec12623          	sw	a2,1004(sp)

00001714 <inst_271>:
    1714:	0000b537          	lui	a0,0xb
    1718:	50450513          	addi	a0,a0,1284 # b504 <_end+0x79c4>
    171c:	ffff55b7          	lui	a1,0xffff5
    1720:	afd58593          	addi	a1,a1,-1283 # ffff4afd <_end+0xffff0fbd>
    1724:	00b57633          	and	a2,a0,a1
    1728:	3ec12823          	sw	a2,1008(sp)

0000172c <inst_272>:
    172c:	0000b537          	lui	a0,0xb
    1730:	50450513          	addi	a0,a0,1284 # b504 <_end+0x79c4>
    1734:	0000b5b7          	lui	a1,0xb
    1738:	50558593          	addi	a1,a1,1285 # b505 <_end+0x79c5>
    173c:	00b57633          	and	a2,a0,a1
    1740:	3ec12a23          	sw	a2,1012(sp)

00001744 <inst_273>:
    1744:	00200513          	li	a0,2
    1748:	00300593          	li	a1,3
    174c:	00b57633          	and	a2,a0,a1
    1750:	3ec12c23          	sw	a2,1016(sp)

00001754 <inst_274>:
    1754:	00200513          	li	a0,2
    1758:	555555b7          	lui	a1,0x55555
    175c:	55558593          	addi	a1,a1,1365 # 55555555 <_end+0x55551a15>
    1760:	00b57633          	and	a2,a0,a1
    1764:	3ec12e23          	sw	a2,1020(sp)

00001768 <inst_275>:
    1768:	00200513          	li	a0,2
    176c:	aaaab5b7          	lui	a1,0xaaaab
    1770:	aaa58593          	addi	a1,a1,-1366 # aaaaaaaa <_end+0xaaaa6f6a>
    1774:	00b57633          	and	a2,a0,a1
    1778:	40c12023          	sw	a2,1024(sp)

0000177c <inst_276>:
    177c:	00200513          	li	a0,2
    1780:	00500593          	li	a1,5
    1784:	00b57633          	and	a2,a0,a1
    1788:	40c12223          	sw	a2,1028(sp)

0000178c <inst_277>:
    178c:	00200513          	li	a0,2
    1790:	333335b7          	lui	a1,0x33333
    1794:	33358593          	addi	a1,a1,819 # 33333333 <_end+0x3332f7f3>
    1798:	00b57633          	and	a2,a0,a1
    179c:	40c12423          	sw	a2,1032(sp)

000017a0 <inst_278>:
    17a0:	00200513          	li	a0,2
    17a4:	666665b7          	lui	a1,0x66666
    17a8:	66658593          	addi	a1,a1,1638 # 66666666 <_end+0x66662b26>
    17ac:	00b57633          	and	a2,a0,a1
    17b0:	40c12623          	sw	a2,1036(sp)

000017b4 <inst_279>:
    17b4:	00200513          	li	a0,2
    17b8:	ffff55b7          	lui	a1,0xffff5
    17bc:	afc58593          	addi	a1,a1,-1284 # ffff4afc <_end+0xffff0fbc>
    17c0:	00b57633          	and	a2,a0,a1
    17c4:	40c12823          	sw	a2,1040(sp)

000017c8 <inst_280>:
    17c8:	00200513          	li	a0,2
    17cc:	0000b5b7          	lui	a1,0xb
    17d0:	50458593          	addi	a1,a1,1284 # b504 <_end+0x79c4>
    17d4:	00b57633          	and	a2,a0,a1
    17d8:	40c12a23          	sw	a2,1044(sp)

000017dc <inst_281>:
    17dc:	00200513          	li	a0,2
    17e0:	00200593          	li	a1,2
    17e4:	00b57633          	and	a2,a0,a1
    17e8:	40c12c23          	sw	a2,1048(sp)

000017ec <inst_282>:
    17ec:	00200513          	li	a0,2
    17f0:	555555b7          	lui	a1,0x55555
    17f4:	55458593          	addi	a1,a1,1364 # 55555554 <_end+0x55551a14>
    17f8:	00b57633          	and	a2,a0,a1
    17fc:	40c12e23          	sw	a2,1052(sp)

00001800 <inst_283>:
    1800:	00200513          	li	a0,2
    1804:	00000593          	li	a1,0
    1808:	00b57633          	and	a2,a0,a1
    180c:	42c12023          	sw	a2,1056(sp)

00001810 <inst_284>:
    1810:	00200513          	li	a0,2
    1814:	00400593          	li	a1,4
    1818:	00b57633          	and	a2,a0,a1
    181c:	42c12223          	sw	a2,1060(sp)

00001820 <inst_285>:
    1820:	00200513          	li	a0,2
    1824:	333335b7          	lui	a1,0x33333
    1828:	33258593          	addi	a1,a1,818 # 33333332 <_end+0x3332f7f2>
    182c:	00b57633          	and	a2,a0,a1
    1830:	42c12423          	sw	a2,1064(sp)

00001834 <inst_286>:
    1834:	00200513          	li	a0,2
    1838:	666665b7          	lui	a1,0x66666
    183c:	66558593          	addi	a1,a1,1637 # 66666665 <_end+0x66662b25>
    1840:	00b57633          	and	a2,a0,a1
    1844:	42c12623          	sw	a2,1068(sp)

00001848 <inst_287>:
    1848:	00200513          	li	a0,2
    184c:	0000b5b7          	lui	a1,0xb
    1850:	50358593          	addi	a1,a1,1283 # b503 <_end+0x79c3>
    1854:	00b57633          	and	a2,a0,a1
    1858:	42c12823          	sw	a2,1072(sp)

0000185c <inst_288>:
    185c:	00200513          	li	a0,2
    1860:	555555b7          	lui	a1,0x55555
    1864:	55658593          	addi	a1,a1,1366 # 55555556 <_end+0x55551a16>
    1868:	00b57633          	and	a2,a0,a1
    186c:	42c12a23          	sw	a2,1076(sp)

00001870 <inst_289>:
    1870:	00200513          	li	a0,2
    1874:	aaaab5b7          	lui	a1,0xaaaab
    1878:	aab58593          	addi	a1,a1,-1365 # aaaaaaab <_end+0xaaaa6f6b>
    187c:	00b57633          	and	a2,a0,a1
    1880:	42c12c23          	sw	a2,1080(sp)

00001884 <inst_290>:
    1884:	00200513          	li	a0,2
    1888:	00600593          	li	a1,6
    188c:	00b57633          	and	a2,a0,a1
    1890:	42c12e23          	sw	a2,1084(sp)

00001894 <inst_291>:
    1894:	00200513          	li	a0,2
    1898:	333335b7          	lui	a1,0x33333
    189c:	33458593          	addi	a1,a1,820 # 33333334 <_end+0x3332f7f4>
    18a0:	00b57633          	and	a2,a0,a1
    18a4:	44c12023          	sw	a2,1088(sp)

000018a8 <inst_292>:
    18a8:	00200513          	li	a0,2
    18ac:	666665b7          	lui	a1,0x66666
    18b0:	66758593          	addi	a1,a1,1639 # 66666667 <_end+0x66662b27>
    18b4:	00b57633          	and	a2,a0,a1
    18b8:	44c12223          	sw	a2,1092(sp)

000018bc <inst_293>:
    18bc:	00200513          	li	a0,2
    18c0:	ffff55b7          	lui	a1,0xffff5
    18c4:	afd58593          	addi	a1,a1,-1283 # ffff4afd <_end+0xffff0fbd>
    18c8:	00b57633          	and	a2,a0,a1
    18cc:	44c12423          	sw	a2,1096(sp)

000018d0 <inst_294>:
    18d0:	00200513          	li	a0,2
    18d4:	0000b5b7          	lui	a1,0xb
    18d8:	50558593          	addi	a1,a1,1285 # b505 <_end+0x79c5>
    18dc:	00b57633          	and	a2,a0,a1
    18e0:	44c12623          	sw	a2,1100(sp)

000018e4 <inst_295>:
    18e4:	55555537          	lui	a0,0x55555
    18e8:	55450513          	addi	a0,a0,1364 # 55555554 <_end+0x55551a14>
    18ec:	00300593          	li	a1,3
    18f0:	00b57633          	and	a2,a0,a1
    18f4:	44c12823          	sw	a2,1104(sp)

000018f8 <inst_296>:
    18f8:	55555537          	lui	a0,0x55555
    18fc:	55450513          	addi	a0,a0,1364 # 55555554 <_end+0x55551a14>
    1900:	555555b7          	lui	a1,0x55555
    1904:	55558593          	addi	a1,a1,1365 # 55555555 <_end+0x55551a15>
    1908:	00b57633          	and	a2,a0,a1
    190c:	44c12a23          	sw	a2,1108(sp)

00001910 <inst_297>:
    1910:	55555537          	lui	a0,0x55555
    1914:	55450513          	addi	a0,a0,1364 # 55555554 <_end+0x55551a14>
    1918:	aaaab5b7          	lui	a1,0xaaaab
    191c:	aaa58593          	addi	a1,a1,-1366 # aaaaaaaa <_end+0xaaaa6f6a>
    1920:	00b57633          	and	a2,a0,a1
    1924:	44c12c23          	sw	a2,1112(sp)

00001928 <inst_298>:
    1928:	55555537          	lui	a0,0x55555
    192c:	55450513          	addi	a0,a0,1364 # 55555554 <_end+0x55551a14>
    1930:	00500593          	li	a1,5
    1934:	00b57633          	and	a2,a0,a1
    1938:	44c12e23          	sw	a2,1116(sp)

0000193c <inst_299>:
    193c:	55555537          	lui	a0,0x55555
    1940:	55450513          	addi	a0,a0,1364 # 55555554 <_end+0x55551a14>
    1944:	333335b7          	lui	a1,0x33333
    1948:	33358593          	addi	a1,a1,819 # 33333333 <_end+0x3332f7f3>
    194c:	00b57633          	and	a2,a0,a1
    1950:	46c12023          	sw	a2,1120(sp)

00001954 <inst_300>:
    1954:	55555537          	lui	a0,0x55555
    1958:	55450513          	addi	a0,a0,1364 # 55555554 <_end+0x55551a14>
    195c:	666665b7          	lui	a1,0x66666
    1960:	66658593          	addi	a1,a1,1638 # 66666666 <_end+0x66662b26>
    1964:	00b57633          	and	a2,a0,a1
    1968:	46c12223          	sw	a2,1124(sp)

0000196c <inst_301>:
    196c:	55555537          	lui	a0,0x55555
    1970:	55450513          	addi	a0,a0,1364 # 55555554 <_end+0x55551a14>
    1974:	ffff55b7          	lui	a1,0xffff5
    1978:	afc58593          	addi	a1,a1,-1284 # ffff4afc <_end+0xffff0fbc>
    197c:	00b57633          	and	a2,a0,a1
    1980:	46c12423          	sw	a2,1128(sp)

00001984 <inst_302>:
    1984:	55555537          	lui	a0,0x55555
    1988:	55450513          	addi	a0,a0,1364 # 55555554 <_end+0x55551a14>
    198c:	0000b5b7          	lui	a1,0xb
    1990:	50458593          	addi	a1,a1,1284 # b504 <_end+0x79c4>
    1994:	00b57633          	and	a2,a0,a1
    1998:	46c12623          	sw	a2,1132(sp)

0000199c <inst_303>:
    199c:	55555537          	lui	a0,0x55555
    19a0:	55450513          	addi	a0,a0,1364 # 55555554 <_end+0x55551a14>
    19a4:	00200593          	li	a1,2
    19a8:	00b57633          	and	a2,a0,a1
    19ac:	46c12823          	sw	a2,1136(sp)

000019b0 <inst_304>:
    19b0:	55555537          	lui	a0,0x55555
    19b4:	55450513          	addi	a0,a0,1364 # 55555554 <_end+0x55551a14>
    19b8:	555555b7          	lui	a1,0x55555
    19bc:	55458593          	addi	a1,a1,1364 # 55555554 <_end+0x55551a14>
    19c0:	00b57633          	and	a2,a0,a1
    19c4:	46c12a23          	sw	a2,1140(sp)

000019c8 <inst_305>:
    19c8:	55555537          	lui	a0,0x55555
    19cc:	55450513          	addi	a0,a0,1364 # 55555554 <_end+0x55551a14>
    19d0:	00000593          	li	a1,0
    19d4:	00b57633          	and	a2,a0,a1
    19d8:	46c12c23          	sw	a2,1144(sp)

000019dc <inst_306>:
    19dc:	55555537          	lui	a0,0x55555
    19e0:	55450513          	addi	a0,a0,1364 # 55555554 <_end+0x55551a14>
    19e4:	00400593          	li	a1,4
    19e8:	00b57633          	and	a2,a0,a1
    19ec:	46c12e23          	sw	a2,1148(sp)

000019f0 <inst_307>:
    19f0:	55555537          	lui	a0,0x55555
    19f4:	55450513          	addi	a0,a0,1364 # 55555554 <_end+0x55551a14>
    19f8:	333335b7          	lui	a1,0x33333
    19fc:	33258593          	addi	a1,a1,818 # 33333332 <_end+0x3332f7f2>
    1a00:	00b57633          	and	a2,a0,a1
    1a04:	48c12023          	sw	a2,1152(sp)

00001a08 <inst_308>:
    1a08:	55555537          	lui	a0,0x55555
    1a0c:	55450513          	addi	a0,a0,1364 # 55555554 <_end+0x55551a14>
    1a10:	666665b7          	lui	a1,0x66666
    1a14:	66558593          	addi	a1,a1,1637 # 66666665 <_end+0x66662b25>
    1a18:	00b57633          	and	a2,a0,a1
    1a1c:	48c12223          	sw	a2,1156(sp)

00001a20 <inst_309>:
    1a20:	55555537          	lui	a0,0x55555
    1a24:	55450513          	addi	a0,a0,1364 # 55555554 <_end+0x55551a14>
    1a28:	0000b5b7          	lui	a1,0xb
    1a2c:	50358593          	addi	a1,a1,1283 # b503 <_end+0x79c3>
    1a30:	00b57633          	and	a2,a0,a1
    1a34:	48c12423          	sw	a2,1160(sp)

00001a38 <inst_310>:
    1a38:	55555537          	lui	a0,0x55555
    1a3c:	55450513          	addi	a0,a0,1364 # 55555554 <_end+0x55551a14>
    1a40:	555555b7          	lui	a1,0x55555
    1a44:	55658593          	addi	a1,a1,1366 # 55555556 <_end+0x55551a16>
    1a48:	00b57633          	and	a2,a0,a1
    1a4c:	48c12623          	sw	a2,1164(sp)

00001a50 <inst_311>:
    1a50:	55555537          	lui	a0,0x55555
    1a54:	55450513          	addi	a0,a0,1364 # 55555554 <_end+0x55551a14>
    1a58:	aaaab5b7          	lui	a1,0xaaaab
    1a5c:	aab58593          	addi	a1,a1,-1365 # aaaaaaab <_end+0xaaaa6f6b>
    1a60:	00b57633          	and	a2,a0,a1
    1a64:	48c12823          	sw	a2,1168(sp)

00001a68 <inst_312>:
    1a68:	55555537          	lui	a0,0x55555
    1a6c:	55450513          	addi	a0,a0,1364 # 55555554 <_end+0x55551a14>
    1a70:	00600593          	li	a1,6
    1a74:	00b57633          	and	a2,a0,a1
    1a78:	48c12a23          	sw	a2,1172(sp)

00001a7c <inst_313>:
    1a7c:	55555537          	lui	a0,0x55555
    1a80:	55450513          	addi	a0,a0,1364 # 55555554 <_end+0x55551a14>
    1a84:	333335b7          	lui	a1,0x33333
    1a88:	33458593          	addi	a1,a1,820 # 33333334 <_end+0x3332f7f4>
    1a8c:	00b57633          	and	a2,a0,a1
    1a90:	48c12c23          	sw	a2,1176(sp)

00001a94 <inst_314>:
    1a94:	55555537          	lui	a0,0x55555
    1a98:	55450513          	addi	a0,a0,1364 # 55555554 <_end+0x55551a14>
    1a9c:	666665b7          	lui	a1,0x66666
    1aa0:	66758593          	addi	a1,a1,1639 # 66666667 <_end+0x66662b27>
    1aa4:	00b57633          	and	a2,a0,a1
    1aa8:	48c12e23          	sw	a2,1180(sp)

00001aac <inst_315>:
    1aac:	55555537          	lui	a0,0x55555
    1ab0:	55450513          	addi	a0,a0,1364 # 55555554 <_end+0x55551a14>
    1ab4:	ffff55b7          	lui	a1,0xffff5
    1ab8:	afd58593          	addi	a1,a1,-1283 # ffff4afd <_end+0xffff0fbd>
    1abc:	00b57633          	and	a2,a0,a1
    1ac0:	4ac12023          	sw	a2,1184(sp)

00001ac4 <inst_316>:
    1ac4:	55555537          	lui	a0,0x55555
    1ac8:	55450513          	addi	a0,a0,1364 # 55555554 <_end+0x55551a14>
    1acc:	0000b5b7          	lui	a1,0xb
    1ad0:	50558593          	addi	a1,a1,1285 # b505 <_end+0x79c5>
    1ad4:	00b57633          	and	a2,a0,a1
    1ad8:	4ac12223          	sw	a2,1188(sp)

00001adc <inst_317>:
    1adc:	00000513          	li	a0,0
    1ae0:	00300593          	li	a1,3
    1ae4:	00b57633          	and	a2,a0,a1
    1ae8:	4ac12423          	sw	a2,1192(sp)

00001aec <inst_318>:
    1aec:	00000513          	li	a0,0
    1af0:	555555b7          	lui	a1,0x55555
    1af4:	55558593          	addi	a1,a1,1365 # 55555555 <_end+0x55551a15>
    1af8:	00b57633          	and	a2,a0,a1
    1afc:	4ac12623          	sw	a2,1196(sp)

00001b00 <inst_319>:
    1b00:	00000513          	li	a0,0
    1b04:	aaaab5b7          	lui	a1,0xaaaab
    1b08:	aaa58593          	addi	a1,a1,-1366 # aaaaaaaa <_end+0xaaaa6f6a>
    1b0c:	00b57633          	and	a2,a0,a1
    1b10:	4ac12823          	sw	a2,1200(sp)

00001b14 <inst_320>:
    1b14:	00000513          	li	a0,0
    1b18:	00500593          	li	a1,5
    1b1c:	00b57633          	and	a2,a0,a1
    1b20:	4ac12a23          	sw	a2,1204(sp)

00001b24 <inst_321>:
    1b24:	00000513          	li	a0,0
    1b28:	333335b7          	lui	a1,0x33333
    1b2c:	33358593          	addi	a1,a1,819 # 33333333 <_end+0x3332f7f3>
    1b30:	00b57633          	and	a2,a0,a1
    1b34:	4ac12c23          	sw	a2,1208(sp)

00001b38 <inst_322>:
    1b38:	00000513          	li	a0,0
    1b3c:	666665b7          	lui	a1,0x66666
    1b40:	66658593          	addi	a1,a1,1638 # 66666666 <_end+0x66662b26>
    1b44:	00b57633          	and	a2,a0,a1
    1b48:	4ac12e23          	sw	a2,1212(sp)

00001b4c <inst_323>:
    1b4c:	00000513          	li	a0,0
    1b50:	ffff55b7          	lui	a1,0xffff5
    1b54:	afc58593          	addi	a1,a1,-1284 # ffff4afc <_end+0xffff0fbc>
    1b58:	00b57633          	and	a2,a0,a1
    1b5c:	4cc12023          	sw	a2,1216(sp)

00001b60 <inst_324>:
    1b60:	00000513          	li	a0,0
    1b64:	0000b5b7          	lui	a1,0xb
    1b68:	50458593          	addi	a1,a1,1284 # b504 <_end+0x79c4>
    1b6c:	00b57633          	and	a2,a0,a1
    1b70:	4cc12223          	sw	a2,1220(sp)

00001b74 <inst_325>:
    1b74:	00000513          	li	a0,0
    1b78:	00200593          	li	a1,2
    1b7c:	00b57633          	and	a2,a0,a1
    1b80:	4cc12423          	sw	a2,1224(sp)

00001b84 <inst_326>:
    1b84:	aaaab537          	lui	a0,0xaaaab
    1b88:	aab50513          	addi	a0,a0,-1365 # aaaaaaab <_end+0xaaaa6f6b>
    1b8c:	aaaab5b7          	lui	a1,0xaaaab
    1b90:	aab58593          	addi	a1,a1,-1365 # aaaaaaab <_end+0xaaaa6f6b>
    1b94:	00b57633          	and	a2,a0,a1
    1b98:	4cc12623          	sw	a2,1228(sp)

00001b9c <inst_327>:
    1b9c:	aaaab537          	lui	a0,0xaaaab
    1ba0:	aab50513          	addi	a0,a0,-1365 # aaaaaaab <_end+0xaaaa6f6b>
    1ba4:	00600593          	li	a1,6
    1ba8:	00b57633          	and	a2,a0,a1
    1bac:	4cc12823          	sw	a2,1232(sp)

00001bb0 <inst_328>:
    1bb0:	aaaab537          	lui	a0,0xaaaab
    1bb4:	aab50513          	addi	a0,a0,-1365 # aaaaaaab <_end+0xaaaa6f6b>
    1bb8:	333335b7          	lui	a1,0x33333
    1bbc:	33458593          	addi	a1,a1,820 # 33333334 <_end+0x3332f7f4>
    1bc0:	00b57633          	and	a2,a0,a1
    1bc4:	4cc12a23          	sw	a2,1236(sp)

00001bc8 <inst_329>:
    1bc8:	aaaab537          	lui	a0,0xaaaab
    1bcc:	aab50513          	addi	a0,a0,-1365 # aaaaaaab <_end+0xaaaa6f6b>
    1bd0:	666665b7          	lui	a1,0x66666
    1bd4:	66758593          	addi	a1,a1,1639 # 66666667 <_end+0x66662b27>
    1bd8:	00b57633          	and	a2,a0,a1
    1bdc:	4cc12c23          	sw	a2,1240(sp)

00001be0 <inst_330>:
    1be0:	aaaab537          	lui	a0,0xaaaab
    1be4:	aab50513          	addi	a0,a0,-1365 # aaaaaaab <_end+0xaaaa6f6b>
    1be8:	ffff55b7          	lui	a1,0xffff5
    1bec:	afd58593          	addi	a1,a1,-1283 # ffff4afd <_end+0xffff0fbd>
    1bf0:	00b57633          	and	a2,a0,a1
    1bf4:	4cc12e23          	sw	a2,1244(sp)

00001bf8 <inst_331>:
    1bf8:	aaaab537          	lui	a0,0xaaaab
    1bfc:	aab50513          	addi	a0,a0,-1365 # aaaaaaab <_end+0xaaaa6f6b>
    1c00:	0000b5b7          	lui	a1,0xb
    1c04:	50558593          	addi	a1,a1,1285 # b505 <_end+0x79c5>
    1c08:	00b57633          	and	a2,a0,a1
    1c0c:	4ec12023          	sw	a2,1248(sp)

00001c10 <inst_332>:
    1c10:	00600513          	li	a0,6
    1c14:	00300593          	li	a1,3
    1c18:	00b57633          	and	a2,a0,a1
    1c1c:	4ec12223          	sw	a2,1252(sp)

00001c20 <inst_333>:
    1c20:	00600513          	li	a0,6
    1c24:	555555b7          	lui	a1,0x55555
    1c28:	55558593          	addi	a1,a1,1365 # 55555555 <_end+0x55551a15>
    1c2c:	00b57633          	and	a2,a0,a1
    1c30:	4ec12423          	sw	a2,1256(sp)

00001c34 <inst_334>:
    1c34:	00600513          	li	a0,6
    1c38:	aaaab5b7          	lui	a1,0xaaaab
    1c3c:	aaa58593          	addi	a1,a1,-1366 # aaaaaaaa <_end+0xaaaa6f6a>
    1c40:	00b57633          	and	a2,a0,a1
    1c44:	4ec12623          	sw	a2,1260(sp)

00001c48 <inst_335>:
    1c48:	00600513          	li	a0,6
    1c4c:	00500593          	li	a1,5
    1c50:	00b57633          	and	a2,a0,a1
    1c54:	4ec12823          	sw	a2,1264(sp)

00001c58 <inst_336>:
    1c58:	00600513          	li	a0,6
    1c5c:	333335b7          	lui	a1,0x33333
    1c60:	33358593          	addi	a1,a1,819 # 33333333 <_end+0x3332f7f3>
    1c64:	00b57633          	and	a2,a0,a1
    1c68:	4ec12a23          	sw	a2,1268(sp)

00001c6c <inst_337>:
    1c6c:	00600513          	li	a0,6
    1c70:	666665b7          	lui	a1,0x66666
    1c74:	66658593          	addi	a1,a1,1638 # 66666666 <_end+0x66662b26>
    1c78:	00b57633          	and	a2,a0,a1
    1c7c:	4ec12c23          	sw	a2,1272(sp)

00001c80 <inst_338>:
    1c80:	00600513          	li	a0,6
    1c84:	ffff55b7          	lui	a1,0xffff5
    1c88:	afc58593          	addi	a1,a1,-1284 # ffff4afc <_end+0xffff0fbc>
    1c8c:	00b57633          	and	a2,a0,a1
    1c90:	4ec12e23          	sw	a2,1276(sp)

00001c94 <inst_339>:
    1c94:	00600513          	li	a0,6
    1c98:	0000b5b7          	lui	a1,0xb
    1c9c:	50458593          	addi	a1,a1,1284 # b504 <_end+0x79c4>
    1ca0:	00b57633          	and	a2,a0,a1
    1ca4:	50c12023          	sw	a2,1280(sp)

00001ca8 <inst_340>:
    1ca8:	00600513          	li	a0,6
    1cac:	00200593          	li	a1,2
    1cb0:	00b57633          	and	a2,a0,a1
    1cb4:	50c12223          	sw	a2,1284(sp)

00001cb8 <inst_341>:
    1cb8:	00600513          	li	a0,6
    1cbc:	555555b7          	lui	a1,0x55555
    1cc0:	55458593          	addi	a1,a1,1364 # 55555554 <_end+0x55551a14>
    1cc4:	00b57633          	and	a2,a0,a1
    1cc8:	50c12423          	sw	a2,1288(sp)

00001ccc <inst_342>:
    1ccc:	00600513          	li	a0,6
    1cd0:	00000593          	li	a1,0
    1cd4:	00b57633          	and	a2,a0,a1
    1cd8:	50c12623          	sw	a2,1292(sp)

00001cdc <inst_343>:
    1cdc:	00600513          	li	a0,6
    1ce0:	00400593          	li	a1,4
    1ce4:	00b57633          	and	a2,a0,a1
    1ce8:	50c12823          	sw	a2,1296(sp)

00001cec <inst_344>:
    1cec:	00600513          	li	a0,6
    1cf0:	333335b7          	lui	a1,0x33333
    1cf4:	33258593          	addi	a1,a1,818 # 33333332 <_end+0x3332f7f2>
    1cf8:	00b57633          	and	a2,a0,a1
    1cfc:	50c12a23          	sw	a2,1300(sp)

00001d00 <inst_345>:
    1d00:	00600513          	li	a0,6
    1d04:	666665b7          	lui	a1,0x66666
    1d08:	66558593          	addi	a1,a1,1637 # 66666665 <_end+0x66662b25>
    1d0c:	00b57633          	and	a2,a0,a1
    1d10:	50c12c23          	sw	a2,1304(sp)

00001d14 <inst_346>:
    1d14:	00600513          	li	a0,6
    1d18:	0000b5b7          	lui	a1,0xb
    1d1c:	50358593          	addi	a1,a1,1283 # b503 <_end+0x79c3>
    1d20:	00b57633          	and	a2,a0,a1
    1d24:	50c12e23          	sw	a2,1308(sp)

00001d28 <inst_347>:
    1d28:	00600513          	li	a0,6
    1d2c:	555555b7          	lui	a1,0x55555
    1d30:	55658593          	addi	a1,a1,1366 # 55555556 <_end+0x55551a16>
    1d34:	00b57633          	and	a2,a0,a1
    1d38:	52c12023          	sw	a2,1312(sp)

00001d3c <inst_348>:
    1d3c:	00600513          	li	a0,6
    1d40:	aaaab5b7          	lui	a1,0xaaaab
    1d44:	aab58593          	addi	a1,a1,-1365 # aaaaaaab <_end+0xaaaa6f6b>
    1d48:	00b57633          	and	a2,a0,a1
    1d4c:	52c12223          	sw	a2,1316(sp)

00001d50 <inst_349>:
    1d50:	00600513          	li	a0,6
    1d54:	00600593          	li	a1,6
    1d58:	00b57633          	and	a2,a0,a1
    1d5c:	52c12423          	sw	a2,1320(sp)

00001d60 <inst_350>:
    1d60:	00600513          	li	a0,6
    1d64:	333335b7          	lui	a1,0x33333
    1d68:	33458593          	addi	a1,a1,820 # 33333334 <_end+0x3332f7f4>
    1d6c:	00b57633          	and	a2,a0,a1
    1d70:	52c12623          	sw	a2,1324(sp)

00001d74 <inst_351>:
    1d74:	00600513          	li	a0,6
    1d78:	666665b7          	lui	a1,0x66666
    1d7c:	66758593          	addi	a1,a1,1639 # 66666667 <_end+0x66662b27>
    1d80:	00b57633          	and	a2,a0,a1
    1d84:	52c12823          	sw	a2,1328(sp)

00001d88 <inst_352>:
    1d88:	00600513          	li	a0,6
    1d8c:	ffff55b7          	lui	a1,0xffff5
    1d90:	afd58593          	addi	a1,a1,-1283 # ffff4afd <_end+0xffff0fbd>
    1d94:	00b57633          	and	a2,a0,a1
    1d98:	52c12a23          	sw	a2,1332(sp)

00001d9c <inst_353>:
    1d9c:	00600513          	li	a0,6
    1da0:	0000b5b7          	lui	a1,0xb
    1da4:	50558593          	addi	a1,a1,1285 # b505 <_end+0x79c5>
    1da8:	00b57633          	and	a2,a0,a1
    1dac:	52c12c23          	sw	a2,1336(sp)

00001db0 <inst_354>:
    1db0:	33333537          	lui	a0,0x33333
    1db4:	33450513          	addi	a0,a0,820 # 33333334 <_end+0x3332f7f4>
    1db8:	00300593          	li	a1,3
    1dbc:	00b57633          	and	a2,a0,a1
    1dc0:	52c12e23          	sw	a2,1340(sp)

00001dc4 <inst_355>:
    1dc4:	33333537          	lui	a0,0x33333
    1dc8:	33450513          	addi	a0,a0,820 # 33333334 <_end+0x3332f7f4>
    1dcc:	555555b7          	lui	a1,0x55555
    1dd0:	55558593          	addi	a1,a1,1365 # 55555555 <_end+0x55551a15>
    1dd4:	00b57633          	and	a2,a0,a1
    1dd8:	54c12023          	sw	a2,1344(sp)

00001ddc <inst_356>:
    1ddc:	33333537          	lui	a0,0x33333
    1de0:	33450513          	addi	a0,a0,820 # 33333334 <_end+0x3332f7f4>
    1de4:	aaaab5b7          	lui	a1,0xaaaab
    1de8:	aaa58593          	addi	a1,a1,-1366 # aaaaaaaa <_end+0xaaaa6f6a>
    1dec:	00b57633          	and	a2,a0,a1
    1df0:	54c12223          	sw	a2,1348(sp)

00001df4 <inst_357>:
    1df4:	33333537          	lui	a0,0x33333
    1df8:	33450513          	addi	a0,a0,820 # 33333334 <_end+0x3332f7f4>
    1dfc:	00500593          	li	a1,5
    1e00:	00b57633          	and	a2,a0,a1
    1e04:	54c12423          	sw	a2,1352(sp)

00001e08 <inst_358>:
    1e08:	33333537          	lui	a0,0x33333
    1e0c:	33450513          	addi	a0,a0,820 # 33333334 <_end+0x3332f7f4>
    1e10:	333335b7          	lui	a1,0x33333
    1e14:	33358593          	addi	a1,a1,819 # 33333333 <_end+0x3332f7f3>
    1e18:	00b57633          	and	a2,a0,a1
    1e1c:	54c12623          	sw	a2,1356(sp)

00001e20 <inst_359>:
    1e20:	33333537          	lui	a0,0x33333
    1e24:	33450513          	addi	a0,a0,820 # 33333334 <_end+0x3332f7f4>
    1e28:	666665b7          	lui	a1,0x66666
    1e2c:	66658593          	addi	a1,a1,1638 # 66666666 <_end+0x66662b26>
    1e30:	00b57633          	and	a2,a0,a1
    1e34:	54c12823          	sw	a2,1360(sp)

00001e38 <inst_360>:
    1e38:	33333537          	lui	a0,0x33333
    1e3c:	33450513          	addi	a0,a0,820 # 33333334 <_end+0x3332f7f4>
    1e40:	ffff55b7          	lui	a1,0xffff5
    1e44:	afc58593          	addi	a1,a1,-1284 # ffff4afc <_end+0xffff0fbc>
    1e48:	00b57633          	and	a2,a0,a1
    1e4c:	54c12a23          	sw	a2,1364(sp)

00001e50 <inst_361>:
    1e50:	33333537          	lui	a0,0x33333
    1e54:	33450513          	addi	a0,a0,820 # 33333334 <_end+0x3332f7f4>
    1e58:	0000b5b7          	lui	a1,0xb
    1e5c:	50458593          	addi	a1,a1,1284 # b504 <_end+0x79c4>
    1e60:	00b57633          	and	a2,a0,a1
    1e64:	54c12c23          	sw	a2,1368(sp)

00001e68 <inst_362>:
    1e68:	33333537          	lui	a0,0x33333
    1e6c:	33450513          	addi	a0,a0,820 # 33333334 <_end+0x3332f7f4>
    1e70:	00200593          	li	a1,2
    1e74:	00b57633          	and	a2,a0,a1
    1e78:	54c12e23          	sw	a2,1372(sp)

00001e7c <inst_363>:
    1e7c:	33333537          	lui	a0,0x33333
    1e80:	33450513          	addi	a0,a0,820 # 33333334 <_end+0x3332f7f4>
    1e84:	555555b7          	lui	a1,0x55555
    1e88:	55458593          	addi	a1,a1,1364 # 55555554 <_end+0x55551a14>
    1e8c:	00b57633          	and	a2,a0,a1
    1e90:	56c12023          	sw	a2,1376(sp)

00001e94 <inst_364>:
    1e94:	33333537          	lui	a0,0x33333
    1e98:	33450513          	addi	a0,a0,820 # 33333334 <_end+0x3332f7f4>
    1e9c:	00000593          	li	a1,0
    1ea0:	00b57633          	and	a2,a0,a1
    1ea4:	56c12223          	sw	a2,1380(sp)

00001ea8 <inst_365>:
    1ea8:	33333537          	lui	a0,0x33333
    1eac:	33450513          	addi	a0,a0,820 # 33333334 <_end+0x3332f7f4>
    1eb0:	00400593          	li	a1,4
    1eb4:	00b57633          	and	a2,a0,a1
    1eb8:	56c12423          	sw	a2,1384(sp)

00001ebc <inst_366>:
    1ebc:	33333537          	lui	a0,0x33333
    1ec0:	33450513          	addi	a0,a0,820 # 33333334 <_end+0x3332f7f4>
    1ec4:	333335b7          	lui	a1,0x33333
    1ec8:	33258593          	addi	a1,a1,818 # 33333332 <_end+0x3332f7f2>
    1ecc:	00b57633          	and	a2,a0,a1
    1ed0:	56c12623          	sw	a2,1388(sp)

00001ed4 <inst_367>:
    1ed4:	33333537          	lui	a0,0x33333
    1ed8:	33450513          	addi	a0,a0,820 # 33333334 <_end+0x3332f7f4>
    1edc:	666665b7          	lui	a1,0x66666
    1ee0:	66558593          	addi	a1,a1,1637 # 66666665 <_end+0x66662b25>
    1ee4:	00b57633          	and	a2,a0,a1
    1ee8:	56c12823          	sw	a2,1392(sp)

00001eec <inst_368>:
    1eec:	33333537          	lui	a0,0x33333
    1ef0:	33450513          	addi	a0,a0,820 # 33333334 <_end+0x3332f7f4>
    1ef4:	0000b5b7          	lui	a1,0xb
    1ef8:	50358593          	addi	a1,a1,1283 # b503 <_end+0x79c3>
    1efc:	00b57633          	and	a2,a0,a1
    1f00:	56c12a23          	sw	a2,1396(sp)

00001f04 <inst_369>:
    1f04:	33333537          	lui	a0,0x33333
    1f08:	33450513          	addi	a0,a0,820 # 33333334 <_end+0x3332f7f4>
    1f0c:	555555b7          	lui	a1,0x55555
    1f10:	55658593          	addi	a1,a1,1366 # 55555556 <_end+0x55551a16>
    1f14:	00b57633          	and	a2,a0,a1
    1f18:	56c12c23          	sw	a2,1400(sp)

00001f1c <inst_370>:
    1f1c:	33333537          	lui	a0,0x33333
    1f20:	33450513          	addi	a0,a0,820 # 33333334 <_end+0x3332f7f4>
    1f24:	aaaab5b7          	lui	a1,0xaaaab
    1f28:	aab58593          	addi	a1,a1,-1365 # aaaaaaab <_end+0xaaaa6f6b>
    1f2c:	00b57633          	and	a2,a0,a1
    1f30:	56c12e23          	sw	a2,1404(sp)

00001f34 <inst_371>:
    1f34:	33333537          	lui	a0,0x33333
    1f38:	33450513          	addi	a0,a0,820 # 33333334 <_end+0x3332f7f4>
    1f3c:	00600593          	li	a1,6
    1f40:	00b57633          	and	a2,a0,a1
    1f44:	58c12023          	sw	a2,1408(sp)

00001f48 <inst_372>:
    1f48:	33333537          	lui	a0,0x33333
    1f4c:	33450513          	addi	a0,a0,820 # 33333334 <_end+0x3332f7f4>
    1f50:	333335b7          	lui	a1,0x33333
    1f54:	33458593          	addi	a1,a1,820 # 33333334 <_end+0x3332f7f4>
    1f58:	00b57633          	and	a2,a0,a1
    1f5c:	58c12223          	sw	a2,1412(sp)

00001f60 <inst_373>:
    1f60:	33333537          	lui	a0,0x33333
    1f64:	33450513          	addi	a0,a0,820 # 33333334 <_end+0x3332f7f4>
    1f68:	666665b7          	lui	a1,0x66666
    1f6c:	66758593          	addi	a1,a1,1639 # 66666667 <_end+0x66662b27>
    1f70:	00b57633          	and	a2,a0,a1
    1f74:	58c12423          	sw	a2,1416(sp)

00001f78 <inst_374>:
    1f78:	33333537          	lui	a0,0x33333
    1f7c:	33450513          	addi	a0,a0,820 # 33333334 <_end+0x3332f7f4>
    1f80:	ffff55b7          	lui	a1,0xffff5
    1f84:	afd58593          	addi	a1,a1,-1283 # ffff4afd <_end+0xffff0fbd>
    1f88:	00b57633          	and	a2,a0,a1
    1f8c:	58c12623          	sw	a2,1420(sp)

00001f90 <inst_375>:
    1f90:	33333537          	lui	a0,0x33333
    1f94:	33450513          	addi	a0,a0,820 # 33333334 <_end+0x3332f7f4>
    1f98:	0000b5b7          	lui	a1,0xb
    1f9c:	50558593          	addi	a1,a1,1285 # b505 <_end+0x79c5>
    1fa0:	00b57633          	and	a2,a0,a1
    1fa4:	58c12823          	sw	a2,1424(sp)

00001fa8 <inst_376>:
    1fa8:	66666537          	lui	a0,0x66666
    1fac:	66750513          	addi	a0,a0,1639 # 66666667 <_end+0x66662b27>
    1fb0:	00300593          	li	a1,3
    1fb4:	00b57633          	and	a2,a0,a1
    1fb8:	58c12a23          	sw	a2,1428(sp)

00001fbc <inst_377>:
    1fbc:	66666537          	lui	a0,0x66666
    1fc0:	66750513          	addi	a0,a0,1639 # 66666667 <_end+0x66662b27>
    1fc4:	555555b7          	lui	a1,0x55555
    1fc8:	55558593          	addi	a1,a1,1365 # 55555555 <_end+0x55551a15>
    1fcc:	00b57633          	and	a2,a0,a1
    1fd0:	58c12c23          	sw	a2,1432(sp)

00001fd4 <inst_378>:
    1fd4:	66666537          	lui	a0,0x66666
    1fd8:	66750513          	addi	a0,a0,1639 # 66666667 <_end+0x66662b27>
    1fdc:	aaaab5b7          	lui	a1,0xaaaab
    1fe0:	aaa58593          	addi	a1,a1,-1366 # aaaaaaaa <_end+0xaaaa6f6a>
    1fe4:	00b57633          	and	a2,a0,a1
    1fe8:	58c12e23          	sw	a2,1436(sp)

00001fec <inst_379>:
    1fec:	66666537          	lui	a0,0x66666
    1ff0:	66750513          	addi	a0,a0,1639 # 66666667 <_end+0x66662b27>
    1ff4:	00500593          	li	a1,5
    1ff8:	00b57633          	and	a2,a0,a1
    1ffc:	5ac12023          	sw	a2,1440(sp)

00002000 <inst_380>:
    2000:	66666537          	lui	a0,0x66666
    2004:	66750513          	addi	a0,a0,1639 # 66666667 <_end+0x66662b27>
    2008:	333335b7          	lui	a1,0x33333
    200c:	33358593          	addi	a1,a1,819 # 33333333 <_end+0x3332f7f3>
    2010:	00b57633          	and	a2,a0,a1
    2014:	5ac12223          	sw	a2,1444(sp)

00002018 <inst_381>:
    2018:	66666537          	lui	a0,0x66666
    201c:	66750513          	addi	a0,a0,1639 # 66666667 <_end+0x66662b27>
    2020:	666665b7          	lui	a1,0x66666
    2024:	66658593          	addi	a1,a1,1638 # 66666666 <_end+0x66662b26>
    2028:	00b57633          	and	a2,a0,a1
    202c:	5ac12423          	sw	a2,1448(sp)

00002030 <inst_382>:
    2030:	66666537          	lui	a0,0x66666
    2034:	66750513          	addi	a0,a0,1639 # 66666667 <_end+0x66662b27>
    2038:	ffff55b7          	lui	a1,0xffff5
    203c:	afc58593          	addi	a1,a1,-1284 # ffff4afc <_end+0xffff0fbc>
    2040:	00b57633          	and	a2,a0,a1
    2044:	5ac12623          	sw	a2,1452(sp)

00002048 <inst_383>:
    2048:	66666537          	lui	a0,0x66666
    204c:	66750513          	addi	a0,a0,1639 # 66666667 <_end+0x66662b27>
    2050:	0000b5b7          	lui	a1,0xb
    2054:	50458593          	addi	a1,a1,1284 # b504 <_end+0x79c4>
    2058:	00b57633          	and	a2,a0,a1
    205c:	5ac12823          	sw	a2,1456(sp)

00002060 <inst_384>:
    2060:	66666537          	lui	a0,0x66666
    2064:	66750513          	addi	a0,a0,1639 # 66666667 <_end+0x66662b27>
    2068:	00200593          	li	a1,2
    206c:	00b57633          	and	a2,a0,a1
    2070:	5ac12a23          	sw	a2,1460(sp)

00002074 <inst_385>:
    2074:	66666537          	lui	a0,0x66666
    2078:	66750513          	addi	a0,a0,1639 # 66666667 <_end+0x66662b27>
    207c:	555555b7          	lui	a1,0x55555
    2080:	55458593          	addi	a1,a1,1364 # 55555554 <_end+0x55551a14>
    2084:	00b57633          	and	a2,a0,a1
    2088:	5ac12c23          	sw	a2,1464(sp)

0000208c <inst_386>:
    208c:	66666537          	lui	a0,0x66666
    2090:	66750513          	addi	a0,a0,1639 # 66666667 <_end+0x66662b27>
    2094:	00000593          	li	a1,0
    2098:	00b57633          	and	a2,a0,a1
    209c:	5ac12e23          	sw	a2,1468(sp)

000020a0 <inst_387>:
    20a0:	66666537          	lui	a0,0x66666
    20a4:	66750513          	addi	a0,a0,1639 # 66666667 <_end+0x66662b27>
    20a8:	00400593          	li	a1,4
    20ac:	00b57633          	and	a2,a0,a1
    20b0:	5cc12023          	sw	a2,1472(sp)

000020b4 <inst_388>:
    20b4:	66666537          	lui	a0,0x66666
    20b8:	66750513          	addi	a0,a0,1639 # 66666667 <_end+0x66662b27>
    20bc:	333335b7          	lui	a1,0x33333
    20c0:	33258593          	addi	a1,a1,818 # 33333332 <_end+0x3332f7f2>
    20c4:	00b57633          	and	a2,a0,a1
    20c8:	5cc12223          	sw	a2,1476(sp)

000020cc <inst_389>:
    20cc:	66666537          	lui	a0,0x66666
    20d0:	66750513          	addi	a0,a0,1639 # 66666667 <_end+0x66662b27>
    20d4:	666665b7          	lui	a1,0x66666
    20d8:	66558593          	addi	a1,a1,1637 # 66666665 <_end+0x66662b25>
    20dc:	00b57633          	and	a2,a0,a1
    20e0:	5cc12423          	sw	a2,1480(sp)

000020e4 <inst_390>:
    20e4:	66666537          	lui	a0,0x66666
    20e8:	66750513          	addi	a0,a0,1639 # 66666667 <_end+0x66662b27>
    20ec:	0000b5b7          	lui	a1,0xb
    20f0:	50358593          	addi	a1,a1,1283 # b503 <_end+0x79c3>
    20f4:	00b57633          	and	a2,a0,a1
    20f8:	5cc12623          	sw	a2,1484(sp)

000020fc <inst_391>:
    20fc:	66666537          	lui	a0,0x66666
    2100:	66750513          	addi	a0,a0,1639 # 66666667 <_end+0x66662b27>
    2104:	555555b7          	lui	a1,0x55555
    2108:	55658593          	addi	a1,a1,1366 # 55555556 <_end+0x55551a16>
    210c:	00b57633          	and	a2,a0,a1
    2110:	5cc12823          	sw	a2,1488(sp)

00002114 <inst_392>:
    2114:	66666537          	lui	a0,0x66666
    2118:	66750513          	addi	a0,a0,1639 # 66666667 <_end+0x66662b27>
    211c:	aaaab5b7          	lui	a1,0xaaaab
    2120:	aab58593          	addi	a1,a1,-1365 # aaaaaaab <_end+0xaaaa6f6b>
    2124:	00b57633          	and	a2,a0,a1
    2128:	5cc12a23          	sw	a2,1492(sp)

0000212c <inst_393>:
    212c:	66666537          	lui	a0,0x66666
    2130:	66750513          	addi	a0,a0,1639 # 66666667 <_end+0x66662b27>
    2134:	00600593          	li	a1,6
    2138:	00b57633          	and	a2,a0,a1
    213c:	5cc12c23          	sw	a2,1496(sp)

00002140 <inst_394>:
    2140:	66666537          	lui	a0,0x66666
    2144:	66750513          	addi	a0,a0,1639 # 66666667 <_end+0x66662b27>
    2148:	333335b7          	lui	a1,0x33333
    214c:	33458593          	addi	a1,a1,820 # 33333334 <_end+0x3332f7f4>
    2150:	00b57633          	and	a2,a0,a1
    2154:	5cc12e23          	sw	a2,1500(sp)

00002158 <inst_395>:
    2158:	66666537          	lui	a0,0x66666
    215c:	66750513          	addi	a0,a0,1639 # 66666667 <_end+0x66662b27>
    2160:	666665b7          	lui	a1,0x66666
    2164:	66758593          	addi	a1,a1,1639 # 66666667 <_end+0x66662b27>
    2168:	00b57633          	and	a2,a0,a1
    216c:	5ec12023          	sw	a2,1504(sp)

00002170 <inst_396>:
    2170:	66666537          	lui	a0,0x66666
    2174:	66750513          	addi	a0,a0,1639 # 66666667 <_end+0x66662b27>
    2178:	ffff55b7          	lui	a1,0xffff5
    217c:	afd58593          	addi	a1,a1,-1283 # ffff4afd <_end+0xffff0fbd>
    2180:	00b57633          	and	a2,a0,a1
    2184:	5ec12223          	sw	a2,1508(sp)

00002188 <inst_397>:
    2188:	66666537          	lui	a0,0x66666
    218c:	66750513          	addi	a0,a0,1639 # 66666667 <_end+0x66662b27>
    2190:	0000b5b7          	lui	a1,0xb
    2194:	50558593          	addi	a1,a1,1285 # b505 <_end+0x79c5>
    2198:	00b57633          	and	a2,a0,a1
    219c:	5ec12423          	sw	a2,1512(sp)

000021a0 <inst_398>:
    21a0:	ffff5537          	lui	a0,0xffff5
    21a4:	afd50513          	addi	a0,a0,-1283 # ffff4afd <_end+0xffff0fbd>
    21a8:	00300593          	li	a1,3
    21ac:	00b57633          	and	a2,a0,a1
    21b0:	5ec12623          	sw	a2,1516(sp)

000021b4 <inst_399>:
    21b4:	ffff5537          	lui	a0,0xffff5
    21b8:	afd50513          	addi	a0,a0,-1283 # ffff4afd <_end+0xffff0fbd>
    21bc:	555555b7          	lui	a1,0x55555
    21c0:	55558593          	addi	a1,a1,1365 # 55555555 <_end+0x55551a15>
    21c4:	00b57633          	and	a2,a0,a1
    21c8:	5ec12823          	sw	a2,1520(sp)

000021cc <inst_400>:
    21cc:	ffff5537          	lui	a0,0xffff5
    21d0:	afd50513          	addi	a0,a0,-1283 # ffff4afd <_end+0xffff0fbd>
    21d4:	aaaab5b7          	lui	a1,0xaaaab
    21d8:	aaa58593          	addi	a1,a1,-1366 # aaaaaaaa <_end+0xaaaa6f6a>
    21dc:	00b57633          	and	a2,a0,a1
    21e0:	5ec12a23          	sw	a2,1524(sp)

000021e4 <inst_401>:
    21e4:	ffff5537          	lui	a0,0xffff5
    21e8:	afd50513          	addi	a0,a0,-1283 # ffff4afd <_end+0xffff0fbd>
    21ec:	00500593          	li	a1,5
    21f0:	00b57633          	and	a2,a0,a1
    21f4:	5ec12c23          	sw	a2,1528(sp)

000021f8 <inst_402>:
    21f8:	ffff5537          	lui	a0,0xffff5
    21fc:	afd50513          	addi	a0,a0,-1283 # ffff4afd <_end+0xffff0fbd>
    2200:	333335b7          	lui	a1,0x33333
    2204:	33358593          	addi	a1,a1,819 # 33333333 <_end+0x3332f7f3>
    2208:	00b57633          	and	a2,a0,a1
    220c:	5ec12e23          	sw	a2,1532(sp)

00002210 <inst_403>:
    2210:	ffff5537          	lui	a0,0xffff5
    2214:	afd50513          	addi	a0,a0,-1283 # ffff4afd <_end+0xffff0fbd>
    2218:	666665b7          	lui	a1,0x66666
    221c:	66658593          	addi	a1,a1,1638 # 66666666 <_end+0x66662b26>
    2220:	00b57633          	and	a2,a0,a1
    2224:	60c12023          	sw	a2,1536(sp)

00002228 <inst_404>:
    2228:	ffff5537          	lui	a0,0xffff5
    222c:	afd50513          	addi	a0,a0,-1283 # ffff4afd <_end+0xffff0fbd>
    2230:	ffff55b7          	lui	a1,0xffff5
    2234:	afc58593          	addi	a1,a1,-1284 # ffff4afc <_end+0xffff0fbc>
    2238:	00b57633          	and	a2,a0,a1
    223c:	60c12223          	sw	a2,1540(sp)

00002240 <inst_405>:
    2240:	ffff5537          	lui	a0,0xffff5
    2244:	afd50513          	addi	a0,a0,-1283 # ffff4afd <_end+0xffff0fbd>
    2248:	0000b5b7          	lui	a1,0xb
    224c:	50458593          	addi	a1,a1,1284 # b504 <_end+0x79c4>
    2250:	00b57633          	and	a2,a0,a1
    2254:	60c12423          	sw	a2,1544(sp)

00002258 <inst_406>:
    2258:	ffff5537          	lui	a0,0xffff5
    225c:	afd50513          	addi	a0,a0,-1283 # ffff4afd <_end+0xffff0fbd>
    2260:	00200593          	li	a1,2
    2264:	00b57633          	and	a2,a0,a1
    2268:	60c12623          	sw	a2,1548(sp)

0000226c <inst_407>:
    226c:	ffff5537          	lui	a0,0xffff5
    2270:	afd50513          	addi	a0,a0,-1283 # ffff4afd <_end+0xffff0fbd>
    2274:	555555b7          	lui	a1,0x55555
    2278:	55458593          	addi	a1,a1,1364 # 55555554 <_end+0x55551a14>
    227c:	00b57633          	and	a2,a0,a1
    2280:	60c12823          	sw	a2,1552(sp)

00002284 <inst_408>:
    2284:	ffff5537          	lui	a0,0xffff5
    2288:	afd50513          	addi	a0,a0,-1283 # ffff4afd <_end+0xffff0fbd>
    228c:	00000593          	li	a1,0
    2290:	00b57633          	and	a2,a0,a1
    2294:	60c12a23          	sw	a2,1556(sp)

00002298 <inst_409>:
    2298:	ffff5537          	lui	a0,0xffff5
    229c:	afd50513          	addi	a0,a0,-1283 # ffff4afd <_end+0xffff0fbd>
    22a0:	00400593          	li	a1,4
    22a4:	00b57633          	and	a2,a0,a1
    22a8:	60c12c23          	sw	a2,1560(sp)

000022ac <inst_410>:
    22ac:	ffff5537          	lui	a0,0xffff5
    22b0:	afd50513          	addi	a0,a0,-1283 # ffff4afd <_end+0xffff0fbd>
    22b4:	333335b7          	lui	a1,0x33333
    22b8:	33258593          	addi	a1,a1,818 # 33333332 <_end+0x3332f7f2>
    22bc:	00b57633          	and	a2,a0,a1
    22c0:	60c12e23          	sw	a2,1564(sp)

000022c4 <inst_411>:
    22c4:	ffff5537          	lui	a0,0xffff5
    22c8:	afd50513          	addi	a0,a0,-1283 # ffff4afd <_end+0xffff0fbd>
    22cc:	666665b7          	lui	a1,0x66666
    22d0:	66558593          	addi	a1,a1,1637 # 66666665 <_end+0x66662b25>
    22d4:	00b57633          	and	a2,a0,a1
    22d8:	62c12023          	sw	a2,1568(sp)

000022dc <inst_412>:
    22dc:	ffff5537          	lui	a0,0xffff5
    22e0:	afd50513          	addi	a0,a0,-1283 # ffff4afd <_end+0xffff0fbd>
    22e4:	0000b5b7          	lui	a1,0xb
    22e8:	50358593          	addi	a1,a1,1283 # b503 <_end+0x79c3>
    22ec:	00b57633          	and	a2,a0,a1
    22f0:	62c12223          	sw	a2,1572(sp)

000022f4 <inst_413>:
    22f4:	ffff5537          	lui	a0,0xffff5
    22f8:	afd50513          	addi	a0,a0,-1283 # ffff4afd <_end+0xffff0fbd>
    22fc:	555555b7          	lui	a1,0x55555
    2300:	55658593          	addi	a1,a1,1366 # 55555556 <_end+0x55551a16>
    2304:	00b57633          	and	a2,a0,a1
    2308:	62c12423          	sw	a2,1576(sp)

0000230c <inst_414>:
    230c:	ffff5537          	lui	a0,0xffff5
    2310:	afd50513          	addi	a0,a0,-1283 # ffff4afd <_end+0xffff0fbd>
    2314:	aaaab5b7          	lui	a1,0xaaaab
    2318:	aab58593          	addi	a1,a1,-1365 # aaaaaaab <_end+0xaaaa6f6b>
    231c:	00b57633          	and	a2,a0,a1
    2320:	62c12623          	sw	a2,1580(sp)

00002324 <inst_415>:
    2324:	ffff5537          	lui	a0,0xffff5
    2328:	afd50513          	addi	a0,a0,-1283 # ffff4afd <_end+0xffff0fbd>
    232c:	00600593          	li	a1,6
    2330:	00b57633          	and	a2,a0,a1
    2334:	62c12823          	sw	a2,1584(sp)

00002338 <inst_416>:
    2338:	ffff5537          	lui	a0,0xffff5
    233c:	afd50513          	addi	a0,a0,-1283 # ffff4afd <_end+0xffff0fbd>
    2340:	333335b7          	lui	a1,0x33333
    2344:	33458593          	addi	a1,a1,820 # 33333334 <_end+0x3332f7f4>
    2348:	00b57633          	and	a2,a0,a1
    234c:	62c12a23          	sw	a2,1588(sp)

00002350 <inst_417>:
    2350:	ffff5537          	lui	a0,0xffff5
    2354:	afd50513          	addi	a0,a0,-1283 # ffff4afd <_end+0xffff0fbd>
    2358:	666665b7          	lui	a1,0x66666
    235c:	66758593          	addi	a1,a1,1639 # 66666667 <_end+0x66662b27>
    2360:	00b57633          	and	a2,a0,a1
    2364:	62c12c23          	sw	a2,1592(sp)

00002368 <inst_418>:
    2368:	ffff5537          	lui	a0,0xffff5
    236c:	afd50513          	addi	a0,a0,-1283 # ffff4afd <_end+0xffff0fbd>
    2370:	ffff55b7          	lui	a1,0xffff5
    2374:	afd58593          	addi	a1,a1,-1283 # ffff4afd <_end+0xffff0fbd>
    2378:	00b57633          	and	a2,a0,a1
    237c:	62c12e23          	sw	a2,1596(sp)

00002380 <inst_419>:
    2380:	ffff5537          	lui	a0,0xffff5
    2384:	afd50513          	addi	a0,a0,-1283 # ffff4afd <_end+0xffff0fbd>
    2388:	0000b5b7          	lui	a1,0xb
    238c:	50558593          	addi	a1,a1,1285 # b505 <_end+0x79c5>
    2390:	00b57633          	and	a2,a0,a1
    2394:	64c12023          	sw	a2,1600(sp)

00002398 <inst_420>:
    2398:	0000b537          	lui	a0,0xb
    239c:	50550513          	addi	a0,a0,1285 # b505 <_end+0x79c5>
    23a0:	00300593          	li	a1,3
    23a4:	00b57633          	and	a2,a0,a1
    23a8:	64c12223          	sw	a2,1604(sp)

000023ac <inst_421>:
    23ac:	0000b537          	lui	a0,0xb
    23b0:	50550513          	addi	a0,a0,1285 # b505 <_end+0x79c5>
    23b4:	555555b7          	lui	a1,0x55555
    23b8:	55558593          	addi	a1,a1,1365 # 55555555 <_end+0x55551a15>
    23bc:	00b57633          	and	a2,a0,a1
    23c0:	64c12423          	sw	a2,1608(sp)

000023c4 <inst_422>:
    23c4:	0000b537          	lui	a0,0xb
    23c8:	50550513          	addi	a0,a0,1285 # b505 <_end+0x79c5>
    23cc:	aaaab5b7          	lui	a1,0xaaaab
    23d0:	aaa58593          	addi	a1,a1,-1366 # aaaaaaaa <_end+0xaaaa6f6a>
    23d4:	00b57633          	and	a2,a0,a1
    23d8:	64c12623          	sw	a2,1612(sp)

000023dc <inst_423>:
    23dc:	0000b537          	lui	a0,0xb
    23e0:	50550513          	addi	a0,a0,1285 # b505 <_end+0x79c5>
    23e4:	00500593          	li	a1,5
    23e8:	00b57633          	and	a2,a0,a1
    23ec:	64c12823          	sw	a2,1616(sp)

000023f0 <inst_424>:
    23f0:	0000b537          	lui	a0,0xb
    23f4:	50550513          	addi	a0,a0,1285 # b505 <_end+0x79c5>
    23f8:	333335b7          	lui	a1,0x33333
    23fc:	33358593          	addi	a1,a1,819 # 33333333 <_end+0x3332f7f3>
    2400:	00b57633          	and	a2,a0,a1
    2404:	64c12a23          	sw	a2,1620(sp)

00002408 <inst_425>:
    2408:	0000b537          	lui	a0,0xb
    240c:	50550513          	addi	a0,a0,1285 # b505 <_end+0x79c5>
    2410:	666665b7          	lui	a1,0x66666
    2414:	66658593          	addi	a1,a1,1638 # 66666666 <_end+0x66662b26>
    2418:	00b57633          	and	a2,a0,a1
    241c:	64c12c23          	sw	a2,1624(sp)

00002420 <inst_426>:
    2420:	0000b537          	lui	a0,0xb
    2424:	50550513          	addi	a0,a0,1285 # b505 <_end+0x79c5>
    2428:	ffff55b7          	lui	a1,0xffff5
    242c:	afc58593          	addi	a1,a1,-1284 # ffff4afc <_end+0xffff0fbc>
    2430:	00b57633          	and	a2,a0,a1
    2434:	64c12e23          	sw	a2,1628(sp)

00002438 <inst_427>:
    2438:	0000b537          	lui	a0,0xb
    243c:	50550513          	addi	a0,a0,1285 # b505 <_end+0x79c5>
    2440:	0000b5b7          	lui	a1,0xb
    2444:	50458593          	addi	a1,a1,1284 # b504 <_end+0x79c4>
    2448:	00b57633          	and	a2,a0,a1
    244c:	66c12023          	sw	a2,1632(sp)

00002450 <inst_428>:
    2450:	0000b537          	lui	a0,0xb
    2454:	50550513          	addi	a0,a0,1285 # b505 <_end+0x79c5>
    2458:	00200593          	li	a1,2
    245c:	00b57633          	and	a2,a0,a1
    2460:	66c12223          	sw	a2,1636(sp)

00002464 <inst_429>:
    2464:	0000b537          	lui	a0,0xb
    2468:	50550513          	addi	a0,a0,1285 # b505 <_end+0x79c5>
    246c:	555555b7          	lui	a1,0x55555
    2470:	55458593          	addi	a1,a1,1364 # 55555554 <_end+0x55551a14>
    2474:	00b57633          	and	a2,a0,a1
    2478:	66c12423          	sw	a2,1640(sp)

0000247c <inst_430>:
    247c:	0000b537          	lui	a0,0xb
    2480:	50550513          	addi	a0,a0,1285 # b505 <_end+0x79c5>
    2484:	00000593          	li	a1,0
    2488:	00b57633          	and	a2,a0,a1
    248c:	66c12623          	sw	a2,1644(sp)

00002490 <inst_431>:
    2490:	0000b537          	lui	a0,0xb
    2494:	50550513          	addi	a0,a0,1285 # b505 <_end+0x79c5>
    2498:	00400593          	li	a1,4
    249c:	00b57633          	and	a2,a0,a1
    24a0:	66c12823          	sw	a2,1648(sp)

000024a4 <inst_432>:
    24a4:	0000b537          	lui	a0,0xb
    24a8:	50550513          	addi	a0,a0,1285 # b505 <_end+0x79c5>
    24ac:	333335b7          	lui	a1,0x33333
    24b0:	33258593          	addi	a1,a1,818 # 33333332 <_end+0x3332f7f2>
    24b4:	00b57633          	and	a2,a0,a1
    24b8:	66c12a23          	sw	a2,1652(sp)

000024bc <inst_433>:
    24bc:	0000b537          	lui	a0,0xb
    24c0:	50550513          	addi	a0,a0,1285 # b505 <_end+0x79c5>
    24c4:	666665b7          	lui	a1,0x66666
    24c8:	66558593          	addi	a1,a1,1637 # 66666665 <_end+0x66662b25>
    24cc:	00b57633          	and	a2,a0,a1
    24d0:	66c12c23          	sw	a2,1656(sp)

000024d4 <inst_434>:
    24d4:	0000b537          	lui	a0,0xb
    24d8:	50550513          	addi	a0,a0,1285 # b505 <_end+0x79c5>
    24dc:	0000b5b7          	lui	a1,0xb
    24e0:	50358593          	addi	a1,a1,1283 # b503 <_end+0x79c3>
    24e4:	00b57633          	and	a2,a0,a1
    24e8:	66c12e23          	sw	a2,1660(sp)

000024ec <inst_435>:
    24ec:	0000b537          	lui	a0,0xb
    24f0:	50550513          	addi	a0,a0,1285 # b505 <_end+0x79c5>
    24f4:	555555b7          	lui	a1,0x55555
    24f8:	55658593          	addi	a1,a1,1366 # 55555556 <_end+0x55551a16>
    24fc:	00b57633          	and	a2,a0,a1
    2500:	68c12023          	sw	a2,1664(sp)

00002504 <inst_436>:
    2504:	0000b537          	lui	a0,0xb
    2508:	50550513          	addi	a0,a0,1285 # b505 <_end+0x79c5>
    250c:	aaaab5b7          	lui	a1,0xaaaab
    2510:	aab58593          	addi	a1,a1,-1365 # aaaaaaab <_end+0xaaaa6f6b>
    2514:	00b57633          	and	a2,a0,a1
    2518:	68c12223          	sw	a2,1668(sp)

0000251c <inst_437>:
    251c:	0000b537          	lui	a0,0xb
    2520:	50550513          	addi	a0,a0,1285 # b505 <_end+0x79c5>
    2524:	00600593          	li	a1,6
    2528:	00b57633          	and	a2,a0,a1
    252c:	68c12423          	sw	a2,1672(sp)

00002530 <inst_438>:
    2530:	0000b537          	lui	a0,0xb
    2534:	50550513          	addi	a0,a0,1285 # b505 <_end+0x79c5>
    2538:	333335b7          	lui	a1,0x33333
    253c:	33458593          	addi	a1,a1,820 # 33333334 <_end+0x3332f7f4>
    2540:	00b57633          	and	a2,a0,a1
    2544:	68c12623          	sw	a2,1676(sp)

00002548 <inst_439>:
    2548:	0000b537          	lui	a0,0xb
    254c:	50550513          	addi	a0,a0,1285 # b505 <_end+0x79c5>
    2550:	666665b7          	lui	a1,0x66666
    2554:	66758593          	addi	a1,a1,1639 # 66666667 <_end+0x66662b27>
    2558:	00b57633          	and	a2,a0,a1
    255c:	68c12823          	sw	a2,1680(sp)

00002560 <inst_440>:
    2560:	0000b537          	lui	a0,0xb
    2564:	50550513          	addi	a0,a0,1285 # b505 <_end+0x79c5>
    2568:	ffff55b7          	lui	a1,0xffff5
    256c:	afd58593          	addi	a1,a1,-1283 # ffff4afd <_end+0xffff0fbd>
    2570:	00b57633          	and	a2,a0,a1
    2574:	68c12a23          	sw	a2,1684(sp)

00002578 <inst_441>:
    2578:	0000b537          	lui	a0,0xb
    257c:	50550513          	addi	a0,a0,1285 # b505 <_end+0x79c5>
    2580:	0000b5b7          	lui	a1,0xb
    2584:	50558593          	addi	a1,a1,1285 # b505 <_end+0x79c5>
    2588:	00b57633          	and	a2,a0,a1
    258c:	68c12c23          	sw	a2,1688(sp)

00002590 <inst_442>:
    2590:	00000513          	li	a0,0
    2594:	555555b7          	lui	a1,0x55555
    2598:	55458593          	addi	a1,a1,1364 # 55555554 <_end+0x55551a14>
    259c:	00b57633          	and	a2,a0,a1
    25a0:	68c12e23          	sw	a2,1692(sp)

000025a4 <inst_443>:
    25a4:	00000513          	li	a0,0
    25a8:	00000593          	li	a1,0
    25ac:	00b57633          	and	a2,a0,a1
    25b0:	6ac12023          	sw	a2,1696(sp)

000025b4 <inst_444>:
    25b4:	00000513          	li	a0,0
    25b8:	00400593          	li	a1,4
    25bc:	00b57633          	and	a2,a0,a1
    25c0:	6ac12223          	sw	a2,1700(sp)

000025c4 <inst_445>:
    25c4:	00000513          	li	a0,0
    25c8:	333335b7          	lui	a1,0x33333
    25cc:	33258593          	addi	a1,a1,818 # 33333332 <_end+0x3332f7f2>
    25d0:	00b57633          	and	a2,a0,a1
    25d4:	6ac12423          	sw	a2,1704(sp)

000025d8 <inst_446>:
    25d8:	00000513          	li	a0,0
    25dc:	666665b7          	lui	a1,0x66666
    25e0:	66558593          	addi	a1,a1,1637 # 66666665 <_end+0x66662b25>
    25e4:	00b57633          	and	a2,a0,a1
    25e8:	6ac12623          	sw	a2,1708(sp)

000025ec <inst_447>:
    25ec:	00000513          	li	a0,0
    25f0:	0000b5b7          	lui	a1,0xb
    25f4:	50358593          	addi	a1,a1,1283 # b503 <_end+0x79c3>
    25f8:	00b57633          	and	a2,a0,a1
    25fc:	6ac12823          	sw	a2,1712(sp)

00002600 <inst_448>:
    2600:	00000513          	li	a0,0
    2604:	555555b7          	lui	a1,0x55555
    2608:	55658593          	addi	a1,a1,1366 # 55555556 <_end+0x55551a16>
    260c:	00b57633          	and	a2,a0,a1
    2610:	6ac12a23          	sw	a2,1716(sp)

00002614 <inst_449>:
    2614:	00000513          	li	a0,0
    2618:	aaaab5b7          	lui	a1,0xaaaab
    261c:	aab58593          	addi	a1,a1,-1365 # aaaaaaab <_end+0xaaaa6f6b>
    2620:	00b57633          	and	a2,a0,a1
    2624:	6ac12c23          	sw	a2,1720(sp)

00002628 <inst_450>:
    2628:	00000513          	li	a0,0
    262c:	00600593          	li	a1,6
    2630:	00b57633          	and	a2,a0,a1
    2634:	6ac12e23          	sw	a2,1724(sp)

00002638 <inst_451>:
    2638:	00000513          	li	a0,0
    263c:	333335b7          	lui	a1,0x33333
    2640:	33458593          	addi	a1,a1,820 # 33333334 <_end+0x3332f7f4>
    2644:	00b57633          	and	a2,a0,a1
    2648:	6cc12023          	sw	a2,1728(sp)

0000264c <inst_452>:
    264c:	00000513          	li	a0,0
    2650:	666665b7          	lui	a1,0x66666
    2654:	66758593          	addi	a1,a1,1639 # 66666667 <_end+0x66662b27>
    2658:	00b57633          	and	a2,a0,a1
    265c:	6cc12223          	sw	a2,1732(sp)

00002660 <inst_453>:
    2660:	00000513          	li	a0,0
    2664:	ffff55b7          	lui	a1,0xffff5
    2668:	afd58593          	addi	a1,a1,-1283 # ffff4afd <_end+0xffff0fbd>
    266c:	00b57633          	and	a2,a0,a1
    2670:	6cc12423          	sw	a2,1736(sp)

00002674 <inst_454>:
    2674:	00000513          	li	a0,0
    2678:	0000b5b7          	lui	a1,0xb
    267c:	50558593          	addi	a1,a1,1285 # b505 <_end+0x79c5>
    2680:	00b57633          	and	a2,a0,a1
    2684:	6cc12623          	sw	a2,1740(sp)

00002688 <inst_455>:
    2688:	00400513          	li	a0,4
    268c:	00300593          	li	a1,3
    2690:	00b57633          	and	a2,a0,a1
    2694:	6cc12823          	sw	a2,1744(sp)

00002698 <inst_456>:
    2698:	00400513          	li	a0,4
    269c:	555555b7          	lui	a1,0x55555
    26a0:	55558593          	addi	a1,a1,1365 # 55555555 <_end+0x55551a15>
    26a4:	00b57633          	and	a2,a0,a1
    26a8:	6cc12a23          	sw	a2,1748(sp)

000026ac <inst_457>:
    26ac:	00400513          	li	a0,4
    26b0:	aaaab5b7          	lui	a1,0xaaaab
    26b4:	aaa58593          	addi	a1,a1,-1366 # aaaaaaaa <_end+0xaaaa6f6a>
    26b8:	00b57633          	and	a2,a0,a1
    26bc:	6cc12c23          	sw	a2,1752(sp)

000026c0 <inst_458>:
    26c0:	00400513          	li	a0,4
    26c4:	00500593          	li	a1,5
    26c8:	00b57633          	and	a2,a0,a1
    26cc:	6cc12e23          	sw	a2,1756(sp)

000026d0 <inst_459>:
    26d0:	00400513          	li	a0,4
    26d4:	333335b7          	lui	a1,0x33333
    26d8:	33358593          	addi	a1,a1,819 # 33333333 <_end+0x3332f7f3>
    26dc:	00b57633          	and	a2,a0,a1
    26e0:	6ec12023          	sw	a2,1760(sp)

000026e4 <inst_460>:
    26e4:	00400513          	li	a0,4
    26e8:	666665b7          	lui	a1,0x66666
    26ec:	66658593          	addi	a1,a1,1638 # 66666666 <_end+0x66662b26>
    26f0:	00b57633          	and	a2,a0,a1
    26f4:	6ec12223          	sw	a2,1764(sp)

000026f8 <inst_461>:
    26f8:	00400513          	li	a0,4
    26fc:	ffff55b7          	lui	a1,0xffff5
    2700:	afc58593          	addi	a1,a1,-1284 # ffff4afc <_end+0xffff0fbc>
    2704:	00b57633          	and	a2,a0,a1
    2708:	6ec12423          	sw	a2,1768(sp)

0000270c <inst_462>:
    270c:	00400513          	li	a0,4
    2710:	0000b5b7          	lui	a1,0xb
    2714:	50458593          	addi	a1,a1,1284 # b504 <_end+0x79c4>
    2718:	00b57633          	and	a2,a0,a1
    271c:	6ec12623          	sw	a2,1772(sp)

00002720 <inst_463>:
    2720:	00400513          	li	a0,4
    2724:	00200593          	li	a1,2
    2728:	00b57633          	and	a2,a0,a1
    272c:	6ec12823          	sw	a2,1776(sp)

00002730 <inst_464>:
    2730:	00400513          	li	a0,4
    2734:	555555b7          	lui	a1,0x55555
    2738:	55458593          	addi	a1,a1,1364 # 55555554 <_end+0x55551a14>
    273c:	00b57633          	and	a2,a0,a1
    2740:	6ec12a23          	sw	a2,1780(sp)

00002744 <inst_465>:
    2744:	00400513          	li	a0,4
    2748:	00000593          	li	a1,0
    274c:	00b57633          	and	a2,a0,a1
    2750:	6ec12c23          	sw	a2,1784(sp)

00002754 <inst_466>:
    2754:	00400513          	li	a0,4
    2758:	00400593          	li	a1,4
    275c:	00b57633          	and	a2,a0,a1
    2760:	6ec12e23          	sw	a2,1788(sp)

00002764 <inst_467>:
    2764:	00400513          	li	a0,4
    2768:	333335b7          	lui	a1,0x33333
    276c:	33258593          	addi	a1,a1,818 # 33333332 <_end+0x3332f7f2>
    2770:	00b57633          	and	a2,a0,a1
    2774:	70c12023          	sw	a2,1792(sp)

00002778 <inst_468>:
    2778:	00400513          	li	a0,4
    277c:	666665b7          	lui	a1,0x66666
    2780:	66558593          	addi	a1,a1,1637 # 66666665 <_end+0x66662b25>
    2784:	00b57633          	and	a2,a0,a1
    2788:	70c12223          	sw	a2,1796(sp)

0000278c <inst_469>:
    278c:	00400513          	li	a0,4
    2790:	0000b5b7          	lui	a1,0xb
    2794:	50358593          	addi	a1,a1,1283 # b503 <_end+0x79c3>
    2798:	00b57633          	and	a2,a0,a1
    279c:	70c12423          	sw	a2,1800(sp)

000027a0 <inst_470>:
    27a0:	00400513          	li	a0,4
    27a4:	555555b7          	lui	a1,0x55555
    27a8:	55658593          	addi	a1,a1,1366 # 55555556 <_end+0x55551a16>
    27ac:	00b57633          	and	a2,a0,a1
    27b0:	70c12623          	sw	a2,1804(sp)

000027b4 <inst_471>:
    27b4:	00400513          	li	a0,4
    27b8:	aaaab5b7          	lui	a1,0xaaaab
    27bc:	aab58593          	addi	a1,a1,-1365 # aaaaaaab <_end+0xaaaa6f6b>
    27c0:	00b57633          	and	a2,a0,a1
    27c4:	70c12823          	sw	a2,1808(sp)

000027c8 <inst_472>:
    27c8:	00400513          	li	a0,4
    27cc:	00600593          	li	a1,6
    27d0:	00b57633          	and	a2,a0,a1
    27d4:	70c12a23          	sw	a2,1812(sp)

000027d8 <inst_473>:
    27d8:	00400513          	li	a0,4
    27dc:	333335b7          	lui	a1,0x33333
    27e0:	33458593          	addi	a1,a1,820 # 33333334 <_end+0x3332f7f4>
    27e4:	00b57633          	and	a2,a0,a1
    27e8:	70c12c23          	sw	a2,1816(sp)

000027ec <inst_474>:
    27ec:	00400513          	li	a0,4
    27f0:	666665b7          	lui	a1,0x66666
    27f4:	66758593          	addi	a1,a1,1639 # 66666667 <_end+0x66662b27>
    27f8:	00b57633          	and	a2,a0,a1
    27fc:	70c12e23          	sw	a2,1820(sp)

00002800 <inst_475>:
    2800:	00400513          	li	a0,4
    2804:	ffff55b7          	lui	a1,0xffff5
    2808:	afd58593          	addi	a1,a1,-1283 # ffff4afd <_end+0xffff0fbd>
    280c:	00b57633          	and	a2,a0,a1
    2810:	72c12023          	sw	a2,1824(sp)

00002814 <inst_476>:
    2814:	00400513          	li	a0,4
    2818:	0000b5b7          	lui	a1,0xb
    281c:	50558593          	addi	a1,a1,1285 # b505 <_end+0x79c5>
    2820:	00b57633          	and	a2,a0,a1
    2824:	72c12223          	sw	a2,1828(sp)

00002828 <inst_477>:
    2828:	33333537          	lui	a0,0x33333
    282c:	33250513          	addi	a0,a0,818 # 33333332 <_end+0x3332f7f2>
    2830:	00300593          	li	a1,3
    2834:	00b57633          	and	a2,a0,a1
    2838:	72c12423          	sw	a2,1832(sp)

0000283c <inst_478>:
    283c:	33333537          	lui	a0,0x33333
    2840:	33250513          	addi	a0,a0,818 # 33333332 <_end+0x3332f7f2>
    2844:	555555b7          	lui	a1,0x55555
    2848:	55558593          	addi	a1,a1,1365 # 55555555 <_end+0x55551a15>
    284c:	00b57633          	and	a2,a0,a1
    2850:	72c12623          	sw	a2,1836(sp)

00002854 <inst_479>:
    2854:	33333537          	lui	a0,0x33333
    2858:	33250513          	addi	a0,a0,818 # 33333332 <_end+0x3332f7f2>
    285c:	aaaab5b7          	lui	a1,0xaaaab
    2860:	aaa58593          	addi	a1,a1,-1366 # aaaaaaaa <_end+0xaaaa6f6a>
    2864:	00b57633          	and	a2,a0,a1
    2868:	72c12823          	sw	a2,1840(sp)

0000286c <inst_480>:
    286c:	33333537          	lui	a0,0x33333
    2870:	33250513          	addi	a0,a0,818 # 33333332 <_end+0x3332f7f2>
    2874:	00500593          	li	a1,5
    2878:	00b57633          	and	a2,a0,a1
    287c:	72c12a23          	sw	a2,1844(sp)

00002880 <inst_481>:
    2880:	33333537          	lui	a0,0x33333
    2884:	33250513          	addi	a0,a0,818 # 33333332 <_end+0x3332f7f2>
    2888:	333335b7          	lui	a1,0x33333
    288c:	33358593          	addi	a1,a1,819 # 33333333 <_end+0x3332f7f3>
    2890:	00b57633          	and	a2,a0,a1
    2894:	72c12c23          	sw	a2,1848(sp)

00002898 <inst_482>:
    2898:	33333537          	lui	a0,0x33333
    289c:	33250513          	addi	a0,a0,818 # 33333332 <_end+0x3332f7f2>
    28a0:	666665b7          	lui	a1,0x66666
    28a4:	66658593          	addi	a1,a1,1638 # 66666666 <_end+0x66662b26>
    28a8:	00b57633          	and	a2,a0,a1
    28ac:	72c12e23          	sw	a2,1852(sp)

000028b0 <inst_483>:
    28b0:	33333537          	lui	a0,0x33333
    28b4:	33250513          	addi	a0,a0,818 # 33333332 <_end+0x3332f7f2>
    28b8:	ffff55b7          	lui	a1,0xffff5
    28bc:	afc58593          	addi	a1,a1,-1284 # ffff4afc <_end+0xffff0fbc>
    28c0:	00b57633          	and	a2,a0,a1
    28c4:	74c12023          	sw	a2,1856(sp)

000028c8 <inst_484>:
    28c8:	33333537          	lui	a0,0x33333
    28cc:	33250513          	addi	a0,a0,818 # 33333332 <_end+0x3332f7f2>
    28d0:	0000b5b7          	lui	a1,0xb
    28d4:	50458593          	addi	a1,a1,1284 # b504 <_end+0x79c4>
    28d8:	00b57633          	and	a2,a0,a1
    28dc:	74c12223          	sw	a2,1860(sp)

000028e0 <inst_485>:
    28e0:	33333537          	lui	a0,0x33333
    28e4:	33250513          	addi	a0,a0,818 # 33333332 <_end+0x3332f7f2>
    28e8:	00200593          	li	a1,2
    28ec:	00b57633          	and	a2,a0,a1
    28f0:	74c12423          	sw	a2,1864(sp)

000028f4 <inst_486>:
    28f4:	33333537          	lui	a0,0x33333
    28f8:	33250513          	addi	a0,a0,818 # 33333332 <_end+0x3332f7f2>
    28fc:	555555b7          	lui	a1,0x55555
    2900:	55458593          	addi	a1,a1,1364 # 55555554 <_end+0x55551a14>
    2904:	00b57633          	and	a2,a0,a1
    2908:	74c12623          	sw	a2,1868(sp)

0000290c <inst_487>:
    290c:	33333537          	lui	a0,0x33333
    2910:	33250513          	addi	a0,a0,818 # 33333332 <_end+0x3332f7f2>
    2914:	00000593          	li	a1,0
    2918:	00b57633          	and	a2,a0,a1
    291c:	74c12823          	sw	a2,1872(sp)

00002920 <inst_488>:
    2920:	33333537          	lui	a0,0x33333
    2924:	33250513          	addi	a0,a0,818 # 33333332 <_end+0x3332f7f2>
    2928:	00400593          	li	a1,4
    292c:	00b57633          	and	a2,a0,a1
    2930:	74c12a23          	sw	a2,1876(sp)

00002934 <inst_489>:
    2934:	33333537          	lui	a0,0x33333
    2938:	33250513          	addi	a0,a0,818 # 33333332 <_end+0x3332f7f2>
    293c:	333335b7          	lui	a1,0x33333
    2940:	33258593          	addi	a1,a1,818 # 33333332 <_end+0x3332f7f2>
    2944:	00b57633          	and	a2,a0,a1
    2948:	74c12c23          	sw	a2,1880(sp)

0000294c <inst_490>:
    294c:	33333537          	lui	a0,0x33333
    2950:	33250513          	addi	a0,a0,818 # 33333332 <_end+0x3332f7f2>
    2954:	666665b7          	lui	a1,0x66666
    2958:	66558593          	addi	a1,a1,1637 # 66666665 <_end+0x66662b25>
    295c:	00b57633          	and	a2,a0,a1
    2960:	74c12e23          	sw	a2,1884(sp)

00002964 <inst_491>:
    2964:	33333537          	lui	a0,0x33333
    2968:	33250513          	addi	a0,a0,818 # 33333332 <_end+0x3332f7f2>
    296c:	0000b5b7          	lui	a1,0xb
    2970:	50358593          	addi	a1,a1,1283 # b503 <_end+0x79c3>
    2974:	00b57633          	and	a2,a0,a1
    2978:	76c12023          	sw	a2,1888(sp)

0000297c <inst_492>:
    297c:	33333537          	lui	a0,0x33333
    2980:	33250513          	addi	a0,a0,818 # 33333332 <_end+0x3332f7f2>
    2984:	555555b7          	lui	a1,0x55555
    2988:	55658593          	addi	a1,a1,1366 # 55555556 <_end+0x55551a16>
    298c:	00b57633          	and	a2,a0,a1
    2990:	76c12223          	sw	a2,1892(sp)

00002994 <inst_493>:
    2994:	33333537          	lui	a0,0x33333
    2998:	33250513          	addi	a0,a0,818 # 33333332 <_end+0x3332f7f2>
    299c:	aaaab5b7          	lui	a1,0xaaaab
    29a0:	aab58593          	addi	a1,a1,-1365 # aaaaaaab <_end+0xaaaa6f6b>
    29a4:	00b57633          	and	a2,a0,a1
    29a8:	76c12423          	sw	a2,1896(sp)

000029ac <inst_494>:
    29ac:	33333537          	lui	a0,0x33333
    29b0:	33250513          	addi	a0,a0,818 # 33333332 <_end+0x3332f7f2>
    29b4:	00600593          	li	a1,6
    29b8:	00b57633          	and	a2,a0,a1
    29bc:	76c12623          	sw	a2,1900(sp)

000029c0 <inst_495>:
    29c0:	33333537          	lui	a0,0x33333
    29c4:	33250513          	addi	a0,a0,818 # 33333332 <_end+0x3332f7f2>
    29c8:	333335b7          	lui	a1,0x33333
    29cc:	33458593          	addi	a1,a1,820 # 33333334 <_end+0x3332f7f4>
    29d0:	00b57633          	and	a2,a0,a1
    29d4:	76c12823          	sw	a2,1904(sp)

000029d8 <inst_496>:
    29d8:	33333537          	lui	a0,0x33333
    29dc:	33250513          	addi	a0,a0,818 # 33333332 <_end+0x3332f7f2>
    29e0:	666665b7          	lui	a1,0x66666
    29e4:	66758593          	addi	a1,a1,1639 # 66666667 <_end+0x66662b27>
    29e8:	00b57633          	and	a2,a0,a1
    29ec:	76c12a23          	sw	a2,1908(sp)

000029f0 <inst_497>:
    29f0:	33333537          	lui	a0,0x33333
    29f4:	33250513          	addi	a0,a0,818 # 33333332 <_end+0x3332f7f2>
    29f8:	ffff55b7          	lui	a1,0xffff5
    29fc:	afd58593          	addi	a1,a1,-1283 # ffff4afd <_end+0xffff0fbd>
    2a00:	00b57633          	and	a2,a0,a1
    2a04:	76c12c23          	sw	a2,1912(sp)

00002a08 <inst_498>:
    2a08:	33333537          	lui	a0,0x33333
    2a0c:	33250513          	addi	a0,a0,818 # 33333332 <_end+0x3332f7f2>
    2a10:	0000b5b7          	lui	a1,0xb
    2a14:	50558593          	addi	a1,a1,1285 # b505 <_end+0x79c5>
    2a18:	00b57633          	and	a2,a0,a1
    2a1c:	76c12e23          	sw	a2,1916(sp)

00002a20 <inst_499>:
    2a20:	66666537          	lui	a0,0x66666
    2a24:	66550513          	addi	a0,a0,1637 # 66666665 <_end+0x66662b25>
    2a28:	00300593          	li	a1,3
    2a2c:	00b57633          	and	a2,a0,a1
    2a30:	78c12023          	sw	a2,1920(sp)

00002a34 <inst_500>:
    2a34:	66666537          	lui	a0,0x66666
    2a38:	66550513          	addi	a0,a0,1637 # 66666665 <_end+0x66662b25>
    2a3c:	555555b7          	lui	a1,0x55555
    2a40:	55558593          	addi	a1,a1,1365 # 55555555 <_end+0x55551a15>
    2a44:	00b57633          	and	a2,a0,a1
    2a48:	78c12223          	sw	a2,1924(sp)

00002a4c <inst_501>:
    2a4c:	66666537          	lui	a0,0x66666
    2a50:	66550513          	addi	a0,a0,1637 # 66666665 <_end+0x66662b25>
    2a54:	aaaab5b7          	lui	a1,0xaaaab
    2a58:	aaa58593          	addi	a1,a1,-1366 # aaaaaaaa <_end+0xaaaa6f6a>
    2a5c:	00b57633          	and	a2,a0,a1
    2a60:	78c12423          	sw	a2,1928(sp)

00002a64 <inst_502>:
    2a64:	66666537          	lui	a0,0x66666
    2a68:	66550513          	addi	a0,a0,1637 # 66666665 <_end+0x66662b25>
    2a6c:	00500593          	li	a1,5
    2a70:	00b57633          	and	a2,a0,a1
    2a74:	78c12623          	sw	a2,1932(sp)

00002a78 <inst_503>:
    2a78:	66666537          	lui	a0,0x66666
    2a7c:	66550513          	addi	a0,a0,1637 # 66666665 <_end+0x66662b25>
    2a80:	333335b7          	lui	a1,0x33333
    2a84:	33358593          	addi	a1,a1,819 # 33333333 <_end+0x3332f7f3>
    2a88:	00b57633          	and	a2,a0,a1
    2a8c:	78c12823          	sw	a2,1936(sp)

00002a90 <inst_504>:
    2a90:	66666537          	lui	a0,0x66666
    2a94:	66550513          	addi	a0,a0,1637 # 66666665 <_end+0x66662b25>
    2a98:	666665b7          	lui	a1,0x66666
    2a9c:	66658593          	addi	a1,a1,1638 # 66666666 <_end+0x66662b26>
    2aa0:	00b57633          	and	a2,a0,a1
    2aa4:	78c12a23          	sw	a2,1940(sp)

00002aa8 <inst_505>:
    2aa8:	66666537          	lui	a0,0x66666
    2aac:	66550513          	addi	a0,a0,1637 # 66666665 <_end+0x66662b25>
    2ab0:	ffff55b7          	lui	a1,0xffff5
    2ab4:	afc58593          	addi	a1,a1,-1284 # ffff4afc <_end+0xffff0fbc>
    2ab8:	00b57633          	and	a2,a0,a1
    2abc:	78c12c23          	sw	a2,1944(sp)

00002ac0 <inst_506>:
    2ac0:	66666537          	lui	a0,0x66666
    2ac4:	66550513          	addi	a0,a0,1637 # 66666665 <_end+0x66662b25>
    2ac8:	0000b5b7          	lui	a1,0xb
    2acc:	50458593          	addi	a1,a1,1284 # b504 <_end+0x79c4>
    2ad0:	00b57633          	and	a2,a0,a1
    2ad4:	78c12e23          	sw	a2,1948(sp)

00002ad8 <inst_507>:
    2ad8:	66666537          	lui	a0,0x66666
    2adc:	66550513          	addi	a0,a0,1637 # 66666665 <_end+0x66662b25>
    2ae0:	00200593          	li	a1,2
    2ae4:	00b57633          	and	a2,a0,a1
    2ae8:	7ac12023          	sw	a2,1952(sp)

00002aec <inst_508>:
    2aec:	66666537          	lui	a0,0x66666
    2af0:	66550513          	addi	a0,a0,1637 # 66666665 <_end+0x66662b25>
    2af4:	555555b7          	lui	a1,0x55555
    2af8:	55458593          	addi	a1,a1,1364 # 55555554 <_end+0x55551a14>
    2afc:	00b57633          	and	a2,a0,a1
    2b00:	7ac12223          	sw	a2,1956(sp)

00002b04 <inst_509>:
    2b04:	66666537          	lui	a0,0x66666
    2b08:	66550513          	addi	a0,a0,1637 # 66666665 <_end+0x66662b25>
    2b0c:	00000593          	li	a1,0
    2b10:	00b57633          	and	a2,a0,a1
    2b14:	7ac12423          	sw	a2,1960(sp)

00002b18 <inst_510>:
    2b18:	66666537          	lui	a0,0x66666
    2b1c:	66550513          	addi	a0,a0,1637 # 66666665 <_end+0x66662b25>
    2b20:	00400593          	li	a1,4
    2b24:	00b57633          	and	a2,a0,a1
    2b28:	7ac12623          	sw	a2,1964(sp)

00002b2c <inst_511>:
    2b2c:	66666537          	lui	a0,0x66666
    2b30:	66550513          	addi	a0,a0,1637 # 66666665 <_end+0x66662b25>
    2b34:	333335b7          	lui	a1,0x33333
    2b38:	33258593          	addi	a1,a1,818 # 33333332 <_end+0x3332f7f2>
    2b3c:	00b57633          	and	a2,a0,a1
    2b40:	7ac12823          	sw	a2,1968(sp)

00002b44 <inst_512>:
    2b44:	66666537          	lui	a0,0x66666
    2b48:	66550513          	addi	a0,a0,1637 # 66666665 <_end+0x66662b25>
    2b4c:	666665b7          	lui	a1,0x66666
    2b50:	66558593          	addi	a1,a1,1637 # 66666665 <_end+0x66662b25>
    2b54:	00b57633          	and	a2,a0,a1
    2b58:	7ac12a23          	sw	a2,1972(sp)

00002b5c <inst_513>:
    2b5c:	66666537          	lui	a0,0x66666
    2b60:	66550513          	addi	a0,a0,1637 # 66666665 <_end+0x66662b25>
    2b64:	0000b5b7          	lui	a1,0xb
    2b68:	50358593          	addi	a1,a1,1283 # b503 <_end+0x79c3>
    2b6c:	00b57633          	and	a2,a0,a1
    2b70:	7ac12c23          	sw	a2,1976(sp)

00002b74 <inst_514>:
    2b74:	66666537          	lui	a0,0x66666
    2b78:	66550513          	addi	a0,a0,1637 # 66666665 <_end+0x66662b25>
    2b7c:	555555b7          	lui	a1,0x55555
    2b80:	55658593          	addi	a1,a1,1366 # 55555556 <_end+0x55551a16>
    2b84:	00b57633          	and	a2,a0,a1
    2b88:	7ac12e23          	sw	a2,1980(sp)

00002b8c <inst_515>:
    2b8c:	66666537          	lui	a0,0x66666
    2b90:	66550513          	addi	a0,a0,1637 # 66666665 <_end+0x66662b25>
    2b94:	aaaab5b7          	lui	a1,0xaaaab
    2b98:	aab58593          	addi	a1,a1,-1365 # aaaaaaab <_end+0xaaaa6f6b>
    2b9c:	00b57633          	and	a2,a0,a1
    2ba0:	7cc12023          	sw	a2,1984(sp)

00002ba4 <inst_516>:
    2ba4:	66666537          	lui	a0,0x66666
    2ba8:	66550513          	addi	a0,a0,1637 # 66666665 <_end+0x66662b25>
    2bac:	00600593          	li	a1,6
    2bb0:	00b57633          	and	a2,a0,a1
    2bb4:	7cc12223          	sw	a2,1988(sp)

00002bb8 <inst_517>:
    2bb8:	66666537          	lui	a0,0x66666
    2bbc:	66550513          	addi	a0,a0,1637 # 66666665 <_end+0x66662b25>
    2bc0:	333335b7          	lui	a1,0x33333
    2bc4:	33458593          	addi	a1,a1,820 # 33333334 <_end+0x3332f7f4>
    2bc8:	00b57633          	and	a2,a0,a1
    2bcc:	7cc12423          	sw	a2,1992(sp)

00002bd0 <inst_518>:
    2bd0:	66666537          	lui	a0,0x66666
    2bd4:	66550513          	addi	a0,a0,1637 # 66666665 <_end+0x66662b25>
    2bd8:	666665b7          	lui	a1,0x66666
    2bdc:	66758593          	addi	a1,a1,1639 # 66666667 <_end+0x66662b27>
    2be0:	00b57633          	and	a2,a0,a1
    2be4:	7cc12623          	sw	a2,1996(sp)

00002be8 <inst_519>:
    2be8:	66666537          	lui	a0,0x66666
    2bec:	66550513          	addi	a0,a0,1637 # 66666665 <_end+0x66662b25>
    2bf0:	ffff55b7          	lui	a1,0xffff5
    2bf4:	afd58593          	addi	a1,a1,-1283 # ffff4afd <_end+0xffff0fbd>
    2bf8:	00b57633          	and	a2,a0,a1
    2bfc:	7cc12823          	sw	a2,2000(sp)

00002c00 <inst_520>:
    2c00:	66666537          	lui	a0,0x66666
    2c04:	66550513          	addi	a0,a0,1637 # 66666665 <_end+0x66662b25>
    2c08:	0000b5b7          	lui	a1,0xb
    2c0c:	50558593          	addi	a1,a1,1285 # b505 <_end+0x79c5>
    2c10:	00b57633          	and	a2,a0,a1
    2c14:	7cc12a23          	sw	a2,2004(sp)

00002c18 <inst_521>:
    2c18:	0000b537          	lui	a0,0xb
    2c1c:	50350513          	addi	a0,a0,1283 # b503 <_end+0x79c3>
    2c20:	00300593          	li	a1,3
    2c24:	00b57633          	and	a2,a0,a1
    2c28:	7cc12c23          	sw	a2,2008(sp)

00002c2c <inst_522>:
    2c2c:	0000b537          	lui	a0,0xb
    2c30:	50350513          	addi	a0,a0,1283 # b503 <_end+0x79c3>
    2c34:	555555b7          	lui	a1,0x55555
    2c38:	55558593          	addi	a1,a1,1365 # 55555555 <_end+0x55551a15>
    2c3c:	00b57633          	and	a2,a0,a1
    2c40:	7cc12e23          	sw	a2,2012(sp)

00002c44 <inst_523>:
    2c44:	0000b537          	lui	a0,0xb
    2c48:	50350513          	addi	a0,a0,1283 # b503 <_end+0x79c3>
    2c4c:	aaaab5b7          	lui	a1,0xaaaab
    2c50:	aaa58593          	addi	a1,a1,-1366 # aaaaaaaa <_end+0xaaaa6f6a>
    2c54:	00b57633          	and	a2,a0,a1
    2c58:	7ec12023          	sw	a2,2016(sp)

00002c5c <inst_524>:
    2c5c:	0000b537          	lui	a0,0xb
    2c60:	50350513          	addi	a0,a0,1283 # b503 <_end+0x79c3>
    2c64:	00500593          	li	a1,5
    2c68:	00b57633          	and	a2,a0,a1
    2c6c:	7ec12223          	sw	a2,2020(sp)

00002c70 <inst_525>:
    2c70:	0000b537          	lui	a0,0xb
    2c74:	50350513          	addi	a0,a0,1283 # b503 <_end+0x79c3>
    2c78:	333335b7          	lui	a1,0x33333
    2c7c:	33358593          	addi	a1,a1,819 # 33333333 <_end+0x3332f7f3>
    2c80:	00b57633          	and	a2,a0,a1
    2c84:	7ec12423          	sw	a2,2024(sp)

00002c88 <inst_526>:
    2c88:	0000b537          	lui	a0,0xb
    2c8c:	50350513          	addi	a0,a0,1283 # b503 <_end+0x79c3>
    2c90:	666665b7          	lui	a1,0x66666
    2c94:	66658593          	addi	a1,a1,1638 # 66666666 <_end+0x66662b26>
    2c98:	00b57633          	and	a2,a0,a1
    2c9c:	7ec12623          	sw	a2,2028(sp)

00002ca0 <inst_527>:
    2ca0:	0000b537          	lui	a0,0xb
    2ca4:	50350513          	addi	a0,a0,1283 # b503 <_end+0x79c3>
    2ca8:	ffff55b7          	lui	a1,0xffff5
    2cac:	afc58593          	addi	a1,a1,-1284 # ffff4afc <_end+0xffff0fbc>
    2cb0:	00b57633          	and	a2,a0,a1
    2cb4:	7ec12823          	sw	a2,2032(sp)

00002cb8 <inst_528>:
    2cb8:	0000b537          	lui	a0,0xb
    2cbc:	50350513          	addi	a0,a0,1283 # b503 <_end+0x79c3>
    2cc0:	0000b5b7          	lui	a1,0xb
    2cc4:	50458593          	addi	a1,a1,1284 # b504 <_end+0x79c4>
    2cc8:	00b57633          	and	a2,a0,a1
    2ccc:	7ec12a23          	sw	a2,2036(sp)

00002cd0 <inst_529>:
    2cd0:	0000b537          	lui	a0,0xb
    2cd4:	50350513          	addi	a0,a0,1283 # b503 <_end+0x79c3>
    2cd8:	00200593          	li	a1,2
    2cdc:	00b57633          	and	a2,a0,a1
    2ce0:	7ec12c23          	sw	a2,2040(sp)

00002ce4 <inst_530>:
    2ce4:	0000b537          	lui	a0,0xb
    2ce8:	50350513          	addi	a0,a0,1283 # b503 <_end+0x79c3>
    2cec:	555555b7          	lui	a1,0x55555
    2cf0:	55458593          	addi	a1,a1,1364 # 55555554 <_end+0x55551a14>
    2cf4:	00b57633          	and	a2,a0,a1
    2cf8:	7ec12e23          	sw	a2,2044(sp)
    2cfc:	00001117          	auipc	sp,0x1
    2d00:	d7010113          	addi	sp,sp,-656 # 3a6c <signature_x2_1>

00002d04 <inst_531>:
    2d04:	0000b537          	lui	a0,0xb
    2d08:	50350513          	addi	a0,a0,1283 # b503 <_end+0x79c3>
    2d0c:	00000593          	li	a1,0
    2d10:	00b57633          	and	a2,a0,a1
    2d14:	00c12023          	sw	a2,0(sp)

00002d18 <inst_532>:
    2d18:	0000b537          	lui	a0,0xb
    2d1c:	50350513          	addi	a0,a0,1283 # b503 <_end+0x79c3>
    2d20:	00400593          	li	a1,4
    2d24:	00b57633          	and	a2,a0,a1
    2d28:	00c12223          	sw	a2,4(sp)

00002d2c <inst_533>:
    2d2c:	0000b537          	lui	a0,0xb
    2d30:	50350513          	addi	a0,a0,1283 # b503 <_end+0x79c3>
    2d34:	333335b7          	lui	a1,0x33333
    2d38:	33258593          	addi	a1,a1,818 # 33333332 <_end+0x3332f7f2>
    2d3c:	00b57633          	and	a2,a0,a1
    2d40:	00c12423          	sw	a2,8(sp)

00002d44 <inst_534>:
    2d44:	0000b537          	lui	a0,0xb
    2d48:	50350513          	addi	a0,a0,1283 # b503 <_end+0x79c3>
    2d4c:	666665b7          	lui	a1,0x66666
    2d50:	66558593          	addi	a1,a1,1637 # 66666665 <_end+0x66662b25>
    2d54:	00b57633          	and	a2,a0,a1
    2d58:	00c12623          	sw	a2,12(sp)

00002d5c <inst_535>:
    2d5c:	0000b537          	lui	a0,0xb
    2d60:	50350513          	addi	a0,a0,1283 # b503 <_end+0x79c3>
    2d64:	0000b5b7          	lui	a1,0xb
    2d68:	50358593          	addi	a1,a1,1283 # b503 <_end+0x79c3>
    2d6c:	00b57633          	and	a2,a0,a1
    2d70:	00c12823          	sw	a2,16(sp)

00002d74 <inst_536>:
    2d74:	0000b537          	lui	a0,0xb
    2d78:	50350513          	addi	a0,a0,1283 # b503 <_end+0x79c3>
    2d7c:	555555b7          	lui	a1,0x55555
    2d80:	55658593          	addi	a1,a1,1366 # 55555556 <_end+0x55551a16>
    2d84:	00b57633          	and	a2,a0,a1
    2d88:	00c12a23          	sw	a2,20(sp)

00002d8c <inst_537>:
    2d8c:	0000b537          	lui	a0,0xb
    2d90:	50350513          	addi	a0,a0,1283 # b503 <_end+0x79c3>
    2d94:	aaaab5b7          	lui	a1,0xaaaab
    2d98:	aab58593          	addi	a1,a1,-1365 # aaaaaaab <_end+0xaaaa6f6b>
    2d9c:	00b57633          	and	a2,a0,a1
    2da0:	00c12c23          	sw	a2,24(sp)

00002da4 <inst_538>:
    2da4:	0000b537          	lui	a0,0xb
    2da8:	50350513          	addi	a0,a0,1283 # b503 <_end+0x79c3>
    2dac:	00600593          	li	a1,6
    2db0:	00b57633          	and	a2,a0,a1
    2db4:	00c12e23          	sw	a2,28(sp)

00002db8 <inst_539>:
    2db8:	0000b537          	lui	a0,0xb
    2dbc:	50350513          	addi	a0,a0,1283 # b503 <_end+0x79c3>
    2dc0:	333335b7          	lui	a1,0x33333
    2dc4:	33458593          	addi	a1,a1,820 # 33333334 <_end+0x3332f7f4>
    2dc8:	00b57633          	and	a2,a0,a1
    2dcc:	02c12023          	sw	a2,32(sp)

00002dd0 <inst_540>:
    2dd0:	0000b537          	lui	a0,0xb
    2dd4:	50350513          	addi	a0,a0,1283 # b503 <_end+0x79c3>
    2dd8:	666665b7          	lui	a1,0x66666
    2ddc:	66758593          	addi	a1,a1,1639 # 66666667 <_end+0x66662b27>
    2de0:	00b57633          	and	a2,a0,a1
    2de4:	02c12223          	sw	a2,36(sp)

00002de8 <inst_541>:
    2de8:	0000b537          	lui	a0,0xb
    2dec:	50350513          	addi	a0,a0,1283 # b503 <_end+0x79c3>
    2df0:	ffff55b7          	lui	a1,0xffff5
    2df4:	afd58593          	addi	a1,a1,-1283 # ffff4afd <_end+0xffff0fbd>
    2df8:	00b57633          	and	a2,a0,a1
    2dfc:	02c12423          	sw	a2,40(sp)

00002e00 <inst_542>:
    2e00:	0000b537          	lui	a0,0xb
    2e04:	50350513          	addi	a0,a0,1283 # b503 <_end+0x79c3>
    2e08:	0000b5b7          	lui	a1,0xb
    2e0c:	50558593          	addi	a1,a1,1285 # b505 <_end+0x79c5>
    2e10:	00b57633          	and	a2,a0,a1
    2e14:	02c12623          	sw	a2,44(sp)

00002e18 <inst_543>:
    2e18:	55555537          	lui	a0,0x55555
    2e1c:	55650513          	addi	a0,a0,1366 # 55555556 <_end+0x55551a16>
    2e20:	00300593          	li	a1,3
    2e24:	00b57633          	and	a2,a0,a1
    2e28:	02c12823          	sw	a2,48(sp)

00002e2c <inst_544>:
    2e2c:	55555537          	lui	a0,0x55555
    2e30:	55650513          	addi	a0,a0,1366 # 55555556 <_end+0x55551a16>
    2e34:	555555b7          	lui	a1,0x55555
    2e38:	55558593          	addi	a1,a1,1365 # 55555555 <_end+0x55551a15>
    2e3c:	00b57633          	and	a2,a0,a1
    2e40:	02c12a23          	sw	a2,52(sp)

00002e44 <inst_545>:
    2e44:	55555537          	lui	a0,0x55555
    2e48:	55650513          	addi	a0,a0,1366 # 55555556 <_end+0x55551a16>
    2e4c:	aaaab5b7          	lui	a1,0xaaaab
    2e50:	aaa58593          	addi	a1,a1,-1366 # aaaaaaaa <_end+0xaaaa6f6a>
    2e54:	00b57633          	and	a2,a0,a1
    2e58:	02c12c23          	sw	a2,56(sp)

00002e5c <inst_546>:
    2e5c:	55555537          	lui	a0,0x55555
    2e60:	55650513          	addi	a0,a0,1366 # 55555556 <_end+0x55551a16>
    2e64:	00500593          	li	a1,5
    2e68:	00b57633          	and	a2,a0,a1
    2e6c:	02c12e23          	sw	a2,60(sp)

00002e70 <inst_547>:
    2e70:	55555537          	lui	a0,0x55555
    2e74:	55650513          	addi	a0,a0,1366 # 55555556 <_end+0x55551a16>
    2e78:	333335b7          	lui	a1,0x33333
    2e7c:	33358593          	addi	a1,a1,819 # 33333333 <_end+0x3332f7f3>
    2e80:	00b57633          	and	a2,a0,a1
    2e84:	04c12023          	sw	a2,64(sp)

00002e88 <inst_548>:
    2e88:	55555537          	lui	a0,0x55555
    2e8c:	55650513          	addi	a0,a0,1366 # 55555556 <_end+0x55551a16>
    2e90:	666665b7          	lui	a1,0x66666
    2e94:	66658593          	addi	a1,a1,1638 # 66666666 <_end+0x66662b26>
    2e98:	00b57633          	and	a2,a0,a1
    2e9c:	04c12223          	sw	a2,68(sp)

00002ea0 <inst_549>:
    2ea0:	55555537          	lui	a0,0x55555
    2ea4:	55650513          	addi	a0,a0,1366 # 55555556 <_end+0x55551a16>
    2ea8:	ffff55b7          	lui	a1,0xffff5
    2eac:	afc58593          	addi	a1,a1,-1284 # ffff4afc <_end+0xffff0fbc>
    2eb0:	00b57633          	and	a2,a0,a1
    2eb4:	04c12423          	sw	a2,72(sp)

00002eb8 <inst_550>:
    2eb8:	55555537          	lui	a0,0x55555
    2ebc:	55650513          	addi	a0,a0,1366 # 55555556 <_end+0x55551a16>
    2ec0:	0000b5b7          	lui	a1,0xb
    2ec4:	50458593          	addi	a1,a1,1284 # b504 <_end+0x79c4>
    2ec8:	00b57633          	and	a2,a0,a1
    2ecc:	04c12623          	sw	a2,76(sp)

00002ed0 <inst_551>:
    2ed0:	55555537          	lui	a0,0x55555
    2ed4:	55650513          	addi	a0,a0,1366 # 55555556 <_end+0x55551a16>
    2ed8:	00200593          	li	a1,2
    2edc:	00b57633          	and	a2,a0,a1
    2ee0:	04c12823          	sw	a2,80(sp)

00002ee4 <inst_552>:
    2ee4:	55555537          	lui	a0,0x55555
    2ee8:	55650513          	addi	a0,a0,1366 # 55555556 <_end+0x55551a16>
    2eec:	555555b7          	lui	a1,0x55555
    2ef0:	55458593          	addi	a1,a1,1364 # 55555554 <_end+0x55551a14>
    2ef4:	00b57633          	and	a2,a0,a1
    2ef8:	04c12a23          	sw	a2,84(sp)

00002efc <inst_553>:
    2efc:	55555537          	lui	a0,0x55555
    2f00:	55650513          	addi	a0,a0,1366 # 55555556 <_end+0x55551a16>
    2f04:	00000593          	li	a1,0
    2f08:	00b57633          	and	a2,a0,a1
    2f0c:	04c12c23          	sw	a2,88(sp)

00002f10 <inst_554>:
    2f10:	55555537          	lui	a0,0x55555
    2f14:	55650513          	addi	a0,a0,1366 # 55555556 <_end+0x55551a16>
    2f18:	00400593          	li	a1,4
    2f1c:	00b57633          	and	a2,a0,a1
    2f20:	04c12e23          	sw	a2,92(sp)

00002f24 <inst_555>:
    2f24:	55555537          	lui	a0,0x55555
    2f28:	55650513          	addi	a0,a0,1366 # 55555556 <_end+0x55551a16>
    2f2c:	333335b7          	lui	a1,0x33333
    2f30:	33258593          	addi	a1,a1,818 # 33333332 <_end+0x3332f7f2>
    2f34:	00b57633          	and	a2,a0,a1
    2f38:	06c12023          	sw	a2,96(sp)

00002f3c <inst_556>:
    2f3c:	55555537          	lui	a0,0x55555
    2f40:	55650513          	addi	a0,a0,1366 # 55555556 <_end+0x55551a16>
    2f44:	666665b7          	lui	a1,0x66666
    2f48:	66558593          	addi	a1,a1,1637 # 66666665 <_end+0x66662b25>
    2f4c:	00b57633          	and	a2,a0,a1
    2f50:	06c12223          	sw	a2,100(sp)

00002f54 <inst_557>:
    2f54:	55555537          	lui	a0,0x55555
    2f58:	55650513          	addi	a0,a0,1366 # 55555556 <_end+0x55551a16>
    2f5c:	0000b5b7          	lui	a1,0xb
    2f60:	50358593          	addi	a1,a1,1283 # b503 <_end+0x79c3>
    2f64:	00b57633          	and	a2,a0,a1
    2f68:	06c12423          	sw	a2,104(sp)

00002f6c <inst_558>:
    2f6c:	55555537          	lui	a0,0x55555
    2f70:	55650513          	addi	a0,a0,1366 # 55555556 <_end+0x55551a16>
    2f74:	555555b7          	lui	a1,0x55555
    2f78:	55658593          	addi	a1,a1,1366 # 55555556 <_end+0x55551a16>
    2f7c:	00b57633          	and	a2,a0,a1
    2f80:	06c12623          	sw	a2,108(sp)

00002f84 <inst_559>:
    2f84:	55555537          	lui	a0,0x55555
    2f88:	55650513          	addi	a0,a0,1366 # 55555556 <_end+0x55551a16>
    2f8c:	aaaab5b7          	lui	a1,0xaaaab
    2f90:	aab58593          	addi	a1,a1,-1365 # aaaaaaab <_end+0xaaaa6f6b>
    2f94:	00b57633          	and	a2,a0,a1
    2f98:	06c12823          	sw	a2,112(sp)

00002f9c <inst_560>:
    2f9c:	55555537          	lui	a0,0x55555
    2fa0:	55650513          	addi	a0,a0,1366 # 55555556 <_end+0x55551a16>
    2fa4:	00600593          	li	a1,6
    2fa8:	00b57633          	and	a2,a0,a1
    2fac:	06c12a23          	sw	a2,116(sp)

00002fb0 <inst_561>:
    2fb0:	55555537          	lui	a0,0x55555
    2fb4:	55650513          	addi	a0,a0,1366 # 55555556 <_end+0x55551a16>
    2fb8:	333335b7          	lui	a1,0x33333
    2fbc:	33458593          	addi	a1,a1,820 # 33333334 <_end+0x3332f7f4>
    2fc0:	00b57633          	and	a2,a0,a1
    2fc4:	06c12c23          	sw	a2,120(sp)

00002fc8 <inst_562>:
    2fc8:	55555537          	lui	a0,0x55555
    2fcc:	55650513          	addi	a0,a0,1366 # 55555556 <_end+0x55551a16>
    2fd0:	666665b7          	lui	a1,0x66666
    2fd4:	66758593          	addi	a1,a1,1639 # 66666667 <_end+0x66662b27>
    2fd8:	00b57633          	and	a2,a0,a1
    2fdc:	06c12e23          	sw	a2,124(sp)

00002fe0 <inst_563>:
    2fe0:	55555537          	lui	a0,0x55555
    2fe4:	55650513          	addi	a0,a0,1366 # 55555556 <_end+0x55551a16>
    2fe8:	ffff55b7          	lui	a1,0xffff5
    2fec:	afd58593          	addi	a1,a1,-1283 # ffff4afd <_end+0xffff0fbd>
    2ff0:	00b57633          	and	a2,a0,a1
    2ff4:	08c12023          	sw	a2,128(sp)

00002ff8 <inst_564>:
    2ff8:	55555537          	lui	a0,0x55555
    2ffc:	55650513          	addi	a0,a0,1366 # 55555556 <_end+0x55551a16>
    3000:	0000b5b7          	lui	a1,0xb
    3004:	50558593          	addi	a1,a1,1285 # b505 <_end+0x79c5>
    3008:	00b57633          	and	a2,a0,a1
    300c:	08c12223          	sw	a2,132(sp)

00003010 <inst_565>:
    3010:	aaaab537          	lui	a0,0xaaaab
    3014:	aab50513          	addi	a0,a0,-1365 # aaaaaaab <_end+0xaaaa6f6b>
    3018:	00300593          	li	a1,3
    301c:	00b57633          	and	a2,a0,a1
    3020:	08c12423          	sw	a2,136(sp)

00003024 <inst_566>:
    3024:	aaaab537          	lui	a0,0xaaaab
    3028:	aab50513          	addi	a0,a0,-1365 # aaaaaaab <_end+0xaaaa6f6b>
    302c:	555555b7          	lui	a1,0x55555
    3030:	55558593          	addi	a1,a1,1365 # 55555555 <_end+0x55551a15>
    3034:	00b57633          	and	a2,a0,a1
    3038:	08c12623          	sw	a2,140(sp)

0000303c <inst_567>:
    303c:	aaaab537          	lui	a0,0xaaaab
    3040:	aab50513          	addi	a0,a0,-1365 # aaaaaaab <_end+0xaaaa6f6b>
    3044:	aaaab5b7          	lui	a1,0xaaaab
    3048:	aaa58593          	addi	a1,a1,-1366 # aaaaaaaa <_end+0xaaaa6f6a>
    304c:	00b57633          	and	a2,a0,a1
    3050:	08c12823          	sw	a2,144(sp)

00003054 <inst_568>:
    3054:	aaaab537          	lui	a0,0xaaaab
    3058:	aab50513          	addi	a0,a0,-1365 # aaaaaaab <_end+0xaaaa6f6b>
    305c:	00500593          	li	a1,5
    3060:	00b57633          	and	a2,a0,a1
    3064:	08c12a23          	sw	a2,148(sp)

00003068 <inst_569>:
    3068:	aaaab537          	lui	a0,0xaaaab
    306c:	aab50513          	addi	a0,a0,-1365 # aaaaaaab <_end+0xaaaa6f6b>
    3070:	333335b7          	lui	a1,0x33333
    3074:	33358593          	addi	a1,a1,819 # 33333333 <_end+0x3332f7f3>
    3078:	00b57633          	and	a2,a0,a1
    307c:	08c12c23          	sw	a2,152(sp)

00003080 <inst_570>:
    3080:	aaaab537          	lui	a0,0xaaaab
    3084:	aab50513          	addi	a0,a0,-1365 # aaaaaaab <_end+0xaaaa6f6b>
    3088:	666665b7          	lui	a1,0x66666
    308c:	66658593          	addi	a1,a1,1638 # 66666666 <_end+0x66662b26>
    3090:	00b57633          	and	a2,a0,a1
    3094:	08c12e23          	sw	a2,156(sp)

00003098 <inst_571>:
    3098:	aaaab537          	lui	a0,0xaaaab
    309c:	aab50513          	addi	a0,a0,-1365 # aaaaaaab <_end+0xaaaa6f6b>
    30a0:	ffff55b7          	lui	a1,0xffff5
    30a4:	afc58593          	addi	a1,a1,-1284 # ffff4afc <_end+0xffff0fbc>
    30a8:	00b57633          	and	a2,a0,a1
    30ac:	0ac12023          	sw	a2,160(sp)

000030b0 <inst_572>:
    30b0:	aaaab537          	lui	a0,0xaaaab
    30b4:	aab50513          	addi	a0,a0,-1365 # aaaaaaab <_end+0xaaaa6f6b>
    30b8:	0000b5b7          	lui	a1,0xb
    30bc:	50458593          	addi	a1,a1,1284 # b504 <_end+0x79c4>
    30c0:	00b57633          	and	a2,a0,a1
    30c4:	0ac12223          	sw	a2,164(sp)

000030c8 <inst_573>:
    30c8:	aaaab537          	lui	a0,0xaaaab
    30cc:	aab50513          	addi	a0,a0,-1365 # aaaaaaab <_end+0xaaaa6f6b>
    30d0:	00200593          	li	a1,2
    30d4:	00b57633          	and	a2,a0,a1
    30d8:	0ac12423          	sw	a2,168(sp)

000030dc <inst_574>:
    30dc:	aaaab537          	lui	a0,0xaaaab
    30e0:	aab50513          	addi	a0,a0,-1365 # aaaaaaab <_end+0xaaaa6f6b>
    30e4:	555555b7          	lui	a1,0x55555
    30e8:	55458593          	addi	a1,a1,1364 # 55555554 <_end+0x55551a14>
    30ec:	00b57633          	and	a2,a0,a1
    30f0:	0ac12623          	sw	a2,172(sp)

000030f4 <inst_575>:
    30f4:	aaaab537          	lui	a0,0xaaaab
    30f8:	aab50513          	addi	a0,a0,-1365 # aaaaaaab <_end+0xaaaa6f6b>
    30fc:	00000593          	li	a1,0
    3100:	00b57633          	and	a2,a0,a1
    3104:	0ac12823          	sw	a2,176(sp)

00003108 <inst_576>:
    3108:	aaaab537          	lui	a0,0xaaaab
    310c:	aab50513          	addi	a0,a0,-1365 # aaaaaaab <_end+0xaaaa6f6b>
    3110:	00400593          	li	a1,4
    3114:	00b57633          	and	a2,a0,a1
    3118:	0ac12a23          	sw	a2,180(sp)

0000311c <inst_577>:
    311c:	aaaab537          	lui	a0,0xaaaab
    3120:	aab50513          	addi	a0,a0,-1365 # aaaaaaab <_end+0xaaaa6f6b>
    3124:	333335b7          	lui	a1,0x33333
    3128:	33258593          	addi	a1,a1,818 # 33333332 <_end+0x3332f7f2>
    312c:	00b57633          	and	a2,a0,a1
    3130:	0ac12c23          	sw	a2,184(sp)

00003134 <inst_578>:
    3134:	aaaab537          	lui	a0,0xaaaab
    3138:	aab50513          	addi	a0,a0,-1365 # aaaaaaab <_end+0xaaaa6f6b>
    313c:	666665b7          	lui	a1,0x66666
    3140:	66558593          	addi	a1,a1,1637 # 66666665 <_end+0x66662b25>
    3144:	00b57633          	and	a2,a0,a1
    3148:	0ac12e23          	sw	a2,188(sp)

0000314c <inst_579>:
    314c:	aaaab537          	lui	a0,0xaaaab
    3150:	aab50513          	addi	a0,a0,-1365 # aaaaaaab <_end+0xaaaa6f6b>
    3154:	0000b5b7          	lui	a1,0xb
    3158:	50358593          	addi	a1,a1,1283 # b503 <_end+0x79c3>
    315c:	00b57633          	and	a2,a0,a1
    3160:	0cc12023          	sw	a2,192(sp)

00003164 <inst_580>:
    3164:	aaaab537          	lui	a0,0xaaaab
    3168:	aab50513          	addi	a0,a0,-1365 # aaaaaaab <_end+0xaaaa6f6b>
    316c:	555555b7          	lui	a1,0x55555
    3170:	55658593          	addi	a1,a1,1366 # 55555556 <_end+0x55551a16>
    3174:	00b57633          	and	a2,a0,a1
    3178:	0cc12223          	sw	a2,196(sp)

0000317c <inst_581>:
    317c:	00001537          	lui	a0,0x1
    3180:	80050513          	addi	a0,a0,-2048 # 800 <inst_95+0x4>
    3184:	fff005b7          	lui	a1,0xfff00
    3188:	fff58593          	addi	a1,a1,-1 # ffefffff <_end+0xffefc4bf>
    318c:	00b57633          	and	a2,a0,a1
    3190:	0cc12423          	sw	a2,200(sp)

00003194 <inst_582>:
    3194:	00000513          	li	a0,0
    3198:	20000593          	li	a1,512
    319c:	00b57633          	and	a2,a0,a1
    31a0:	0cc12623          	sw	a2,204(sp)

000031a4 <inst_583>:
    31a4:	08000537          	lui	a0,0x8000
    31a8:	001005b7          	lui	a1,0x100
    31ac:	00b57633          	and	a2,a0,a1
    31b0:	0cc12823          	sw	a2,208(sp)
    31b4:	00000013          	nop
    31b8:	00000013          	nop
    31bc:	00000013          	nop

000031c0 <rvtest_code_end>:
    31c0:	00000297          	auipc	t0,0x0
    31c4:	06028293          	addi	t0,t0,96 # 3220 <begin_signature>
    31c8:	00004337          	lui	t1,0x4
    31cc:	ff030313          	addi	t1,t1,-16 # 3ff0 <_end+0x4b0>
    31d0:	00532023          	sw	t0,0(t1)
    31d4:	00001297          	auipc	t0,0x1
    31d8:	96c28293          	addi	t0,t0,-1684 # 3b40 <_end>
    31dc:	00004337          	lui	t1,0x4
    31e0:	ff430313          	addi	t1,t1,-12 # 3ff4 <_end+0x4b4>
    31e4:	00532023          	sw	t0,0(t1)

000031e8 <self_loop>:
    31e8:	0000006f          	j	31e8 <self_loop>
    31ec:	0000                	unimp
    31ee:	0000                	unimp
    31f0:	0000                	unimp
    31f2:	0000                	unimp
    31f4:	0000                	unimp
    31f6:	0000                	unimp
    31f8:	0000                	unimp
    31fa:	0000                	unimp
    31fc:	0000                	unimp
    31fe:	0000                	unimp
    3200:	0000                	unimp
    3202:	0000                	unimp
