
generated/ori-01.elf:     file format elf32-littleriscv


Disassembly of section .text.init:

00000000 <rvtest_entry_point>:
       0:	feedc0b7          	lui	ra,0xfeedc
       4:	ead08093          	addi	ra,ra,-339 # feedbead <_end+0xfeed945d>
       8:	ff76e137          	lui	sp,0xff76e
       c:	f5610113          	addi	sp,sp,-170 # ff76df56 <_end+0xff76b506>
      10:	7fbb71b7          	lui	gp,0x7fbb7
      14:	fab18193          	addi	gp,gp,-85 # 7fbb6fab <_end+0x7fbb455b>
      18:	bfddb237          	lui	tp,0xbfddb
      1c:	7d520213          	addi	tp,tp,2005 # bfddb7d5 <_end+0xbfdd8d85>
      20:	00000297          	auipc	t0,0x0
      24:	0d828293          	addi	t0,t0,216 # f8 <rvtest_code_begin>
      28:	00002317          	auipc	t1,0x2
      2c:	15830313          	addi	t1,t1,344 # 2180 <rvtest_data_begin>
      30:	b7fbb3b7          	lui	t2,0xb7fbb
      34:	6fa38393          	addi	t2,t2,1786 # b7fbb6fa <_end+0xb7fb8caa>
      38:	5bfde437          	lui	s0,0x5bfde
      3c:	b7d40413          	addi	s0,s0,-1155 # 5bfddb7d <_end+0x5bfdb12d>
      40:	adfef4b7          	lui	s1,0xadfef
      44:	dbe48493          	addi	s1,s1,-578 # adfeedbe <_end+0xadfec36e>
      48:	56ff7537          	lui	a0,0x56ff7
      4c:	6df50513          	addi	a0,a0,1759 # 56ff76df <_end+0x56ff4c8f>
      50:	ab7fc5b7          	lui	a1,0xab7fc
      54:	b6f58593          	addi	a1,a1,-1169 # ab7fbb6f <_end+0xab7f911f>
      58:	d5bfe637          	lui	a2,0xd5bfe
      5c:	db760613          	addi	a2,a2,-585 # d5bfddb7 <_end+0xd5bfb367>
      60:	eadff6b7          	lui	a3,0xeadff
      64:	edb68693          	addi	a3,a3,-293 # eadfeedb <_end+0xeadfc48b>
      68:	f56ff737          	lui	a4,0xf56ff
      6c:	76d70713          	addi	a4,a4,1901 # f56ff76d <_end+0xf56fcd1d>
      70:	fab807b7          	lui	a5,0xfab80
      74:	bb678793          	addi	a5,a5,-1098 # fab7fbb6 <_end+0xfab7d166>
      78:	7d5c0837          	lui	a6,0x7d5c0
      7c:	ddb80813          	addi	a6,a6,-549 # 7d5bfddb <_end+0x7d5bd38b>
      80:	beae08b7          	lui	a7,0xbeae0
      84:	eed88893          	addi	a7,a7,-275 # beadfeed <_end+0xbeadd49d>
      88:	df570937          	lui	s2,0xdf570
      8c:	f7690913          	addi	s2,s2,-138 # df56ff76 <_end+0xdf56d526>
      90:	6fab89b7          	lui	s3,0x6fab8
      94:	fbb98993          	addi	s3,s3,-69 # 6fab7fbb <_end+0x6fab556b>
      98:	b7d5ca37          	lui	s4,0xb7d5c
      9c:	fdda0a13          	addi	s4,s4,-35 # b7d5bfdd <_end+0xb7d5958d>
      a0:	dbeaeab7          	lui	s5,0xdbeae
      a4:	feea8a93          	addi	s5,s5,-18 # dbeadfee <_end+0xdbeab59e>
      a8:	6df57b37          	lui	s6,0x6df57
      ac:	ff7b0b13          	addi	s6,s6,-9 # 6df56ff7 <_end+0x6df545a7>
      b0:	b6fabbb7          	lui	s7,0xb6fab
      b4:	7fbb8b93          	addi	s7,s7,2043 # b6fab7fb <_end+0xb6fa8dab>
      b8:	db7d6c37          	lui	s8,0xdb7d6
      bc:	bfdc0c13          	addi	s8,s8,-1027 # db7d5bfd <_end+0xdb7d31ad>
      c0:	edbebcb7          	lui	s9,0xedbeb
      c4:	dfec8c93          	addi	s9,s9,-514 # edbeadfe <_end+0xedbe83ae>
      c8:	76df5d37          	lui	s10,0x76df5
      cc:	6ffd0d13          	addi	s10,s10,1791 # 76df56ff <_end+0x76df2caf>
      d0:	bb6fbdb7          	lui	s11,0xbb6fb
      d4:	b7fd8d93          	addi	s11,s11,-1153 # bb6fab7f <_end+0xbb6f812f>
      d8:	ddb7de37          	lui	t3,0xddb7d
      dc:	5bfe0e13          	addi	t3,t3,1471 # ddb7d5bf <_end+0xddb7ab6f>
      e0:	eedbfeb7          	lui	t4,0xeedbf
      e4:	adfe8e93          	addi	t4,t4,-1313 # eedbeadf <_end+0xeedbc08f>
      e8:	f76dff37          	lui	t5,0xf76df
      ec:	56ff0f13          	addi	t5,t5,1391 # f76df56f <_end+0xf76dcb1f>
      f0:	fbb70fb7          	lui	t6,0xfbb70
      f4:	ab7f8f93          	addi	t6,t6,-1353 # fbb6fab7 <_end+0xfbb6d067>

000000f8 <rvtest_code_begin>:
      f8:	00002117          	auipc	sp,0x2
      fc:	09810113          	addi	sp,sp,152 # 2190 <begin_signature>

00000100 <inst_0>:
     100:	dff00293          	li	t0,-513
     104:	8002eb13          	ori	s6,t0,-2048
     108:	01612023          	sw	s6,0(sp)

0000010c <inst_1>:
     10c:	00000d93          	li	s11,0
     110:	000ded93          	ori	s11,s11,0
     114:	01b12223          	sw	s11,4(sp)

00000118 <inst_2>:
     118:	333338b7          	lui	a7,0x33333
     11c:	33488893          	addi	a7,a7,820 # 33333334 <_end+0x333308e4>
     120:	7ff8e413          	ori	s0,a7,2047
     124:	00812423          	sw	s0,8(sp)

00000128 <inst_3>:
     128:	ffff5a37          	lui	s4,0xffff5
     12c:	afca0a13          	addi	s4,s4,-1284 # ffff4afc <_end+0xffff20ac>
     130:	001a6093          	ori	ra,s4,1
     134:	00112623          	sw	ra,12(sp)

00000138 <inst_4>:
     138:	80000637          	lui	a2,0x80000
     13c:	02d66993          	ori	s3,a2,45
     140:	01312823          	sw	s3,16(sp)

00000144 <inst_5>:
     144:	80000437          	lui	s0,0x80000
     148:	fff40413          	addi	s0,s0,-1 # 7fffffff <_end+0x7fffd5af>
     14c:	55546193          	ori	gp,s0,1365
     150:	00312a23          	sw	gp,20(sp)

00000154 <inst_6>:
     154:	00100e13          	li	t3,1
     158:	667e6d13          	ori	s10,t3,1639
     15c:	01a12c23          	sw	s10,24(sp)

00000160 <inst_7>:
     160:	00700813          	li	a6,7
     164:	ff986b93          	ori	s7,a6,-7
     168:	01712e23          	sw	s7,28(sp)

0000016c <inst_8>:
     16c:	00040cb7          	lui	s9,0x40
     170:	002cef93          	ori	t6,s9,2
     174:	03f12023          	sw	t6,32(sp)

00000178 <inst_9>:
     178:	20000bb7          	lui	s7,0x20000
     17c:	004be593          	ori	a1,s7,4
     180:	02b12223          	sw	a1,36(sp)

00000184 <inst_10>:
     184:	dff00713          	li	a4,-513
     188:	00876893          	ori	a7,a4,8
     18c:	03112423          	sw	a7,40(sp)

00000190 <inst_11>:
     190:	00200f93          	li	t6,2
     194:	010fe393          	ori	t2,t6,16
     198:	02712623          	sw	t2,44(sp)

0000019c <inst_12>:
     19c:	00008ab7          	lui	s5,0x8
     1a0:	020ae213          	ori	tp,s5,32
     1a4:	02412823          	sw	tp,48(sp)

000001a8 <inst_13>:
     1a8:	000017b7          	lui	a5,0x1
     1ac:	80078793          	addi	a5,a5,-2048 # 800 <inst_128+0xc>
     1b0:	0407e293          	ori	t0,a5,64
     1b4:	02512a23          	sw	t0,52(sp)

000001b8 <inst_14>:
     1b8:	fffc0f37          	lui	t5,0xfffc0
     1bc:	ffff0f13          	addi	t5,t5,-1 # fffbffff <_end+0xfffbd5af>
     1c0:	080f6c93          	ori	s9,t5,128
     1c4:	03912c23          	sw	s9,56(sp)

000001c8 <inst_15>:
     1c8:	ffb00593          	li	a1,-5
     1cc:	1005ef13          	ori	t5,a1,256
     1d0:	03e12e23          	sw	t5,60(sp)

000001d4 <inst_16>:
     1d4:	fff80237          	lui	tp,0xfff80
     1d8:	fff20213          	addi	tp,tp,-1 # fff7ffff <_end+0xfff7d5af>
     1dc:	20026513          	ori	a0,tp,512
     1e0:	04a12023          	sw	a0,64(sp)

000001e4 <inst_17>:
     1e4:	c00006b7          	lui	a3,0xc0000
     1e8:	fff68693          	addi	a3,a3,-1 # bfffffff <_end+0xbfffd5af>
     1ec:	4006e013          	ori	zero,a3,1024
     1f0:	04012223          	sw	zero,68(sp)

000001f4 <inst_18>:
     1f4:	fdf00d13          	li	s10,-33
     1f8:	ffed6313          	ori	t1,s10,-2
     1fc:	04612423          	sw	t1,72(sp)

00000200 <inst_19>:
     200:	0000b9b7          	lui	s3,0xb
     204:	50398993          	addi	s3,s3,1283 # b503 <_end+0x8ab3>
     208:	ffd9e913          	ori	s2,s3,-3
     20c:	05212623          	sw	s2,76(sp)

00000210 <inst_20>:
     210:	100003b7          	lui	t2,0x10000
     214:	ffb3ea93          	ori	s5,t2,-5
     218:	05512823          	sw	s5,80(sp)

0000021c <inst_21>:
     21c:	fff80c37          	lui	s8,0xfff80
     220:	fffc0c13          	addi	s8,s8,-1 # fff7ffff <_end+0xfff7d5af>
     224:	ff7c6813          	ori	a6,s8,-9
     228:	05012a23          	sw	a6,84(sp)
     22c:	00002217          	auipc	tp,0x2
     230:	fbc20213          	addi	tp,tp,-68 # 21e8 <signature_x4_0>

00000234 <inst_22>:
     234:	00000013          	nop
     238:	fef06493          	ori	s1,zero,-17
     23c:	00922023          	sw	s1,0(tp) # 0 <rvtest_entry_point>

00000240 <inst_23>:
     240:	000021b7          	lui	gp,0x2
     244:	fdf1ee13          	ori	t3,gp,-33
     248:	01c22223          	sw	t3,4(tp) # 4 <rvtest_entry_point+0x4>

0000024c <inst_24>:
     24c:	555550b7          	lui	ra,0x55555
     250:	55608093          	addi	ra,ra,1366 # 55555556 <_end+0x55552b06>
     254:	fbf0e793          	ori	a5,ra,-65
     258:	00f22423          	sw	a5,8(tp) # 8 <rvtest_entry_point+0x8>

0000025c <inst_25>:
     25c:	ffff5937          	lui	s2,0xffff5
     260:	afc90913          	addi	s2,s2,-1284 # ffff4afc <_end+0xffff20ac>
     264:	f7f96113          	ori	sp,s2,-129
     268:	00222623          	sw	sp,12(tp) # c <rvtest_entry_point+0xc>

0000026c <inst_26>:
     26c:	aaaabb37          	lui	s6,0xaaaab
     270:	aaab0b13          	addi	s6,s6,-1366 # aaaaaaaa <_end+0xaaaa805a>
     274:	effb6a13          	ori	s4,s6,-257
     278:	01422823          	sw	s4,16(tp) # 10 <rvtest_entry_point+0x10>

0000027c <inst_27>:
     27c:	01000337          	lui	t1,0x1000
     280:	dff36693          	ori	a3,t1,-513
     284:	00d22a23          	sw	a3,20(tp) # 14 <rvtest_entry_point+0x14>

00000288 <inst_28>:
     288:	20000eb7          	lui	t4,0x20000
     28c:	bffee713          	ori	a4,t4,-1025
     290:	00e22c23          	sw	a4,24(tp) # 18 <rvtest_entry_point+0x18>

00000294 <inst_29>:
     294:	ffff5137          	lui	sp,0xffff5
     298:	afc10113          	addi	sp,sp,-1284 # ffff4afc <_end+0xffff20ac>
     29c:	aaa16613          	ori	a2,sp,-1366
     2a0:	00c22e23          	sw	a2,28(tp) # 1c <rvtest_entry_point+0x1c>

000002a4 <inst_30>:
     2a4:	00400493          	li	s1,4
     2a8:	0054ec13          	ori	s8,s1,5
     2ac:	03822023          	sw	s8,32(tp) # 20 <rvtest_entry_point+0x20>

000002b0 <inst_31>:
     2b0:	00800513          	li	a0,8
     2b4:	00656e93          	ori	t4,a0,6
     2b8:	03d22223          	sw	t4,36(tp) # 24 <rvtest_entry_point+0x24>

000002bc <inst_32>:
     2bc:	01000513          	li	a0,16
     2c0:	20056593          	ori	a1,a0,512
     2c4:	02b22423          	sw	a1,40(tp) # 28 <rvtest_entry_point+0x28>

000002c8 <inst_33>:
     2c8:	02000513          	li	a0,32
     2cc:	02c56593          	ori	a1,a0,44
     2d0:	02b22623          	sw	a1,44(tp) # 2c <rvtest_entry_point+0x2c>

000002d4 <inst_34>:
     2d4:	04000513          	li	a0,64
     2d8:	00356593          	ori	a1,a0,3
     2dc:	02b22823          	sw	a1,48(tp) # 30 <rvtest_entry_point+0x30>

000002e0 <inst_35>:
     2e0:	08000513          	li	a0,128
     2e4:	02056593          	ori	a1,a0,32
     2e8:	02b22a23          	sw	a1,52(tp) # 34 <rvtest_entry_point+0x34>

000002ec <inst_36>:
     2ec:	10000513          	li	a0,256
     2f0:	fbf56593          	ori	a1,a0,-65
     2f4:	02b22c23          	sw	a1,56(tp) # 38 <rvtest_entry_point+0x38>

000002f8 <inst_37>:
     2f8:	20000513          	li	a0,512
     2fc:	ffa56593          	ori	a1,a0,-6
     300:	02b22e23          	sw	a1,60(tp) # 3c <rvtest_entry_point+0x3c>

00000304 <inst_38>:
     304:	40000513          	li	a0,1024
     308:	fd356593          	ori	a1,a0,-45
     30c:	04b22023          	sw	a1,64(tp) # 40 <rvtest_entry_point+0x40>

00000310 <inst_39>:
     310:	00001537          	lui	a0,0x1
     314:	00556593          	ori	a1,a0,5
     318:	04b22223          	sw	a1,68(tp) # 44 <rvtest_entry_point+0x44>

0000031c <inst_40>:
     31c:	00004537          	lui	a0,0x4
     320:	66556593          	ori	a1,a0,1637
     324:	04b22423          	sw	a1,72(tp) # 48 <rvtest_entry_point+0x48>

00000328 <inst_41>:
     328:	00010537          	lui	a0,0x10
     32c:	00956593          	ori	a1,a0,9
     330:	04b22623          	sw	a1,76(tp) # 4c <rvtest_entry_point+0x4c>

00000334 <inst_42>:
     334:	00020537          	lui	a0,0x20
     338:	20056593          	ori	a1,a0,512
     33c:	04b22823          	sw	a1,80(tp) # 50 <rvtest_entry_point+0x50>

00000340 <inst_43>:
     340:	00080537          	lui	a0,0x80
     344:	00056593          	ori	a1,a0,0
     348:	04b22a23          	sw	a1,84(tp) # 54 <rvtest_entry_point+0x54>

0000034c <inst_44>:
     34c:	00100537          	lui	a0,0x100
     350:	20056593          	ori	a1,a0,512
     354:	04b22c23          	sw	a1,88(tp) # 58 <rvtest_entry_point+0x58>

00000358 <inst_45>:
     358:	00200537          	lui	a0,0x200
     35c:	fd456593          	ori	a1,a0,-44
     360:	04b22e23          	sw	a1,92(tp) # 5c <rvtest_entry_point+0x5c>

00000364 <inst_46>:
     364:	00400537          	lui	a0,0x400
     368:	dff56593          	ori	a1,a0,-513
     36c:	06b22023          	sw	a1,96(tp) # 60 <rvtest_entry_point+0x60>

00000370 <inst_47>:
     370:	00800537          	lui	a0,0x800
     374:	08056593          	ori	a1,a0,128
     378:	06b22223          	sw	a1,100(tp) # 64 <rvtest_entry_point+0x64>

0000037c <inst_48>:
     37c:	02000537          	lui	a0,0x2000
     380:	fdf56593          	ori	a1,a0,-33
     384:	06b22423          	sw	a1,104(tp) # 68 <offset>

00000388 <inst_49>:
     388:	04000537          	lui	a0,0x4000
     38c:	01056593          	ori	a1,a0,16
     390:	06b22623          	sw	a1,108(tp) # 6c <offset+0x4>

00000394 <inst_50>:
     394:	08000537          	lui	a0,0x8000
     398:	55456593          	ori	a1,a0,1364
     39c:	06b22823          	sw	a1,112(tp) # 70 <offset+0x8>

000003a0 <inst_51>:
     3a0:	40000537          	lui	a0,0x40000
     3a4:	ffa56593          	ori	a1,a0,-6
     3a8:	06b22a23          	sw	a1,116(tp) # 74 <offset+0xc>

000003ac <inst_52>:
     3ac:	ffe00513          	li	a0,-2
     3b0:	fbf56593          	ori	a1,a0,-65
     3b4:	06b22c23          	sw	a1,120(tp) # 78 <offset+0x10>

000003b8 <inst_53>:
     3b8:	ffd00513          	li	a0,-3
     3bc:	ff756593          	ori	a1,a0,-9
     3c0:	06b22e23          	sw	a1,124(tp) # 7c <offset+0x14>

000003c4 <inst_54>:
     3c4:	ff700513          	li	a0,-9
     3c8:	80056593          	ori	a1,a0,-2048
     3cc:	08b22023          	sw	a1,128(tp) # 80 <offset+0x18>

000003d0 <inst_55>:
     3d0:	fef00513          	li	a0,-17
     3d4:	fd356593          	ori	a1,a0,-45
     3d8:	08b22223          	sw	a1,132(tp) # 84 <offset+0x1c>

000003dc <inst_56>:
     3dc:	fbf00513          	li	a0,-65
     3e0:	aaa56593          	ori	a1,a0,-1366
     3e4:	08b22423          	sw	a1,136(tp) # 88 <offset+0x20>

000003e8 <inst_57>:
     3e8:	f7f00513          	li	a0,-129
     3ec:	66556593          	ori	a1,a0,1637
     3f0:	08b22623          	sw	a1,140(tp) # 8c <offset+0x24>

000003f4 <inst_58>:
     3f4:	eff00513          	li	a0,-257
     3f8:	66656593          	ori	a1,a0,1638
     3fc:	08b22823          	sw	a1,144(tp) # 90 <offset+0x28>

00000400 <inst_59>:
     400:	bff00513          	li	a0,-1025
     404:	66656593          	ori	a1,a0,1638
     408:	08b22a23          	sw	a1,148(tp) # 94 <offset+0x2c>

0000040c <inst_60>:
     40c:	fffff537          	lui	a0,0xfffff
     410:	7ff50513          	addi	a0,a0,2047 # fffff7ff <_end+0xffffcdaf>
     414:	7ff56593          	ori	a1,a0,2047
     418:	08b22c23          	sw	a1,152(tp) # 98 <offset+0x30>

0000041c <inst_61>:
     41c:	fffff537          	lui	a0,0xfffff
     420:	fff50513          	addi	a0,a0,-1 # ffffefff <_end+0xffffc5af>
     424:	00756593          	ori	a1,a0,7
     428:	08b22e23          	sw	a1,156(tp) # 9c <offset+0x34>

0000042c <inst_62>:
     42c:	ffffe537          	lui	a0,0xffffe
     430:	fff50513          	addi	a0,a0,-1 # ffffdfff <_end+0xffffb5af>
     434:	fdf56593          	ori	a1,a0,-33
     438:	0ab22023          	sw	a1,160(tp) # a0 <offset+0x38>

0000043c <inst_63>:
     43c:	ffff8537          	lui	a0,0xffff8
     440:	fff50513          	addi	a0,a0,-1 # ffff7fff <_end+0xffff55af>
     444:	02d56593          	ori	a1,a0,45
     448:	0ab22223          	sw	a1,164(tp) # a4 <offset+0x3c>

0000044c <inst_64>:
     44c:	ffff0537          	lui	a0,0xffff0
     450:	fff50513          	addi	a0,a0,-1 # fffeffff <_end+0xfffed5af>
     454:	33256593          	ori	a1,a0,818
     458:	0ab22423          	sw	a1,168(tp) # a8 <offset+0x40>

0000045c <inst_65>:
     45c:	fffe0537          	lui	a0,0xfffe0
     460:	fff50513          	addi	a0,a0,-1 # fffdffff <_end+0xfffdd5af>
     464:	ff656593          	ori	a1,a0,-10
     468:	0ab22623          	sw	a1,172(tp) # ac <offset+0x44>

0000046c <inst_66>:
     46c:	fff00537          	lui	a0,0xfff00
     470:	fff50513          	addi	a0,a0,-1 # ffefffff <_end+0xffefd5af>
     474:	00656593          	ori	a1,a0,6
     478:	0ab22823          	sw	a1,176(tp) # b0 <offset+0x48>

0000047c <inst_67>:
     47c:	ffe00537          	lui	a0,0xffe00
     480:	fff50513          	addi	a0,a0,-1 # ffdfffff <_end+0xffdfd5af>
     484:	c0056593          	ori	a1,a0,-1024
     488:	0ab22a23          	sw	a1,180(tp) # b4 <offset+0x4c>

0000048c <inst_68>:
     48c:	ffc00537          	lui	a0,0xffc00
     490:	fff50513          	addi	a0,a0,-1 # ffbfffff <_end+0xffbfd5af>
     494:	fd456593          	ori	a1,a0,-44
     498:	0ab22c23          	sw	a1,184(tp) # b8 <offset+0x50>

0000049c <inst_69>:
     49c:	ff800537          	lui	a0,0xff800
     4a0:	fff50513          	addi	a0,a0,-1 # ff7fffff <_end+0xff7fd5af>
     4a4:	ff656593          	ori	a1,a0,-10
     4a8:	0ab22e23          	sw	a1,188(tp) # bc <offset+0x54>

000004ac <inst_70>:
     4ac:	ff000537          	lui	a0,0xff000
     4b0:	fff50513          	addi	a0,a0,-1 # feffffff <_end+0xfeffd5af>
     4b4:	3ff56593          	ori	a1,a0,1023
     4b8:	0cb22023          	sw	a1,192(tp) # c0 <offset+0x58>

000004bc <inst_71>:
     4bc:	fe000537          	lui	a0,0xfe000
     4c0:	fff50513          	addi	a0,a0,-1 # fdffffff <_end+0xfdffd5af>
     4c4:	ff856593          	ori	a1,a0,-8
     4c8:	0cb22223          	sw	a1,196(tp) # c4 <offset+0x5c>

000004cc <inst_72>:
     4cc:	fc000537          	lui	a0,0xfc000
     4d0:	fff50513          	addi	a0,a0,-1 # fbffffff <_end+0xfbffd5af>
     4d4:	00456593          	ori	a1,a0,4
     4d8:	0cb22423          	sw	a1,200(tp) # c8 <offset+0x60>

000004dc <inst_73>:
     4dc:	f8000537          	lui	a0,0xf8000
     4e0:	fff50513          	addi	a0,a0,-1 # f7ffffff <_end+0xf7ffd5af>
     4e4:	ffa56593          	ori	a1,a0,-6
     4e8:	0cb22623          	sw	a1,204(tp) # cc <offset+0x64>

000004ec <inst_74>:
     4ec:	f0000537          	lui	a0,0xf0000
     4f0:	fff50513          	addi	a0,a0,-1 # efffffff <_end+0xefffd5af>
     4f4:	ff956593          	ori	a1,a0,-7
     4f8:	0cb22823          	sw	a1,208(tp) # d0 <offset+0x68>

000004fc <inst_75>:
     4fc:	e0000537          	lui	a0,0xe0000
     500:	fff50513          	addi	a0,a0,-1 # dfffffff <_end+0xdfffd5af>
     504:	55456593          	ori	a1,a0,1364
     508:	0cb22a23          	sw	a1,212(tp) # d4 <offset+0x6c>

0000050c <inst_76>:
     50c:	55555537          	lui	a0,0x55555
     510:	55550513          	addi	a0,a0,1365 # 55555555 <_end+0x55552b05>
     514:	eff56593          	ori	a1,a0,-257
     518:	0cb22c23          	sw	a1,216(tp) # d8 <offset+0x70>

0000051c <inst_77>:
     51c:	00300513          	li	a0,3
     520:	00356593          	ori	a1,a0,3
     524:	0cb22e23          	sw	a1,220(tp) # dc <offset+0x74>

00000528 <inst_78>:
     528:	00300513          	li	a0,3
     52c:	55556593          	ori	a1,a0,1365
     530:	0eb22023          	sw	a1,224(tp) # e0 <offset+0x78>

00000534 <inst_79>:
     534:	00300513          	li	a0,3
     538:	aaa56593          	ori	a1,a0,-1366
     53c:	0eb22223          	sw	a1,228(tp) # e4 <offset+0x7c>

00000540 <inst_80>:
     540:	00300513          	li	a0,3
     544:	00556593          	ori	a1,a0,5
     548:	0eb22423          	sw	a1,232(tp) # e8 <offset+0x80>

0000054c <inst_81>:
     54c:	00300513          	li	a0,3
     550:	33356593          	ori	a1,a0,819
     554:	0eb22623          	sw	a1,236(tp) # ec <offset+0x84>

00000558 <inst_82>:
     558:	00300513          	li	a0,3
     55c:	66656593          	ori	a1,a0,1638
     560:	0eb22823          	sw	a1,240(tp) # f0 <offset+0x88>

00000564 <inst_83>:
     564:	00300513          	li	a0,3
     568:	fd356593          	ori	a1,a0,-45
     56c:	0eb22a23          	sw	a1,244(tp) # f4 <offset+0x8c>

00000570 <inst_84>:
     570:	00300513          	li	a0,3
     574:	02d56593          	ori	a1,a0,45
     578:	0eb22c23          	sw	a1,248(tp) # f8 <rvtest_code_begin>

0000057c <inst_85>:
     57c:	00300513          	li	a0,3
     580:	00256593          	ori	a1,a0,2
     584:	0eb22e23          	sw	a1,252(tp) # fc <rvtest_code_begin+0x4>

00000588 <inst_86>:
     588:	00300513          	li	a0,3
     58c:	55456593          	ori	a1,a0,1364
     590:	10b22023          	sw	a1,256(tp) # 100 <inst_0>

00000594 <inst_87>:
     594:	00300513          	li	a0,3
     598:	00056593          	ori	a1,a0,0
     59c:	10b22223          	sw	a1,260(tp) # 104 <inst_0+0x4>

000005a0 <inst_88>:
     5a0:	00300513          	li	a0,3
     5a4:	00456593          	ori	a1,a0,4
     5a8:	10b22423          	sw	a1,264(tp) # 108 <inst_0+0x8>

000005ac <inst_89>:
     5ac:	00300513          	li	a0,3
     5b0:	33256593          	ori	a1,a0,818
     5b4:	10b22623          	sw	a1,268(tp) # 10c <inst_1>

000005b8 <inst_90>:
     5b8:	00300513          	li	a0,3
     5bc:	66556593          	ori	a1,a0,1637
     5c0:	10b22823          	sw	a1,272(tp) # 110 <inst_1+0x4>

000005c4 <inst_91>:
     5c4:	00300513          	li	a0,3
     5c8:	02c56593          	ori	a1,a0,44
     5cc:	10b22a23          	sw	a1,276(tp) # 114 <inst_1+0x8>

000005d0 <inst_92>:
     5d0:	00300513          	li	a0,3
     5d4:	55656593          	ori	a1,a0,1366
     5d8:	10b22c23          	sw	a1,280(tp) # 118 <inst_2>

000005dc <inst_93>:
     5dc:	00300513          	li	a0,3
     5e0:	aab56593          	ori	a1,a0,-1365
     5e4:	10b22e23          	sw	a1,284(tp) # 11c <inst_2+0x4>

000005e8 <inst_94>:
     5e8:	00300513          	li	a0,3
     5ec:	00656593          	ori	a1,a0,6
     5f0:	12b22023          	sw	a1,288(tp) # 120 <inst_2+0x8>

000005f4 <inst_95>:
     5f4:	00300513          	li	a0,3
     5f8:	33456593          	ori	a1,a0,820
     5fc:	12b22223          	sw	a1,292(tp) # 124 <inst_2+0xc>

00000600 <inst_96>:
     600:	00300513          	li	a0,3
     604:	66756593          	ori	a1,a0,1639
     608:	12b22423          	sw	a1,296(tp) # 128 <inst_3>

0000060c <inst_97>:
     60c:	00300513          	li	a0,3
     610:	fd456593          	ori	a1,a0,-44
     614:	12b22623          	sw	a1,300(tp) # 12c <inst_3+0x4>

00000618 <inst_98>:
     618:	00300513          	li	a0,3
     61c:	02e56593          	ori	a1,a0,46
     620:	12b22823          	sw	a1,304(tp) # 130 <inst_3+0x8>

00000624 <inst_99>:
     624:	55555537          	lui	a0,0x55555
     628:	55550513          	addi	a0,a0,1365 # 55555555 <_end+0x55552b05>
     62c:	00356593          	ori	a1,a0,3
     630:	12b22a23          	sw	a1,308(tp) # 134 <inst_3+0xc>

00000634 <inst_100>:
     634:	55555537          	lui	a0,0x55555
     638:	55550513          	addi	a0,a0,1365 # 55555555 <_end+0x55552b05>
     63c:	55556593          	ori	a1,a0,1365
     640:	12b22c23          	sw	a1,312(tp) # 138 <inst_4>

00000644 <inst_101>:
     644:	55555537          	lui	a0,0x55555
     648:	55550513          	addi	a0,a0,1365 # 55555555 <_end+0x55552b05>
     64c:	aaa56593          	ori	a1,a0,-1366
     650:	12b22e23          	sw	a1,316(tp) # 13c <inst_4+0x4>

00000654 <inst_102>:
     654:	55555537          	lui	a0,0x55555
     658:	55550513          	addi	a0,a0,1365 # 55555555 <_end+0x55552b05>
     65c:	00556593          	ori	a1,a0,5
     660:	14b22023          	sw	a1,320(tp) # 140 <inst_4+0x8>

00000664 <inst_103>:
     664:	55555537          	lui	a0,0x55555
     668:	55550513          	addi	a0,a0,1365 # 55555555 <_end+0x55552b05>
     66c:	33356593          	ori	a1,a0,819
     670:	14b22223          	sw	a1,324(tp) # 144 <inst_5>

00000674 <inst_104>:
     674:	55555537          	lui	a0,0x55555
     678:	55550513          	addi	a0,a0,1365 # 55555555 <_end+0x55552b05>
     67c:	66656593          	ori	a1,a0,1638
     680:	14b22423          	sw	a1,328(tp) # 148 <inst_5+0x4>

00000684 <inst_105>:
     684:	55555537          	lui	a0,0x55555
     688:	55550513          	addi	a0,a0,1365 # 55555555 <_end+0x55552b05>
     68c:	fd356593          	ori	a1,a0,-45
     690:	14b22623          	sw	a1,332(tp) # 14c <inst_5+0x8>

00000694 <inst_106>:
     694:	55555537          	lui	a0,0x55555
     698:	55550513          	addi	a0,a0,1365 # 55555555 <_end+0x55552b05>
     69c:	02d56593          	ori	a1,a0,45
     6a0:	14b22823          	sw	a1,336(tp) # 150 <inst_5+0xc>

000006a4 <inst_107>:
     6a4:	55555537          	lui	a0,0x55555
     6a8:	55550513          	addi	a0,a0,1365 # 55555555 <_end+0x55552b05>
     6ac:	00256593          	ori	a1,a0,2
     6b0:	14b22a23          	sw	a1,340(tp) # 154 <inst_6>

000006b4 <inst_108>:
     6b4:	55555537          	lui	a0,0x55555
     6b8:	55550513          	addi	a0,a0,1365 # 55555555 <_end+0x55552b05>
     6bc:	55456593          	ori	a1,a0,1364
     6c0:	14b22c23          	sw	a1,344(tp) # 158 <inst_6+0x4>

000006c4 <inst_109>:
     6c4:	55555537          	lui	a0,0x55555
     6c8:	55550513          	addi	a0,a0,1365 # 55555555 <_end+0x55552b05>
     6cc:	00056593          	ori	a1,a0,0
     6d0:	14b22e23          	sw	a1,348(tp) # 15c <inst_6+0x8>

000006d4 <inst_110>:
     6d4:	55555537          	lui	a0,0x55555
     6d8:	55550513          	addi	a0,a0,1365 # 55555555 <_end+0x55552b05>
     6dc:	00456593          	ori	a1,a0,4
     6e0:	16b22023          	sw	a1,352(tp) # 160 <inst_7>

000006e4 <inst_111>:
     6e4:	55555537          	lui	a0,0x55555
     6e8:	55550513          	addi	a0,a0,1365 # 55555555 <_end+0x55552b05>
     6ec:	33256593          	ori	a1,a0,818
     6f0:	16b22223          	sw	a1,356(tp) # 164 <inst_7+0x4>

000006f4 <inst_112>:
     6f4:	55555537          	lui	a0,0x55555
     6f8:	55550513          	addi	a0,a0,1365 # 55555555 <_end+0x55552b05>
     6fc:	66556593          	ori	a1,a0,1637
     700:	16b22423          	sw	a1,360(tp) # 168 <inst_7+0x8>

00000704 <inst_113>:
     704:	55555537          	lui	a0,0x55555
     708:	55550513          	addi	a0,a0,1365 # 55555555 <_end+0x55552b05>
     70c:	02c56593          	ori	a1,a0,44
     710:	16b22623          	sw	a1,364(tp) # 16c <inst_8>

00000714 <inst_114>:
     714:	55555537          	lui	a0,0x55555
     718:	55550513          	addi	a0,a0,1365 # 55555555 <_end+0x55552b05>
     71c:	55656593          	ori	a1,a0,1366
     720:	16b22823          	sw	a1,368(tp) # 170 <inst_8+0x4>

00000724 <inst_115>:
     724:	55555537          	lui	a0,0x55555
     728:	55550513          	addi	a0,a0,1365 # 55555555 <_end+0x55552b05>
     72c:	aab56593          	ori	a1,a0,-1365
     730:	16b22a23          	sw	a1,372(tp) # 174 <inst_8+0x8>

00000734 <inst_116>:
     734:	55555537          	lui	a0,0x55555
     738:	55550513          	addi	a0,a0,1365 # 55555555 <_end+0x55552b05>
     73c:	00656593          	ori	a1,a0,6
     740:	16b22c23          	sw	a1,376(tp) # 178 <inst_9>

00000744 <inst_117>:
     744:	55555537          	lui	a0,0x55555
     748:	55550513          	addi	a0,a0,1365 # 55555555 <_end+0x55552b05>
     74c:	33456593          	ori	a1,a0,820
     750:	16b22e23          	sw	a1,380(tp) # 17c <inst_9+0x4>

00000754 <inst_118>:
     754:	55555537          	lui	a0,0x55555
     758:	55550513          	addi	a0,a0,1365 # 55555555 <_end+0x55552b05>
     75c:	66756593          	ori	a1,a0,1639
     760:	18b22023          	sw	a1,384(tp) # 180 <inst_9+0x8>

00000764 <inst_119>:
     764:	55555537          	lui	a0,0x55555
     768:	55550513          	addi	a0,a0,1365 # 55555555 <_end+0x55552b05>
     76c:	fd456593          	ori	a1,a0,-44
     770:	18b22223          	sw	a1,388(tp) # 184 <inst_10>

00000774 <inst_120>:
     774:	55555537          	lui	a0,0x55555
     778:	55550513          	addi	a0,a0,1365 # 55555555 <_end+0x55552b05>
     77c:	02e56593          	ori	a1,a0,46
     780:	18b22423          	sw	a1,392(tp) # 188 <inst_10+0x4>

00000784 <inst_121>:
     784:	aaaab537          	lui	a0,0xaaaab
     788:	aaa50513          	addi	a0,a0,-1366 # aaaaaaaa <_end+0xaaaa805a>
     78c:	00356593          	ori	a1,a0,3
     790:	18b22623          	sw	a1,396(tp) # 18c <inst_10+0x8>

00000794 <inst_122>:
     794:	aaaab537          	lui	a0,0xaaaab
     798:	aaa50513          	addi	a0,a0,-1366 # aaaaaaaa <_end+0xaaaa805a>
     79c:	55556593          	ori	a1,a0,1365
     7a0:	18b22823          	sw	a1,400(tp) # 190 <inst_11>

000007a4 <inst_123>:
     7a4:	aaaab537          	lui	a0,0xaaaab
     7a8:	aaa50513          	addi	a0,a0,-1366 # aaaaaaaa <_end+0xaaaa805a>
     7ac:	aaa56593          	ori	a1,a0,-1366
     7b0:	18b22a23          	sw	a1,404(tp) # 194 <inst_11+0x4>

000007b4 <inst_124>:
     7b4:	aaaab537          	lui	a0,0xaaaab
     7b8:	aaa50513          	addi	a0,a0,-1366 # aaaaaaaa <_end+0xaaaa805a>
     7bc:	00556593          	ori	a1,a0,5
     7c0:	18b22c23          	sw	a1,408(tp) # 198 <inst_11+0x8>

000007c4 <inst_125>:
     7c4:	aaaab537          	lui	a0,0xaaaab
     7c8:	aaa50513          	addi	a0,a0,-1366 # aaaaaaaa <_end+0xaaaa805a>
     7cc:	33356593          	ori	a1,a0,819
     7d0:	18b22e23          	sw	a1,412(tp) # 19c <inst_12>

000007d4 <inst_126>:
     7d4:	aaaab537          	lui	a0,0xaaaab
     7d8:	aaa50513          	addi	a0,a0,-1366 # aaaaaaaa <_end+0xaaaa805a>
     7dc:	66656593          	ori	a1,a0,1638
     7e0:	1ab22023          	sw	a1,416(tp) # 1a0 <inst_12+0x4>

000007e4 <inst_127>:
     7e4:	aaaab537          	lui	a0,0xaaaab
     7e8:	aaa50513          	addi	a0,a0,-1366 # aaaaaaaa <_end+0xaaaa805a>
     7ec:	fd356593          	ori	a1,a0,-45
     7f0:	1ab22223          	sw	a1,420(tp) # 1a4 <inst_12+0x8>

000007f4 <inst_128>:
     7f4:	aaaab537          	lui	a0,0xaaaab
     7f8:	aaa50513          	addi	a0,a0,-1366 # aaaaaaaa <_end+0xaaaa805a>
     7fc:	02d56593          	ori	a1,a0,45
     800:	1ab22423          	sw	a1,424(tp) # 1a8 <inst_13>

00000804 <inst_129>:
     804:	aaaab537          	lui	a0,0xaaaab
     808:	aaa50513          	addi	a0,a0,-1366 # aaaaaaaa <_end+0xaaaa805a>
     80c:	00256593          	ori	a1,a0,2
     810:	1ab22623          	sw	a1,428(tp) # 1ac <inst_13+0x4>

00000814 <inst_130>:
     814:	aaaab537          	lui	a0,0xaaaab
     818:	aaa50513          	addi	a0,a0,-1366 # aaaaaaaa <_end+0xaaaa805a>
     81c:	55456593          	ori	a1,a0,1364
     820:	1ab22823          	sw	a1,432(tp) # 1b0 <inst_13+0x8>

00000824 <inst_131>:
     824:	aaaab537          	lui	a0,0xaaaab
     828:	aaa50513          	addi	a0,a0,-1366 # aaaaaaaa <_end+0xaaaa805a>
     82c:	00056593          	ori	a1,a0,0
     830:	1ab22a23          	sw	a1,436(tp) # 1b4 <inst_13+0xc>

00000834 <inst_132>:
     834:	aaaab537          	lui	a0,0xaaaab
     838:	aaa50513          	addi	a0,a0,-1366 # aaaaaaaa <_end+0xaaaa805a>
     83c:	00456593          	ori	a1,a0,4
     840:	1ab22c23          	sw	a1,440(tp) # 1b8 <inst_14>

00000844 <inst_133>:
     844:	aaaab537          	lui	a0,0xaaaab
     848:	aaa50513          	addi	a0,a0,-1366 # aaaaaaaa <_end+0xaaaa805a>
     84c:	33256593          	ori	a1,a0,818
     850:	1ab22e23          	sw	a1,444(tp) # 1bc <inst_14+0x4>

00000854 <inst_134>:
     854:	aaaab537          	lui	a0,0xaaaab
     858:	aaa50513          	addi	a0,a0,-1366 # aaaaaaaa <_end+0xaaaa805a>
     85c:	66556593          	ori	a1,a0,1637
     860:	1cb22023          	sw	a1,448(tp) # 1c0 <inst_14+0x8>

00000864 <inst_135>:
     864:	aaaab537          	lui	a0,0xaaaab
     868:	aaa50513          	addi	a0,a0,-1366 # aaaaaaaa <_end+0xaaaa805a>
     86c:	02c56593          	ori	a1,a0,44
     870:	1cb22223          	sw	a1,452(tp) # 1c4 <inst_14+0xc>

00000874 <inst_136>:
     874:	aaaab537          	lui	a0,0xaaaab
     878:	aaa50513          	addi	a0,a0,-1366 # aaaaaaaa <_end+0xaaaa805a>
     87c:	55656593          	ori	a1,a0,1366
     880:	1cb22423          	sw	a1,456(tp) # 1c8 <inst_15>

00000884 <inst_137>:
     884:	aaaab537          	lui	a0,0xaaaab
     888:	aaa50513          	addi	a0,a0,-1366 # aaaaaaaa <_end+0xaaaa805a>
     88c:	aab56593          	ori	a1,a0,-1365
     890:	1cb22623          	sw	a1,460(tp) # 1cc <inst_15+0x4>

00000894 <inst_138>:
     894:	aaaab537          	lui	a0,0xaaaab
     898:	aaa50513          	addi	a0,a0,-1366 # aaaaaaaa <_end+0xaaaa805a>
     89c:	00656593          	ori	a1,a0,6
     8a0:	1cb22823          	sw	a1,464(tp) # 1d0 <inst_15+0x8>

000008a4 <inst_139>:
     8a4:	aaaab537          	lui	a0,0xaaaab
     8a8:	aaa50513          	addi	a0,a0,-1366 # aaaaaaaa <_end+0xaaaa805a>
     8ac:	33456593          	ori	a1,a0,820
     8b0:	1cb22a23          	sw	a1,468(tp) # 1d4 <inst_16>

000008b4 <inst_140>:
     8b4:	aaaab537          	lui	a0,0xaaaab
     8b8:	aaa50513          	addi	a0,a0,-1366 # aaaaaaaa <_end+0xaaaa805a>
     8bc:	66756593          	ori	a1,a0,1639
     8c0:	1cb22c23          	sw	a1,472(tp) # 1d8 <inst_16+0x4>

000008c4 <inst_141>:
     8c4:	aaaab537          	lui	a0,0xaaaab
     8c8:	aaa50513          	addi	a0,a0,-1366 # aaaaaaaa <_end+0xaaaa805a>
     8cc:	fd456593          	ori	a1,a0,-44
     8d0:	1cb22e23          	sw	a1,476(tp) # 1dc <inst_16+0x8>

000008d4 <inst_142>:
     8d4:	aaaab537          	lui	a0,0xaaaab
     8d8:	aaa50513          	addi	a0,a0,-1366 # aaaaaaaa <_end+0xaaaa805a>
     8dc:	02e56593          	ori	a1,a0,46
     8e0:	1eb22023          	sw	a1,480(tp) # 1e0 <inst_16+0xc>

000008e4 <inst_143>:
     8e4:	00500513          	li	a0,5
     8e8:	00356593          	ori	a1,a0,3
     8ec:	1eb22223          	sw	a1,484(tp) # 1e4 <inst_17>

000008f0 <inst_144>:
     8f0:	00500513          	li	a0,5
     8f4:	55556593          	ori	a1,a0,1365
     8f8:	1eb22423          	sw	a1,488(tp) # 1e8 <inst_17+0x4>

000008fc <inst_145>:
     8fc:	00500513          	li	a0,5
     900:	aaa56593          	ori	a1,a0,-1366
     904:	1eb22623          	sw	a1,492(tp) # 1ec <inst_17+0x8>

00000908 <inst_146>:
     908:	00500513          	li	a0,5
     90c:	00556593          	ori	a1,a0,5
     910:	1eb22823          	sw	a1,496(tp) # 1f0 <inst_17+0xc>

00000914 <inst_147>:
     914:	00500513          	li	a0,5
     918:	33356593          	ori	a1,a0,819
     91c:	1eb22a23          	sw	a1,500(tp) # 1f4 <inst_18>

00000920 <inst_148>:
     920:	00500513          	li	a0,5
     924:	66656593          	ori	a1,a0,1638
     928:	1eb22c23          	sw	a1,504(tp) # 1f8 <inst_18+0x4>

0000092c <inst_149>:
     92c:	00500513          	li	a0,5
     930:	fd356593          	ori	a1,a0,-45
     934:	1eb22e23          	sw	a1,508(tp) # 1fc <inst_18+0x8>

00000938 <inst_150>:
     938:	00500513          	li	a0,5
     93c:	02d56593          	ori	a1,a0,45
     940:	20b22023          	sw	a1,512(tp) # 200 <inst_19>

00000944 <inst_151>:
     944:	00500513          	li	a0,5
     948:	00256593          	ori	a1,a0,2
     94c:	20b22223          	sw	a1,516(tp) # 204 <inst_19+0x4>

00000950 <inst_152>:
     950:	00500513          	li	a0,5
     954:	55456593          	ori	a1,a0,1364
     958:	20b22423          	sw	a1,520(tp) # 208 <inst_19+0x8>

0000095c <inst_153>:
     95c:	00500513          	li	a0,5
     960:	00056593          	ori	a1,a0,0
     964:	20b22623          	sw	a1,524(tp) # 20c <inst_19+0xc>

00000968 <inst_154>:
     968:	00500513          	li	a0,5
     96c:	00456593          	ori	a1,a0,4
     970:	20b22823          	sw	a1,528(tp) # 210 <inst_20>

00000974 <inst_155>:
     974:	00500513          	li	a0,5
     978:	33256593          	ori	a1,a0,818
     97c:	20b22a23          	sw	a1,532(tp) # 214 <inst_20+0x4>

00000980 <inst_156>:
     980:	00500513          	li	a0,5
     984:	66556593          	ori	a1,a0,1637
     988:	20b22c23          	sw	a1,536(tp) # 218 <inst_20+0x8>

0000098c <inst_157>:
     98c:	00500513          	li	a0,5
     990:	02c56593          	ori	a1,a0,44
     994:	20b22e23          	sw	a1,540(tp) # 21c <inst_21>

00000998 <inst_158>:
     998:	00500513          	li	a0,5
     99c:	55656593          	ori	a1,a0,1366
     9a0:	22b22023          	sw	a1,544(tp) # 220 <inst_21+0x4>

000009a4 <inst_159>:
     9a4:	00500513          	li	a0,5
     9a8:	aab56593          	ori	a1,a0,-1365
     9ac:	22b22223          	sw	a1,548(tp) # 224 <inst_21+0x8>

000009b0 <inst_160>:
     9b0:	00500513          	li	a0,5
     9b4:	00656593          	ori	a1,a0,6
     9b8:	22b22423          	sw	a1,552(tp) # 228 <inst_21+0xc>

000009bc <inst_161>:
     9bc:	00500513          	li	a0,5
     9c0:	33456593          	ori	a1,a0,820
     9c4:	22b22623          	sw	a1,556(tp) # 22c <inst_21+0x10>

000009c8 <inst_162>:
     9c8:	00500513          	li	a0,5
     9cc:	66756593          	ori	a1,a0,1639
     9d0:	22b22823          	sw	a1,560(tp) # 230 <inst_21+0x14>

000009d4 <inst_163>:
     9d4:	00500513          	li	a0,5
     9d8:	fd456593          	ori	a1,a0,-44
     9dc:	22b22a23          	sw	a1,564(tp) # 234 <inst_22>

000009e0 <inst_164>:
     9e0:	00500513          	li	a0,5
     9e4:	02e56593          	ori	a1,a0,46
     9e8:	22b22c23          	sw	a1,568(tp) # 238 <inst_22+0x4>

000009ec <inst_165>:
     9ec:	33333537          	lui	a0,0x33333
     9f0:	33350513          	addi	a0,a0,819 # 33333333 <_end+0x333308e3>
     9f4:	00356593          	ori	a1,a0,3
     9f8:	22b22e23          	sw	a1,572(tp) # 23c <inst_22+0x8>

000009fc <inst_166>:
     9fc:	33333537          	lui	a0,0x33333
     a00:	33350513          	addi	a0,a0,819 # 33333333 <_end+0x333308e3>
     a04:	55556593          	ori	a1,a0,1365
     a08:	24b22023          	sw	a1,576(tp) # 240 <inst_23>

00000a0c <inst_167>:
     a0c:	33333537          	lui	a0,0x33333
     a10:	33350513          	addi	a0,a0,819 # 33333333 <_end+0x333308e3>
     a14:	aaa56593          	ori	a1,a0,-1366
     a18:	24b22223          	sw	a1,580(tp) # 244 <inst_23+0x4>

00000a1c <inst_168>:
     a1c:	33333537          	lui	a0,0x33333
     a20:	33350513          	addi	a0,a0,819 # 33333333 <_end+0x333308e3>
     a24:	00556593          	ori	a1,a0,5
     a28:	24b22423          	sw	a1,584(tp) # 248 <inst_23+0x8>

00000a2c <inst_169>:
     a2c:	33333537          	lui	a0,0x33333
     a30:	33350513          	addi	a0,a0,819 # 33333333 <_end+0x333308e3>
     a34:	33356593          	ori	a1,a0,819
     a38:	24b22623          	sw	a1,588(tp) # 24c <inst_24>

00000a3c <inst_170>:
     a3c:	33333537          	lui	a0,0x33333
     a40:	33350513          	addi	a0,a0,819 # 33333333 <_end+0x333308e3>
     a44:	66656593          	ori	a1,a0,1638
     a48:	24b22823          	sw	a1,592(tp) # 250 <inst_24+0x4>

00000a4c <inst_171>:
     a4c:	33333537          	lui	a0,0x33333
     a50:	33350513          	addi	a0,a0,819 # 33333333 <_end+0x333308e3>
     a54:	fd356593          	ori	a1,a0,-45
     a58:	24b22a23          	sw	a1,596(tp) # 254 <inst_24+0x8>

00000a5c <inst_172>:
     a5c:	33333537          	lui	a0,0x33333
     a60:	33350513          	addi	a0,a0,819 # 33333333 <_end+0x333308e3>
     a64:	02d56593          	ori	a1,a0,45
     a68:	24b22c23          	sw	a1,600(tp) # 258 <inst_24+0xc>

00000a6c <inst_173>:
     a6c:	33333537          	lui	a0,0x33333
     a70:	33350513          	addi	a0,a0,819 # 33333333 <_end+0x333308e3>
     a74:	00256593          	ori	a1,a0,2
     a78:	24b22e23          	sw	a1,604(tp) # 25c <inst_25>

00000a7c <inst_174>:
     a7c:	33333537          	lui	a0,0x33333
     a80:	33350513          	addi	a0,a0,819 # 33333333 <_end+0x333308e3>
     a84:	55456593          	ori	a1,a0,1364
     a88:	26b22023          	sw	a1,608(tp) # 260 <inst_25+0x4>

00000a8c <inst_175>:
     a8c:	33333537          	lui	a0,0x33333
     a90:	33350513          	addi	a0,a0,819 # 33333333 <_end+0x333308e3>
     a94:	00056593          	ori	a1,a0,0
     a98:	26b22223          	sw	a1,612(tp) # 264 <inst_25+0x8>

00000a9c <inst_176>:
     a9c:	33333537          	lui	a0,0x33333
     aa0:	33350513          	addi	a0,a0,819 # 33333333 <_end+0x333308e3>
     aa4:	00456593          	ori	a1,a0,4
     aa8:	26b22423          	sw	a1,616(tp) # 268 <inst_25+0xc>

00000aac <inst_177>:
     aac:	33333537          	lui	a0,0x33333
     ab0:	33350513          	addi	a0,a0,819 # 33333333 <_end+0x333308e3>
     ab4:	33256593          	ori	a1,a0,818
     ab8:	26b22623          	sw	a1,620(tp) # 26c <inst_26>

00000abc <inst_178>:
     abc:	33333537          	lui	a0,0x33333
     ac0:	33350513          	addi	a0,a0,819 # 33333333 <_end+0x333308e3>
     ac4:	66556593          	ori	a1,a0,1637
     ac8:	26b22823          	sw	a1,624(tp) # 270 <inst_26+0x4>

00000acc <inst_179>:
     acc:	33333537          	lui	a0,0x33333
     ad0:	33350513          	addi	a0,a0,819 # 33333333 <_end+0x333308e3>
     ad4:	02c56593          	ori	a1,a0,44
     ad8:	26b22a23          	sw	a1,628(tp) # 274 <inst_26+0x8>

00000adc <inst_180>:
     adc:	33333537          	lui	a0,0x33333
     ae0:	33350513          	addi	a0,a0,819 # 33333333 <_end+0x333308e3>
     ae4:	55656593          	ori	a1,a0,1366
     ae8:	26b22c23          	sw	a1,632(tp) # 278 <inst_26+0xc>

00000aec <inst_181>:
     aec:	33333537          	lui	a0,0x33333
     af0:	33350513          	addi	a0,a0,819 # 33333333 <_end+0x333308e3>
     af4:	aab56593          	ori	a1,a0,-1365
     af8:	26b22e23          	sw	a1,636(tp) # 27c <inst_27>

00000afc <inst_182>:
     afc:	33333537          	lui	a0,0x33333
     b00:	33350513          	addi	a0,a0,819 # 33333333 <_end+0x333308e3>
     b04:	00656593          	ori	a1,a0,6
     b08:	28b22023          	sw	a1,640(tp) # 280 <inst_27+0x4>

00000b0c <inst_183>:
     b0c:	33333537          	lui	a0,0x33333
     b10:	33350513          	addi	a0,a0,819 # 33333333 <_end+0x333308e3>
     b14:	33456593          	ori	a1,a0,820
     b18:	28b22223          	sw	a1,644(tp) # 284 <inst_27+0x8>

00000b1c <inst_184>:
     b1c:	33333537          	lui	a0,0x33333
     b20:	33350513          	addi	a0,a0,819 # 33333333 <_end+0x333308e3>
     b24:	66756593          	ori	a1,a0,1639
     b28:	28b22423          	sw	a1,648(tp) # 288 <inst_28>

00000b2c <inst_185>:
     b2c:	33333537          	lui	a0,0x33333
     b30:	33350513          	addi	a0,a0,819 # 33333333 <_end+0x333308e3>
     b34:	fd456593          	ori	a1,a0,-44
     b38:	28b22623          	sw	a1,652(tp) # 28c <inst_28+0x4>

00000b3c <inst_186>:
     b3c:	33333537          	lui	a0,0x33333
     b40:	33350513          	addi	a0,a0,819 # 33333333 <_end+0x333308e3>
     b44:	02e56593          	ori	a1,a0,46
     b48:	28b22823          	sw	a1,656(tp) # 290 <inst_28+0x8>

00000b4c <inst_187>:
     b4c:	66666537          	lui	a0,0x66666
     b50:	66650513          	addi	a0,a0,1638 # 66666666 <_end+0x66663c16>
     b54:	00356593          	ori	a1,a0,3
     b58:	28b22a23          	sw	a1,660(tp) # 294 <inst_29>

00000b5c <inst_188>:
     b5c:	66666537          	lui	a0,0x66666
     b60:	66650513          	addi	a0,a0,1638 # 66666666 <_end+0x66663c16>
     b64:	55556593          	ori	a1,a0,1365
     b68:	28b22c23          	sw	a1,664(tp) # 298 <inst_29+0x4>

00000b6c <inst_189>:
     b6c:	66666537          	lui	a0,0x66666
     b70:	66650513          	addi	a0,a0,1638 # 66666666 <_end+0x66663c16>
     b74:	aaa56593          	ori	a1,a0,-1366
     b78:	28b22e23          	sw	a1,668(tp) # 29c <inst_29+0x8>

00000b7c <inst_190>:
     b7c:	66666537          	lui	a0,0x66666
     b80:	66650513          	addi	a0,a0,1638 # 66666666 <_end+0x66663c16>
     b84:	00556593          	ori	a1,a0,5
     b88:	2ab22023          	sw	a1,672(tp) # 2a0 <inst_29+0xc>

00000b8c <inst_191>:
     b8c:	66666537          	lui	a0,0x66666
     b90:	66650513          	addi	a0,a0,1638 # 66666666 <_end+0x66663c16>
     b94:	33356593          	ori	a1,a0,819
     b98:	2ab22223          	sw	a1,676(tp) # 2a4 <inst_30>

00000b9c <inst_192>:
     b9c:	66666537          	lui	a0,0x66666
     ba0:	66650513          	addi	a0,a0,1638 # 66666666 <_end+0x66663c16>
     ba4:	66656593          	ori	a1,a0,1638
     ba8:	2ab22423          	sw	a1,680(tp) # 2a8 <inst_30+0x4>

00000bac <inst_193>:
     bac:	66666537          	lui	a0,0x66666
     bb0:	66650513          	addi	a0,a0,1638 # 66666666 <_end+0x66663c16>
     bb4:	fd356593          	ori	a1,a0,-45
     bb8:	2ab22623          	sw	a1,684(tp) # 2ac <inst_30+0x8>

00000bbc <inst_194>:
     bbc:	66666537          	lui	a0,0x66666
     bc0:	66650513          	addi	a0,a0,1638 # 66666666 <_end+0x66663c16>
     bc4:	02d56593          	ori	a1,a0,45
     bc8:	2ab22823          	sw	a1,688(tp) # 2b0 <inst_31>

00000bcc <inst_195>:
     bcc:	66666537          	lui	a0,0x66666
     bd0:	66650513          	addi	a0,a0,1638 # 66666666 <_end+0x66663c16>
     bd4:	00256593          	ori	a1,a0,2
     bd8:	2ab22a23          	sw	a1,692(tp) # 2b4 <inst_31+0x4>

00000bdc <inst_196>:
     bdc:	66666537          	lui	a0,0x66666
     be0:	66650513          	addi	a0,a0,1638 # 66666666 <_end+0x66663c16>
     be4:	55456593          	ori	a1,a0,1364
     be8:	2ab22c23          	sw	a1,696(tp) # 2b8 <inst_31+0x8>

00000bec <inst_197>:
     bec:	66666537          	lui	a0,0x66666
     bf0:	66650513          	addi	a0,a0,1638 # 66666666 <_end+0x66663c16>
     bf4:	00056593          	ori	a1,a0,0
     bf8:	2ab22e23          	sw	a1,700(tp) # 2bc <inst_32>

00000bfc <inst_198>:
     bfc:	66666537          	lui	a0,0x66666
     c00:	66650513          	addi	a0,a0,1638 # 66666666 <_end+0x66663c16>
     c04:	00456593          	ori	a1,a0,4
     c08:	2cb22023          	sw	a1,704(tp) # 2c0 <inst_32+0x4>

00000c0c <inst_199>:
     c0c:	66666537          	lui	a0,0x66666
     c10:	66650513          	addi	a0,a0,1638 # 66666666 <_end+0x66663c16>
     c14:	33256593          	ori	a1,a0,818
     c18:	2cb22223          	sw	a1,708(tp) # 2c4 <inst_32+0x8>

00000c1c <inst_200>:
     c1c:	66666537          	lui	a0,0x66666
     c20:	66650513          	addi	a0,a0,1638 # 66666666 <_end+0x66663c16>
     c24:	66556593          	ori	a1,a0,1637
     c28:	2cb22423          	sw	a1,712(tp) # 2c8 <inst_33>

00000c2c <inst_201>:
     c2c:	66666537          	lui	a0,0x66666
     c30:	66650513          	addi	a0,a0,1638 # 66666666 <_end+0x66663c16>
     c34:	02c56593          	ori	a1,a0,44
     c38:	2cb22623          	sw	a1,716(tp) # 2cc <inst_33+0x4>

00000c3c <inst_202>:
     c3c:	66666537          	lui	a0,0x66666
     c40:	66650513          	addi	a0,a0,1638 # 66666666 <_end+0x66663c16>
     c44:	55656593          	ori	a1,a0,1366
     c48:	2cb22823          	sw	a1,720(tp) # 2d0 <inst_33+0x8>

00000c4c <inst_203>:
     c4c:	66666537          	lui	a0,0x66666
     c50:	66650513          	addi	a0,a0,1638 # 66666666 <_end+0x66663c16>
     c54:	aab56593          	ori	a1,a0,-1365
     c58:	2cb22a23          	sw	a1,724(tp) # 2d4 <inst_34>

00000c5c <inst_204>:
     c5c:	66666537          	lui	a0,0x66666
     c60:	66650513          	addi	a0,a0,1638 # 66666666 <_end+0x66663c16>
     c64:	00656593          	ori	a1,a0,6
     c68:	2cb22c23          	sw	a1,728(tp) # 2d8 <inst_34+0x4>

00000c6c <inst_205>:
     c6c:	66666537          	lui	a0,0x66666
     c70:	66650513          	addi	a0,a0,1638 # 66666666 <_end+0x66663c16>
     c74:	33456593          	ori	a1,a0,820
     c78:	2cb22e23          	sw	a1,732(tp) # 2dc <inst_34+0x8>

00000c7c <inst_206>:
     c7c:	66666537          	lui	a0,0x66666
     c80:	66650513          	addi	a0,a0,1638 # 66666666 <_end+0x66663c16>
     c84:	66756593          	ori	a1,a0,1639
     c88:	2eb22023          	sw	a1,736(tp) # 2e0 <inst_35>

00000c8c <inst_207>:
     c8c:	66666537          	lui	a0,0x66666
     c90:	66650513          	addi	a0,a0,1638 # 66666666 <_end+0x66663c16>
     c94:	fd456593          	ori	a1,a0,-44
     c98:	2eb22223          	sw	a1,740(tp) # 2e4 <inst_35+0x4>

00000c9c <inst_208>:
     c9c:	66666537          	lui	a0,0x66666
     ca0:	66650513          	addi	a0,a0,1638 # 66666666 <_end+0x66663c16>
     ca4:	02e56593          	ori	a1,a0,46
     ca8:	2eb22423          	sw	a1,744(tp) # 2e8 <inst_35+0x8>

00000cac <inst_209>:
     cac:	ffff5537          	lui	a0,0xffff5
     cb0:	afc50513          	addi	a0,a0,-1284 # ffff4afc <_end+0xffff20ac>
     cb4:	00356593          	ori	a1,a0,3
     cb8:	2eb22623          	sw	a1,748(tp) # 2ec <inst_36>

00000cbc <inst_210>:
     cbc:	ffff5537          	lui	a0,0xffff5
     cc0:	afc50513          	addi	a0,a0,-1284 # ffff4afc <_end+0xffff20ac>
     cc4:	55556593          	ori	a1,a0,1365
     cc8:	2eb22823          	sw	a1,752(tp) # 2f0 <inst_36+0x4>

00000ccc <inst_211>:
     ccc:	ffff5537          	lui	a0,0xffff5
     cd0:	afc50513          	addi	a0,a0,-1284 # ffff4afc <_end+0xffff20ac>
     cd4:	00556593          	ori	a1,a0,5
     cd8:	2eb22a23          	sw	a1,756(tp) # 2f4 <inst_36+0x8>

00000cdc <inst_212>:
     cdc:	ffff5537          	lui	a0,0xffff5
     ce0:	afc50513          	addi	a0,a0,-1284 # ffff4afc <_end+0xffff20ac>
     ce4:	33356593          	ori	a1,a0,819
     ce8:	2eb22c23          	sw	a1,760(tp) # 2f8 <inst_37>

00000cec <inst_213>:
     cec:	ffff5537          	lui	a0,0xffff5
     cf0:	afc50513          	addi	a0,a0,-1284 # ffff4afc <_end+0xffff20ac>
     cf4:	66656593          	ori	a1,a0,1638
     cf8:	2eb22e23          	sw	a1,764(tp) # 2fc <inst_37+0x4>

00000cfc <inst_214>:
     cfc:	ffff5537          	lui	a0,0xffff5
     d00:	afc50513          	addi	a0,a0,-1284 # ffff4afc <_end+0xffff20ac>
     d04:	fd356593          	ori	a1,a0,-45
     d08:	30b22023          	sw	a1,768(tp) # 300 <inst_37+0x8>

00000d0c <inst_215>:
     d0c:	ffff5537          	lui	a0,0xffff5
     d10:	afc50513          	addi	a0,a0,-1284 # ffff4afc <_end+0xffff20ac>
     d14:	02d56593          	ori	a1,a0,45
     d18:	30b22223          	sw	a1,772(tp) # 304 <inst_38>

00000d1c <inst_216>:
     d1c:	ffff5537          	lui	a0,0xffff5
     d20:	afc50513          	addi	a0,a0,-1284 # ffff4afc <_end+0xffff20ac>
     d24:	00256593          	ori	a1,a0,2
     d28:	30b22423          	sw	a1,776(tp) # 308 <inst_38+0x4>

00000d2c <inst_217>:
     d2c:	ffff5537          	lui	a0,0xffff5
     d30:	afc50513          	addi	a0,a0,-1284 # ffff4afc <_end+0xffff20ac>
     d34:	55456593          	ori	a1,a0,1364
     d38:	30b22623          	sw	a1,780(tp) # 30c <inst_38+0x8>

00000d3c <inst_218>:
     d3c:	ffff5537          	lui	a0,0xffff5
     d40:	afc50513          	addi	a0,a0,-1284 # ffff4afc <_end+0xffff20ac>
     d44:	00056593          	ori	a1,a0,0
     d48:	30b22823          	sw	a1,784(tp) # 310 <inst_39>

00000d4c <inst_219>:
     d4c:	ffff5537          	lui	a0,0xffff5
     d50:	afc50513          	addi	a0,a0,-1284 # ffff4afc <_end+0xffff20ac>
     d54:	00456593          	ori	a1,a0,4
     d58:	30b22a23          	sw	a1,788(tp) # 314 <inst_39+0x4>

00000d5c <inst_220>:
     d5c:	ffff5537          	lui	a0,0xffff5
     d60:	afc50513          	addi	a0,a0,-1284 # ffff4afc <_end+0xffff20ac>
     d64:	33256593          	ori	a1,a0,818
     d68:	30b22c23          	sw	a1,792(tp) # 318 <inst_39+0x8>

00000d6c <inst_221>:
     d6c:	ffff5537          	lui	a0,0xffff5
     d70:	afc50513          	addi	a0,a0,-1284 # ffff4afc <_end+0xffff20ac>
     d74:	66556593          	ori	a1,a0,1637
     d78:	30b22e23          	sw	a1,796(tp) # 31c <inst_40>

00000d7c <inst_222>:
     d7c:	ffff5537          	lui	a0,0xffff5
     d80:	afc50513          	addi	a0,a0,-1284 # ffff4afc <_end+0xffff20ac>
     d84:	02c56593          	ori	a1,a0,44
     d88:	32b22023          	sw	a1,800(tp) # 320 <inst_40+0x4>

00000d8c <inst_223>:
     d8c:	ffff5537          	lui	a0,0xffff5
     d90:	afc50513          	addi	a0,a0,-1284 # ffff4afc <_end+0xffff20ac>
     d94:	55656593          	ori	a1,a0,1366
     d98:	32b22223          	sw	a1,804(tp) # 324 <inst_40+0x8>

00000d9c <inst_224>:
     d9c:	ffff5537          	lui	a0,0xffff5
     da0:	afc50513          	addi	a0,a0,-1284 # ffff4afc <_end+0xffff20ac>
     da4:	aab56593          	ori	a1,a0,-1365
     da8:	32b22423          	sw	a1,808(tp) # 328 <inst_41>

00000dac <inst_225>:
     dac:	ffff5537          	lui	a0,0xffff5
     db0:	afc50513          	addi	a0,a0,-1284 # ffff4afc <_end+0xffff20ac>
     db4:	00656593          	ori	a1,a0,6
     db8:	32b22623          	sw	a1,812(tp) # 32c <inst_41+0x4>

00000dbc <inst_226>:
     dbc:	ffff5537          	lui	a0,0xffff5
     dc0:	afc50513          	addi	a0,a0,-1284 # ffff4afc <_end+0xffff20ac>
     dc4:	33456593          	ori	a1,a0,820
     dc8:	32b22823          	sw	a1,816(tp) # 330 <inst_41+0x8>

00000dcc <inst_227>:
     dcc:	ffff5537          	lui	a0,0xffff5
     dd0:	afc50513          	addi	a0,a0,-1284 # ffff4afc <_end+0xffff20ac>
     dd4:	66756593          	ori	a1,a0,1639
     dd8:	32b22a23          	sw	a1,820(tp) # 334 <inst_42>

00000ddc <inst_228>:
     ddc:	ffff5537          	lui	a0,0xffff5
     de0:	afc50513          	addi	a0,a0,-1284 # ffff4afc <_end+0xffff20ac>
     de4:	fd456593          	ori	a1,a0,-44
     de8:	32b22c23          	sw	a1,824(tp) # 338 <inst_42+0x4>

00000dec <inst_229>:
     dec:	ffff5537          	lui	a0,0xffff5
     df0:	afc50513          	addi	a0,a0,-1284 # ffff4afc <_end+0xffff20ac>
     df4:	02e56593          	ori	a1,a0,46
     df8:	32b22e23          	sw	a1,828(tp) # 33c <inst_42+0x8>

00000dfc <inst_230>:
     dfc:	0000b537          	lui	a0,0xb
     e00:	50450513          	addi	a0,a0,1284 # b504 <_end+0x8ab4>
     e04:	00356593          	ori	a1,a0,3
     e08:	34b22023          	sw	a1,832(tp) # 340 <inst_43>

00000e0c <inst_231>:
     e0c:	0000b537          	lui	a0,0xb
     e10:	50450513          	addi	a0,a0,1284 # b504 <_end+0x8ab4>
     e14:	55556593          	ori	a1,a0,1365
     e18:	34b22223          	sw	a1,836(tp) # 344 <inst_43+0x4>

00000e1c <inst_232>:
     e1c:	0000b537          	lui	a0,0xb
     e20:	50450513          	addi	a0,a0,1284 # b504 <_end+0x8ab4>
     e24:	aaa56593          	ori	a1,a0,-1366
     e28:	34b22423          	sw	a1,840(tp) # 348 <inst_43+0x8>

00000e2c <inst_233>:
     e2c:	0000b537          	lui	a0,0xb
     e30:	50450513          	addi	a0,a0,1284 # b504 <_end+0x8ab4>
     e34:	00556593          	ori	a1,a0,5
     e38:	34b22623          	sw	a1,844(tp) # 34c <inst_44>

00000e3c <inst_234>:
     e3c:	0000b537          	lui	a0,0xb
     e40:	50450513          	addi	a0,a0,1284 # b504 <_end+0x8ab4>
     e44:	33356593          	ori	a1,a0,819
     e48:	34b22823          	sw	a1,848(tp) # 350 <inst_44+0x4>

00000e4c <inst_235>:
     e4c:	0000b537          	lui	a0,0xb
     e50:	50450513          	addi	a0,a0,1284 # b504 <_end+0x8ab4>
     e54:	66656593          	ori	a1,a0,1638
     e58:	34b22a23          	sw	a1,852(tp) # 354 <inst_44+0x8>

00000e5c <inst_236>:
     e5c:	0000b537          	lui	a0,0xb
     e60:	50450513          	addi	a0,a0,1284 # b504 <_end+0x8ab4>
     e64:	fd356593          	ori	a1,a0,-45
     e68:	34b22c23          	sw	a1,856(tp) # 358 <inst_45>

00000e6c <inst_237>:
     e6c:	0000b537          	lui	a0,0xb
     e70:	50450513          	addi	a0,a0,1284 # b504 <_end+0x8ab4>
     e74:	02d56593          	ori	a1,a0,45
     e78:	34b22e23          	sw	a1,860(tp) # 35c <inst_45+0x4>

00000e7c <inst_238>:
     e7c:	0000b537          	lui	a0,0xb
     e80:	50450513          	addi	a0,a0,1284 # b504 <_end+0x8ab4>
     e84:	00256593          	ori	a1,a0,2
     e88:	36b22023          	sw	a1,864(tp) # 360 <inst_45+0x8>

00000e8c <inst_239>:
     e8c:	0000b537          	lui	a0,0xb
     e90:	50450513          	addi	a0,a0,1284 # b504 <_end+0x8ab4>
     e94:	55456593          	ori	a1,a0,1364
     e98:	36b22223          	sw	a1,868(tp) # 364 <inst_46>

00000e9c <inst_240>:
     e9c:	0000b537          	lui	a0,0xb
     ea0:	50450513          	addi	a0,a0,1284 # b504 <_end+0x8ab4>
     ea4:	00056593          	ori	a1,a0,0
     ea8:	36b22423          	sw	a1,872(tp) # 368 <inst_46+0x4>

00000eac <inst_241>:
     eac:	0000b537          	lui	a0,0xb
     eb0:	50450513          	addi	a0,a0,1284 # b504 <_end+0x8ab4>
     eb4:	00456593          	ori	a1,a0,4
     eb8:	36b22623          	sw	a1,876(tp) # 36c <inst_46+0x8>

00000ebc <inst_242>:
     ebc:	0000b537          	lui	a0,0xb
     ec0:	50450513          	addi	a0,a0,1284 # b504 <_end+0x8ab4>
     ec4:	33256593          	ori	a1,a0,818
     ec8:	36b22823          	sw	a1,880(tp) # 370 <inst_47>

00000ecc <inst_243>:
     ecc:	0000b537          	lui	a0,0xb
     ed0:	50450513          	addi	a0,a0,1284 # b504 <_end+0x8ab4>
     ed4:	66556593          	ori	a1,a0,1637
     ed8:	36b22a23          	sw	a1,884(tp) # 374 <inst_47+0x4>

00000edc <inst_244>:
     edc:	0000b537          	lui	a0,0xb
     ee0:	50450513          	addi	a0,a0,1284 # b504 <_end+0x8ab4>
     ee4:	02c56593          	ori	a1,a0,44
     ee8:	36b22c23          	sw	a1,888(tp) # 378 <inst_47+0x8>

00000eec <inst_245>:
     eec:	0000b537          	lui	a0,0xb
     ef0:	50450513          	addi	a0,a0,1284 # b504 <_end+0x8ab4>
     ef4:	55656593          	ori	a1,a0,1366
     ef8:	36b22e23          	sw	a1,892(tp) # 37c <inst_48>

00000efc <inst_246>:
     efc:	0000b537          	lui	a0,0xb
     f00:	50450513          	addi	a0,a0,1284 # b504 <_end+0x8ab4>
     f04:	aab56593          	ori	a1,a0,-1365
     f08:	38b22023          	sw	a1,896(tp) # 380 <inst_48+0x4>

00000f0c <inst_247>:
     f0c:	0000b537          	lui	a0,0xb
     f10:	50450513          	addi	a0,a0,1284 # b504 <_end+0x8ab4>
     f14:	00656593          	ori	a1,a0,6
     f18:	38b22223          	sw	a1,900(tp) # 384 <inst_48+0x8>

00000f1c <inst_248>:
     f1c:	0000b537          	lui	a0,0xb
     f20:	50450513          	addi	a0,a0,1284 # b504 <_end+0x8ab4>
     f24:	33456593          	ori	a1,a0,820
     f28:	38b22423          	sw	a1,904(tp) # 388 <inst_49>

00000f2c <inst_249>:
     f2c:	0000b537          	lui	a0,0xb
     f30:	50450513          	addi	a0,a0,1284 # b504 <_end+0x8ab4>
     f34:	66756593          	ori	a1,a0,1639
     f38:	38b22623          	sw	a1,908(tp) # 38c <inst_49+0x4>

00000f3c <inst_250>:
     f3c:	0000b537          	lui	a0,0xb
     f40:	50450513          	addi	a0,a0,1284 # b504 <_end+0x8ab4>
     f44:	fd456593          	ori	a1,a0,-44
     f48:	38b22823          	sw	a1,912(tp) # 390 <inst_49+0x8>

00000f4c <inst_251>:
     f4c:	0000b537          	lui	a0,0xb
     f50:	50450513          	addi	a0,a0,1284 # b504 <_end+0x8ab4>
     f54:	02e56593          	ori	a1,a0,46
     f58:	38b22a23          	sw	a1,916(tp) # 394 <inst_50>

00000f5c <inst_252>:
     f5c:	00200513          	li	a0,2
     f60:	00356593          	ori	a1,a0,3
     f64:	38b22c23          	sw	a1,920(tp) # 398 <inst_50+0x4>

00000f68 <inst_253>:
     f68:	00200513          	li	a0,2
     f6c:	55556593          	ori	a1,a0,1365
     f70:	38b22e23          	sw	a1,924(tp) # 39c <inst_50+0x8>

00000f74 <inst_254>:
     f74:	00200513          	li	a0,2
     f78:	aaa56593          	ori	a1,a0,-1366
     f7c:	3ab22023          	sw	a1,928(tp) # 3a0 <inst_51>

00000f80 <inst_255>:
     f80:	00200513          	li	a0,2
     f84:	00556593          	ori	a1,a0,5
     f88:	3ab22223          	sw	a1,932(tp) # 3a4 <inst_51+0x4>

00000f8c <inst_256>:
     f8c:	00200513          	li	a0,2
     f90:	33356593          	ori	a1,a0,819
     f94:	3ab22423          	sw	a1,936(tp) # 3a8 <inst_51+0x8>

00000f98 <inst_257>:
     f98:	00200513          	li	a0,2
     f9c:	66656593          	ori	a1,a0,1638
     fa0:	3ab22623          	sw	a1,940(tp) # 3ac <inst_52>

00000fa4 <inst_258>:
     fa4:	00200513          	li	a0,2
     fa8:	fd356593          	ori	a1,a0,-45
     fac:	3ab22823          	sw	a1,944(tp) # 3b0 <inst_52+0x4>

00000fb0 <inst_259>:
     fb0:	00200513          	li	a0,2
     fb4:	02d56593          	ori	a1,a0,45
     fb8:	3ab22a23          	sw	a1,948(tp) # 3b4 <inst_52+0x8>

00000fbc <inst_260>:
     fbc:	00200513          	li	a0,2
     fc0:	00256593          	ori	a1,a0,2
     fc4:	3ab22c23          	sw	a1,952(tp) # 3b8 <inst_53>

00000fc8 <inst_261>:
     fc8:	00200513          	li	a0,2
     fcc:	55456593          	ori	a1,a0,1364
     fd0:	3ab22e23          	sw	a1,956(tp) # 3bc <inst_53+0x4>

00000fd4 <inst_262>:
     fd4:	00200513          	li	a0,2
     fd8:	00056593          	ori	a1,a0,0
     fdc:	3cb22023          	sw	a1,960(tp) # 3c0 <inst_53+0x8>

00000fe0 <inst_263>:
     fe0:	00200513          	li	a0,2
     fe4:	00456593          	ori	a1,a0,4
     fe8:	3cb22223          	sw	a1,964(tp) # 3c4 <inst_54>

00000fec <inst_264>:
     fec:	00200513          	li	a0,2
     ff0:	33256593          	ori	a1,a0,818
     ff4:	3cb22423          	sw	a1,968(tp) # 3c8 <inst_54+0x4>

00000ff8 <inst_265>:
     ff8:	00200513          	li	a0,2
     ffc:	66556593          	ori	a1,a0,1637
    1000:	3cb22623          	sw	a1,972(tp) # 3cc <inst_54+0x8>

00001004 <inst_266>:
    1004:	00200513          	li	a0,2
    1008:	02c56593          	ori	a1,a0,44
    100c:	3cb22823          	sw	a1,976(tp) # 3d0 <inst_55>

00001010 <inst_267>:
    1010:	00200513          	li	a0,2
    1014:	55656593          	ori	a1,a0,1366
    1018:	3cb22a23          	sw	a1,980(tp) # 3d4 <inst_55+0x4>

0000101c <inst_268>:
    101c:	00200513          	li	a0,2
    1020:	aab56593          	ori	a1,a0,-1365
    1024:	3cb22c23          	sw	a1,984(tp) # 3d8 <inst_55+0x8>

00001028 <inst_269>:
    1028:	00200513          	li	a0,2
    102c:	00656593          	ori	a1,a0,6
    1030:	3cb22e23          	sw	a1,988(tp) # 3dc <inst_56>

00001034 <inst_270>:
    1034:	00200513          	li	a0,2
    1038:	33456593          	ori	a1,a0,820
    103c:	3eb22023          	sw	a1,992(tp) # 3e0 <inst_56+0x4>

00001040 <inst_271>:
    1040:	00200513          	li	a0,2
    1044:	66756593          	ori	a1,a0,1639
    1048:	3eb22223          	sw	a1,996(tp) # 3e4 <inst_56+0x8>

0000104c <inst_272>:
    104c:	00200513          	li	a0,2
    1050:	fd456593          	ori	a1,a0,-44
    1054:	3eb22423          	sw	a1,1000(tp) # 3e8 <inst_57>

00001058 <inst_273>:
    1058:	00200513          	li	a0,2
    105c:	02e56593          	ori	a1,a0,46
    1060:	3eb22623          	sw	a1,1004(tp) # 3ec <inst_57+0x4>

00001064 <inst_274>:
    1064:	55555537          	lui	a0,0x55555
    1068:	55450513          	addi	a0,a0,1364 # 55555554 <_end+0x55552b04>
    106c:	00356593          	ori	a1,a0,3
    1070:	3eb22823          	sw	a1,1008(tp) # 3f0 <inst_57+0x8>

00001074 <inst_275>:
    1074:	55555537          	lui	a0,0x55555
    1078:	55450513          	addi	a0,a0,1364 # 55555554 <_end+0x55552b04>
    107c:	55556593          	ori	a1,a0,1365
    1080:	3eb22a23          	sw	a1,1012(tp) # 3f4 <inst_58>

00001084 <inst_276>:
    1084:	55555537          	lui	a0,0x55555
    1088:	55450513          	addi	a0,a0,1364 # 55555554 <_end+0x55552b04>
    108c:	aaa56593          	ori	a1,a0,-1366
    1090:	3eb22c23          	sw	a1,1016(tp) # 3f8 <inst_58+0x4>

00001094 <inst_277>:
    1094:	55555537          	lui	a0,0x55555
    1098:	55450513          	addi	a0,a0,1364 # 55555554 <_end+0x55552b04>
    109c:	00556593          	ori	a1,a0,5
    10a0:	3eb22e23          	sw	a1,1020(tp) # 3fc <inst_58+0x8>

000010a4 <inst_278>:
    10a4:	55555537          	lui	a0,0x55555
    10a8:	55450513          	addi	a0,a0,1364 # 55555554 <_end+0x55552b04>
    10ac:	33356593          	ori	a1,a0,819
    10b0:	40b22023          	sw	a1,1024(tp) # 400 <inst_59>

000010b4 <inst_279>:
    10b4:	55555537          	lui	a0,0x55555
    10b8:	55450513          	addi	a0,a0,1364 # 55555554 <_end+0x55552b04>
    10bc:	66656593          	ori	a1,a0,1638
    10c0:	40b22223          	sw	a1,1028(tp) # 404 <inst_59+0x4>

000010c4 <inst_280>:
    10c4:	55555537          	lui	a0,0x55555
    10c8:	55450513          	addi	a0,a0,1364 # 55555554 <_end+0x55552b04>
    10cc:	fd356593          	ori	a1,a0,-45
    10d0:	40b22423          	sw	a1,1032(tp) # 408 <inst_59+0x8>

000010d4 <inst_281>:
    10d4:	55555537          	lui	a0,0x55555
    10d8:	55450513          	addi	a0,a0,1364 # 55555554 <_end+0x55552b04>
    10dc:	02d56593          	ori	a1,a0,45
    10e0:	40b22623          	sw	a1,1036(tp) # 40c <inst_60>

000010e4 <inst_282>:
    10e4:	55555537          	lui	a0,0x55555
    10e8:	55450513          	addi	a0,a0,1364 # 55555554 <_end+0x55552b04>
    10ec:	00256593          	ori	a1,a0,2
    10f0:	40b22823          	sw	a1,1040(tp) # 410 <inst_60+0x4>

000010f4 <inst_283>:
    10f4:	55555537          	lui	a0,0x55555
    10f8:	55450513          	addi	a0,a0,1364 # 55555554 <_end+0x55552b04>
    10fc:	55456593          	ori	a1,a0,1364
    1100:	40b22a23          	sw	a1,1044(tp) # 414 <inst_60+0x8>

00001104 <inst_284>:
    1104:	55555537          	lui	a0,0x55555
    1108:	55450513          	addi	a0,a0,1364 # 55555554 <_end+0x55552b04>
    110c:	00056593          	ori	a1,a0,0
    1110:	40b22c23          	sw	a1,1048(tp) # 418 <inst_60+0xc>

00001114 <inst_285>:
    1114:	55555537          	lui	a0,0x55555
    1118:	55450513          	addi	a0,a0,1364 # 55555554 <_end+0x55552b04>
    111c:	00456593          	ori	a1,a0,4
    1120:	40b22e23          	sw	a1,1052(tp) # 41c <inst_61>

00001124 <inst_286>:
    1124:	55555537          	lui	a0,0x55555
    1128:	55450513          	addi	a0,a0,1364 # 55555554 <_end+0x55552b04>
    112c:	33256593          	ori	a1,a0,818
    1130:	42b22023          	sw	a1,1056(tp) # 420 <inst_61+0x4>

00001134 <inst_287>:
    1134:	55555537          	lui	a0,0x55555
    1138:	55450513          	addi	a0,a0,1364 # 55555554 <_end+0x55552b04>
    113c:	66556593          	ori	a1,a0,1637
    1140:	42b22223          	sw	a1,1060(tp) # 424 <inst_61+0x8>

00001144 <inst_288>:
    1144:	55555537          	lui	a0,0x55555
    1148:	55450513          	addi	a0,a0,1364 # 55555554 <_end+0x55552b04>
    114c:	02c56593          	ori	a1,a0,44
    1150:	42b22423          	sw	a1,1064(tp) # 428 <inst_61+0xc>

00001154 <inst_289>:
    1154:	55555537          	lui	a0,0x55555
    1158:	55450513          	addi	a0,a0,1364 # 55555554 <_end+0x55552b04>
    115c:	55656593          	ori	a1,a0,1366
    1160:	42b22623          	sw	a1,1068(tp) # 42c <inst_62>

00001164 <inst_290>:
    1164:	55555537          	lui	a0,0x55555
    1168:	55450513          	addi	a0,a0,1364 # 55555554 <_end+0x55552b04>
    116c:	aab56593          	ori	a1,a0,-1365
    1170:	42b22823          	sw	a1,1072(tp) # 430 <inst_62+0x4>

00001174 <inst_291>:
    1174:	55555537          	lui	a0,0x55555
    1178:	55450513          	addi	a0,a0,1364 # 55555554 <_end+0x55552b04>
    117c:	00656593          	ori	a1,a0,6
    1180:	42b22a23          	sw	a1,1076(tp) # 434 <inst_62+0x8>

00001184 <inst_292>:
    1184:	55555537          	lui	a0,0x55555
    1188:	55450513          	addi	a0,a0,1364 # 55555554 <_end+0x55552b04>
    118c:	33456593          	ori	a1,a0,820
    1190:	42b22c23          	sw	a1,1080(tp) # 438 <inst_62+0xc>

00001194 <inst_293>:
    1194:	55555537          	lui	a0,0x55555
    1198:	55450513          	addi	a0,a0,1364 # 55555554 <_end+0x55552b04>
    119c:	66756593          	ori	a1,a0,1639
    11a0:	42b22e23          	sw	a1,1084(tp) # 43c <inst_63>

000011a4 <inst_294>:
    11a4:	55555537          	lui	a0,0x55555
    11a8:	55450513          	addi	a0,a0,1364 # 55555554 <_end+0x55552b04>
    11ac:	fd456593          	ori	a1,a0,-44
    11b0:	44b22023          	sw	a1,1088(tp) # 440 <inst_63+0x4>

000011b4 <inst_295>:
    11b4:	55555537          	lui	a0,0x55555
    11b8:	55450513          	addi	a0,a0,1364 # 55555554 <_end+0x55552b04>
    11bc:	02e56593          	ori	a1,a0,46
    11c0:	44b22223          	sw	a1,1092(tp) # 444 <inst_63+0x8>

000011c4 <inst_296>:
    11c4:	00000513          	li	a0,0
    11c8:	00356593          	ori	a1,a0,3
    11cc:	44b22423          	sw	a1,1096(tp) # 448 <inst_63+0xc>

000011d0 <inst_297>:
    11d0:	00000513          	li	a0,0
    11d4:	55556593          	ori	a1,a0,1365
    11d8:	44b22623          	sw	a1,1100(tp) # 44c <inst_64>

000011dc <inst_298>:
    11dc:	00000513          	li	a0,0
    11e0:	aaa56593          	ori	a1,a0,-1366
    11e4:	44b22823          	sw	a1,1104(tp) # 450 <inst_64+0x4>

000011e8 <inst_299>:
    11e8:	00000513          	li	a0,0
    11ec:	00556593          	ori	a1,a0,5
    11f0:	44b22a23          	sw	a1,1108(tp) # 454 <inst_64+0x8>

000011f4 <inst_300>:
    11f4:	00000513          	li	a0,0
    11f8:	33356593          	ori	a1,a0,819
    11fc:	44b22c23          	sw	a1,1112(tp) # 458 <inst_64+0xc>

00001200 <inst_301>:
    1200:	00000513          	li	a0,0
    1204:	66656593          	ori	a1,a0,1638
    1208:	44b22e23          	sw	a1,1116(tp) # 45c <inst_65>

0000120c <inst_302>:
    120c:	00000513          	li	a0,0
    1210:	fd356593          	ori	a1,a0,-45
    1214:	46b22023          	sw	a1,1120(tp) # 460 <inst_65+0x4>

00001218 <inst_303>:
    1218:	33333537          	lui	a0,0x33333
    121c:	33450513          	addi	a0,a0,820 # 33333334 <_end+0x333308e4>
    1220:	33256593          	ori	a1,a0,818
    1224:	46b22223          	sw	a1,1124(tp) # 464 <inst_65+0x8>

00001228 <inst_304>:
    1228:	33333537          	lui	a0,0x33333
    122c:	33450513          	addi	a0,a0,820 # 33333334 <_end+0x333308e4>
    1230:	66556593          	ori	a1,a0,1637
    1234:	46b22423          	sw	a1,1128(tp) # 468 <inst_65+0xc>

00001238 <inst_305>:
    1238:	33333537          	lui	a0,0x33333
    123c:	33450513          	addi	a0,a0,820 # 33333334 <_end+0x333308e4>
    1240:	02c56593          	ori	a1,a0,44
    1244:	46b22623          	sw	a1,1132(tp) # 46c <inst_66>

00001248 <inst_306>:
    1248:	33333537          	lui	a0,0x33333
    124c:	33450513          	addi	a0,a0,820 # 33333334 <_end+0x333308e4>
    1250:	55656593          	ori	a1,a0,1366
    1254:	46b22823          	sw	a1,1136(tp) # 470 <inst_66+0x4>

00001258 <inst_307>:
    1258:	33333537          	lui	a0,0x33333
    125c:	33450513          	addi	a0,a0,820 # 33333334 <_end+0x333308e4>
    1260:	aab56593          	ori	a1,a0,-1365
    1264:	46b22a23          	sw	a1,1140(tp) # 474 <inst_66+0x8>

00001268 <inst_308>:
    1268:	33333537          	lui	a0,0x33333
    126c:	33450513          	addi	a0,a0,820 # 33333334 <_end+0x333308e4>
    1270:	00656593          	ori	a1,a0,6
    1274:	46b22c23          	sw	a1,1144(tp) # 478 <inst_66+0xc>

00001278 <inst_309>:
    1278:	33333537          	lui	a0,0x33333
    127c:	33450513          	addi	a0,a0,820 # 33333334 <_end+0x333308e4>
    1280:	33456593          	ori	a1,a0,820
    1284:	46b22e23          	sw	a1,1148(tp) # 47c <inst_67>

00001288 <inst_310>:
    1288:	33333537          	lui	a0,0x33333
    128c:	33450513          	addi	a0,a0,820 # 33333334 <_end+0x333308e4>
    1290:	66756593          	ori	a1,a0,1639
    1294:	48b22023          	sw	a1,1152(tp) # 480 <inst_67+0x4>

00001298 <inst_311>:
    1298:	33333537          	lui	a0,0x33333
    129c:	33450513          	addi	a0,a0,820 # 33333334 <_end+0x333308e4>
    12a0:	fd456593          	ori	a1,a0,-44
    12a4:	48b22223          	sw	a1,1156(tp) # 484 <inst_67+0x8>

000012a8 <inst_312>:
    12a8:	33333537          	lui	a0,0x33333
    12ac:	33450513          	addi	a0,a0,820 # 33333334 <_end+0x333308e4>
    12b0:	02e56593          	ori	a1,a0,46
    12b4:	48b22423          	sw	a1,1160(tp) # 488 <inst_67+0xc>

000012b8 <inst_313>:
    12b8:	66666537          	lui	a0,0x66666
    12bc:	66750513          	addi	a0,a0,1639 # 66666667 <_end+0x66663c17>
    12c0:	00356593          	ori	a1,a0,3
    12c4:	48b22623          	sw	a1,1164(tp) # 48c <inst_68>

000012c8 <inst_314>:
    12c8:	66666537          	lui	a0,0x66666
    12cc:	66750513          	addi	a0,a0,1639 # 66666667 <_end+0x66663c17>
    12d0:	55556593          	ori	a1,a0,1365
    12d4:	48b22823          	sw	a1,1168(tp) # 490 <inst_68+0x4>

000012d8 <inst_315>:
    12d8:	66666537          	lui	a0,0x66666
    12dc:	66750513          	addi	a0,a0,1639 # 66666667 <_end+0x66663c17>
    12e0:	aaa56593          	ori	a1,a0,-1366
    12e4:	48b22a23          	sw	a1,1172(tp) # 494 <inst_68+0x8>

000012e8 <inst_316>:
    12e8:	66666537          	lui	a0,0x66666
    12ec:	66750513          	addi	a0,a0,1639 # 66666667 <_end+0x66663c17>
    12f0:	00556593          	ori	a1,a0,5
    12f4:	48b22c23          	sw	a1,1176(tp) # 498 <inst_68+0xc>

000012f8 <inst_317>:
    12f8:	66666537          	lui	a0,0x66666
    12fc:	66750513          	addi	a0,a0,1639 # 66666667 <_end+0x66663c17>
    1300:	33356593          	ori	a1,a0,819
    1304:	48b22e23          	sw	a1,1180(tp) # 49c <inst_69>

00001308 <inst_318>:
    1308:	66666537          	lui	a0,0x66666
    130c:	66750513          	addi	a0,a0,1639 # 66666667 <_end+0x66663c17>
    1310:	66656593          	ori	a1,a0,1638
    1314:	4ab22023          	sw	a1,1184(tp) # 4a0 <inst_69+0x4>

00001318 <inst_319>:
    1318:	66666537          	lui	a0,0x66666
    131c:	66750513          	addi	a0,a0,1639 # 66666667 <_end+0x66663c17>
    1320:	fd356593          	ori	a1,a0,-45
    1324:	4ab22223          	sw	a1,1188(tp) # 4a4 <inst_69+0x8>

00001328 <inst_320>:
    1328:	66666537          	lui	a0,0x66666
    132c:	66750513          	addi	a0,a0,1639 # 66666667 <_end+0x66663c17>
    1330:	02d56593          	ori	a1,a0,45
    1334:	4ab22423          	sw	a1,1192(tp) # 4a8 <inst_69+0xc>

00001338 <inst_321>:
    1338:	66666537          	lui	a0,0x66666
    133c:	66750513          	addi	a0,a0,1639 # 66666667 <_end+0x66663c17>
    1340:	00256593          	ori	a1,a0,2
    1344:	4ab22623          	sw	a1,1196(tp) # 4ac <inst_70>

00001348 <inst_322>:
    1348:	66666537          	lui	a0,0x66666
    134c:	66750513          	addi	a0,a0,1639 # 66666667 <_end+0x66663c17>
    1350:	55456593          	ori	a1,a0,1364
    1354:	4ab22823          	sw	a1,1200(tp) # 4b0 <inst_70+0x4>

00001358 <inst_323>:
    1358:	66666537          	lui	a0,0x66666
    135c:	66750513          	addi	a0,a0,1639 # 66666667 <_end+0x66663c17>
    1360:	00056593          	ori	a1,a0,0
    1364:	4ab22a23          	sw	a1,1204(tp) # 4b4 <inst_70+0x8>

00001368 <inst_324>:
    1368:	66666537          	lui	a0,0x66666
    136c:	66750513          	addi	a0,a0,1639 # 66666667 <_end+0x66663c17>
    1370:	00456593          	ori	a1,a0,4
    1374:	4ab22c23          	sw	a1,1208(tp) # 4b8 <inst_70+0xc>

00001378 <inst_325>:
    1378:	66666537          	lui	a0,0x66666
    137c:	66750513          	addi	a0,a0,1639 # 66666667 <_end+0x66663c17>
    1380:	33256593          	ori	a1,a0,818
    1384:	4ab22e23          	sw	a1,1212(tp) # 4bc <inst_71>

00001388 <inst_326>:
    1388:	66666537          	lui	a0,0x66666
    138c:	66750513          	addi	a0,a0,1639 # 66666667 <_end+0x66663c17>
    1390:	66556593          	ori	a1,a0,1637
    1394:	4cb22023          	sw	a1,1216(tp) # 4c0 <inst_71+0x4>

00001398 <inst_327>:
    1398:	66666537          	lui	a0,0x66666
    139c:	66750513          	addi	a0,a0,1639 # 66666667 <_end+0x66663c17>
    13a0:	02c56593          	ori	a1,a0,44
    13a4:	4cb22223          	sw	a1,1220(tp) # 4c4 <inst_71+0x8>

000013a8 <inst_328>:
    13a8:	66666537          	lui	a0,0x66666
    13ac:	66750513          	addi	a0,a0,1639 # 66666667 <_end+0x66663c17>
    13b0:	55656593          	ori	a1,a0,1366
    13b4:	4cb22423          	sw	a1,1224(tp) # 4c8 <inst_71+0xc>

000013b8 <inst_329>:
    13b8:	66666537          	lui	a0,0x66666
    13bc:	66750513          	addi	a0,a0,1639 # 66666667 <_end+0x66663c17>
    13c0:	aab56593          	ori	a1,a0,-1365
    13c4:	4cb22623          	sw	a1,1228(tp) # 4cc <inst_72>

000013c8 <inst_330>:
    13c8:	66666537          	lui	a0,0x66666
    13cc:	66750513          	addi	a0,a0,1639 # 66666667 <_end+0x66663c17>
    13d0:	00656593          	ori	a1,a0,6
    13d4:	4cb22823          	sw	a1,1232(tp) # 4d0 <inst_72+0x4>

000013d8 <inst_331>:
    13d8:	66666537          	lui	a0,0x66666
    13dc:	66750513          	addi	a0,a0,1639 # 66666667 <_end+0x66663c17>
    13e0:	33456593          	ori	a1,a0,820
    13e4:	4cb22a23          	sw	a1,1236(tp) # 4d4 <inst_72+0x8>

000013e8 <inst_332>:
    13e8:	66666537          	lui	a0,0x66666
    13ec:	66750513          	addi	a0,a0,1639 # 66666667 <_end+0x66663c17>
    13f0:	66756593          	ori	a1,a0,1639
    13f4:	4cb22c23          	sw	a1,1240(tp) # 4d8 <inst_72+0xc>

000013f8 <inst_333>:
    13f8:	66666537          	lui	a0,0x66666
    13fc:	66750513          	addi	a0,a0,1639 # 66666667 <_end+0x66663c17>
    1400:	fd456593          	ori	a1,a0,-44
    1404:	4cb22e23          	sw	a1,1244(tp) # 4dc <inst_73>

00001408 <inst_334>:
    1408:	66666537          	lui	a0,0x66666
    140c:	66750513          	addi	a0,a0,1639 # 66666667 <_end+0x66663c17>
    1410:	02e56593          	ori	a1,a0,46
    1414:	4eb22023          	sw	a1,1248(tp) # 4e0 <inst_73+0x4>

00001418 <inst_335>:
    1418:	ffff5537          	lui	a0,0xffff5
    141c:	afd50513          	addi	a0,a0,-1283 # ffff4afd <_end+0xffff20ad>
    1420:	00356593          	ori	a1,a0,3
    1424:	4eb22223          	sw	a1,1252(tp) # 4e4 <inst_73+0x8>

00001428 <inst_336>:
    1428:	ffff5537          	lui	a0,0xffff5
    142c:	afd50513          	addi	a0,a0,-1283 # ffff4afd <_end+0xffff20ad>
    1430:	55556593          	ori	a1,a0,1365
    1434:	4eb22423          	sw	a1,1256(tp) # 4e8 <inst_73+0xc>

00001438 <inst_337>:
    1438:	ffff5537          	lui	a0,0xffff5
    143c:	afd50513          	addi	a0,a0,-1283 # ffff4afd <_end+0xffff20ad>
    1440:	aaa56593          	ori	a1,a0,-1366
    1444:	4eb22623          	sw	a1,1260(tp) # 4ec <inst_74>

00001448 <inst_338>:
    1448:	ffff5537          	lui	a0,0xffff5
    144c:	afd50513          	addi	a0,a0,-1283 # ffff4afd <_end+0xffff20ad>
    1450:	00556593          	ori	a1,a0,5
    1454:	4eb22823          	sw	a1,1264(tp) # 4f0 <inst_74+0x4>

00001458 <inst_339>:
    1458:	ffff5537          	lui	a0,0xffff5
    145c:	afd50513          	addi	a0,a0,-1283 # ffff4afd <_end+0xffff20ad>
    1460:	33356593          	ori	a1,a0,819
    1464:	4eb22a23          	sw	a1,1268(tp) # 4f4 <inst_74+0x8>

00001468 <inst_340>:
    1468:	ffff5537          	lui	a0,0xffff5
    146c:	afd50513          	addi	a0,a0,-1283 # ffff4afd <_end+0xffff20ad>
    1470:	66656593          	ori	a1,a0,1638
    1474:	4eb22c23          	sw	a1,1272(tp) # 4f8 <inst_74+0xc>

00001478 <inst_341>:
    1478:	ffff5537          	lui	a0,0xffff5
    147c:	afd50513          	addi	a0,a0,-1283 # ffff4afd <_end+0xffff20ad>
    1480:	fd356593          	ori	a1,a0,-45
    1484:	4eb22e23          	sw	a1,1276(tp) # 4fc <inst_75>

00001488 <inst_342>:
    1488:	ffff5537          	lui	a0,0xffff5
    148c:	afd50513          	addi	a0,a0,-1283 # ffff4afd <_end+0xffff20ad>
    1490:	02d56593          	ori	a1,a0,45
    1494:	50b22023          	sw	a1,1280(tp) # 500 <inst_75+0x4>

00001498 <inst_343>:
    1498:	ffff5537          	lui	a0,0xffff5
    149c:	afd50513          	addi	a0,a0,-1283 # ffff4afd <_end+0xffff20ad>
    14a0:	00256593          	ori	a1,a0,2
    14a4:	50b22223          	sw	a1,1284(tp) # 504 <inst_75+0x8>

000014a8 <inst_344>:
    14a8:	ffff5537          	lui	a0,0xffff5
    14ac:	afd50513          	addi	a0,a0,-1283 # ffff4afd <_end+0xffff20ad>
    14b0:	55456593          	ori	a1,a0,1364
    14b4:	50b22423          	sw	a1,1288(tp) # 508 <inst_75+0xc>

000014b8 <inst_345>:
    14b8:	ffff5537          	lui	a0,0xffff5
    14bc:	afd50513          	addi	a0,a0,-1283 # ffff4afd <_end+0xffff20ad>
    14c0:	00056593          	ori	a1,a0,0
    14c4:	50b22623          	sw	a1,1292(tp) # 50c <inst_76>

000014c8 <inst_346>:
    14c8:	ffff5537          	lui	a0,0xffff5
    14cc:	afd50513          	addi	a0,a0,-1283 # ffff4afd <_end+0xffff20ad>
    14d0:	00456593          	ori	a1,a0,4
    14d4:	50b22823          	sw	a1,1296(tp) # 510 <inst_76+0x4>

000014d8 <inst_347>:
    14d8:	ffff5537          	lui	a0,0xffff5
    14dc:	afd50513          	addi	a0,a0,-1283 # ffff4afd <_end+0xffff20ad>
    14e0:	33256593          	ori	a1,a0,818
    14e4:	50b22a23          	sw	a1,1300(tp) # 514 <inst_76+0x8>

000014e8 <inst_348>:
    14e8:	ffff5537          	lui	a0,0xffff5
    14ec:	afd50513          	addi	a0,a0,-1283 # ffff4afd <_end+0xffff20ad>
    14f0:	66556593          	ori	a1,a0,1637
    14f4:	50b22c23          	sw	a1,1304(tp) # 518 <inst_76+0xc>

000014f8 <inst_349>:
    14f8:	ffff5537          	lui	a0,0xffff5
    14fc:	afd50513          	addi	a0,a0,-1283 # ffff4afd <_end+0xffff20ad>
    1500:	02c56593          	ori	a1,a0,44
    1504:	50b22e23          	sw	a1,1308(tp) # 51c <inst_77>

00001508 <inst_350>:
    1508:	ffff5537          	lui	a0,0xffff5
    150c:	afd50513          	addi	a0,a0,-1283 # ffff4afd <_end+0xffff20ad>
    1510:	55656593          	ori	a1,a0,1366
    1514:	52b22023          	sw	a1,1312(tp) # 520 <inst_77+0x4>

00001518 <inst_351>:
    1518:	ffff5537          	lui	a0,0xffff5
    151c:	afd50513          	addi	a0,a0,-1283 # ffff4afd <_end+0xffff20ad>
    1520:	aab56593          	ori	a1,a0,-1365
    1524:	52b22223          	sw	a1,1316(tp) # 524 <inst_77+0x8>

00001528 <inst_352>:
    1528:	ffff5537          	lui	a0,0xffff5
    152c:	afd50513          	addi	a0,a0,-1283 # ffff4afd <_end+0xffff20ad>
    1530:	00656593          	ori	a1,a0,6
    1534:	52b22423          	sw	a1,1320(tp) # 528 <inst_78>

00001538 <inst_353>:
    1538:	ffff5537          	lui	a0,0xffff5
    153c:	afd50513          	addi	a0,a0,-1283 # ffff4afd <_end+0xffff20ad>
    1540:	33456593          	ori	a1,a0,820
    1544:	52b22623          	sw	a1,1324(tp) # 52c <inst_78+0x4>

00001548 <inst_354>:
    1548:	ffff5537          	lui	a0,0xffff5
    154c:	afd50513          	addi	a0,a0,-1283 # ffff4afd <_end+0xffff20ad>
    1550:	66756593          	ori	a1,a0,1639
    1554:	52b22823          	sw	a1,1328(tp) # 530 <inst_78+0x8>

00001558 <inst_355>:
    1558:	ffff5537          	lui	a0,0xffff5
    155c:	afd50513          	addi	a0,a0,-1283 # ffff4afd <_end+0xffff20ad>
    1560:	fd456593          	ori	a1,a0,-44
    1564:	52b22a23          	sw	a1,1332(tp) # 534 <inst_79>

00001568 <inst_356>:
    1568:	ffff5537          	lui	a0,0xffff5
    156c:	afd50513          	addi	a0,a0,-1283 # ffff4afd <_end+0xffff20ad>
    1570:	02e56593          	ori	a1,a0,46
    1574:	52b22c23          	sw	a1,1336(tp) # 538 <inst_79+0x4>

00001578 <inst_357>:
    1578:	0000b537          	lui	a0,0xb
    157c:	50550513          	addi	a0,a0,1285 # b505 <_end+0x8ab5>
    1580:	00356593          	ori	a1,a0,3
    1584:	52b22e23          	sw	a1,1340(tp) # 53c <inst_79+0x8>

00001588 <inst_358>:
    1588:	0000b537          	lui	a0,0xb
    158c:	50550513          	addi	a0,a0,1285 # b505 <_end+0x8ab5>
    1590:	55556593          	ori	a1,a0,1365
    1594:	54b22023          	sw	a1,1344(tp) # 540 <inst_80>

00001598 <inst_359>:
    1598:	0000b537          	lui	a0,0xb
    159c:	50550513          	addi	a0,a0,1285 # b505 <_end+0x8ab5>
    15a0:	aaa56593          	ori	a1,a0,-1366
    15a4:	54b22223          	sw	a1,1348(tp) # 544 <inst_80+0x4>

000015a8 <inst_360>:
    15a8:	0000b537          	lui	a0,0xb
    15ac:	50550513          	addi	a0,a0,1285 # b505 <_end+0x8ab5>
    15b0:	00556593          	ori	a1,a0,5
    15b4:	54b22423          	sw	a1,1352(tp) # 548 <inst_80+0x8>

000015b8 <inst_361>:
    15b8:	0000b537          	lui	a0,0xb
    15bc:	50550513          	addi	a0,a0,1285 # b505 <_end+0x8ab5>
    15c0:	33356593          	ori	a1,a0,819
    15c4:	54b22623          	sw	a1,1356(tp) # 54c <inst_81>

000015c8 <inst_362>:
    15c8:	0000b537          	lui	a0,0xb
    15cc:	50550513          	addi	a0,a0,1285 # b505 <_end+0x8ab5>
    15d0:	66656593          	ori	a1,a0,1638
    15d4:	54b22823          	sw	a1,1360(tp) # 550 <inst_81+0x4>

000015d8 <inst_363>:
    15d8:	0000b537          	lui	a0,0xb
    15dc:	50550513          	addi	a0,a0,1285 # b505 <_end+0x8ab5>
    15e0:	fd356593          	ori	a1,a0,-45
    15e4:	54b22a23          	sw	a1,1364(tp) # 554 <inst_81+0x8>

000015e8 <inst_364>:
    15e8:	0000b537          	lui	a0,0xb
    15ec:	50550513          	addi	a0,a0,1285 # b505 <_end+0x8ab5>
    15f0:	02d56593          	ori	a1,a0,45
    15f4:	54b22c23          	sw	a1,1368(tp) # 558 <inst_82>

000015f8 <inst_365>:
    15f8:	0000b537          	lui	a0,0xb
    15fc:	50550513          	addi	a0,a0,1285 # b505 <_end+0x8ab5>
    1600:	00256593          	ori	a1,a0,2
    1604:	54b22e23          	sw	a1,1372(tp) # 55c <inst_82+0x4>

00001608 <inst_366>:
    1608:	0000b537          	lui	a0,0xb
    160c:	50550513          	addi	a0,a0,1285 # b505 <_end+0x8ab5>
    1610:	55456593          	ori	a1,a0,1364
    1614:	56b22023          	sw	a1,1376(tp) # 560 <inst_82+0x8>

00001618 <inst_367>:
    1618:	0000b537          	lui	a0,0xb
    161c:	50550513          	addi	a0,a0,1285 # b505 <_end+0x8ab5>
    1620:	00056593          	ori	a1,a0,0
    1624:	56b22223          	sw	a1,1380(tp) # 564 <inst_83>

00001628 <inst_368>:
    1628:	0000b537          	lui	a0,0xb
    162c:	50550513          	addi	a0,a0,1285 # b505 <_end+0x8ab5>
    1630:	00456593          	ori	a1,a0,4
    1634:	56b22423          	sw	a1,1384(tp) # 568 <inst_83+0x4>

00001638 <inst_369>:
    1638:	0000b537          	lui	a0,0xb
    163c:	50550513          	addi	a0,a0,1285 # b505 <_end+0x8ab5>
    1640:	33256593          	ori	a1,a0,818
    1644:	56b22623          	sw	a1,1388(tp) # 56c <inst_83+0x8>

00001648 <inst_370>:
    1648:	0000b537          	lui	a0,0xb
    164c:	50550513          	addi	a0,a0,1285 # b505 <_end+0x8ab5>
    1650:	66556593          	ori	a1,a0,1637
    1654:	56b22823          	sw	a1,1392(tp) # 570 <inst_84>

00001658 <inst_371>:
    1658:	0000b537          	lui	a0,0xb
    165c:	50550513          	addi	a0,a0,1285 # b505 <_end+0x8ab5>
    1660:	02c56593          	ori	a1,a0,44
    1664:	56b22a23          	sw	a1,1396(tp) # 574 <inst_84+0x4>

00001668 <inst_372>:
    1668:	0000b537          	lui	a0,0xb
    166c:	50550513          	addi	a0,a0,1285 # b505 <_end+0x8ab5>
    1670:	55656593          	ori	a1,a0,1366
    1674:	56b22c23          	sw	a1,1400(tp) # 578 <inst_84+0x8>

00001678 <inst_373>:
    1678:	0000b537          	lui	a0,0xb
    167c:	50550513          	addi	a0,a0,1285 # b505 <_end+0x8ab5>
    1680:	aab56593          	ori	a1,a0,-1365
    1684:	56b22e23          	sw	a1,1404(tp) # 57c <inst_85>

00001688 <inst_374>:
    1688:	0000b537          	lui	a0,0xb
    168c:	50550513          	addi	a0,a0,1285 # b505 <_end+0x8ab5>
    1690:	00656593          	ori	a1,a0,6
    1694:	58b22023          	sw	a1,1408(tp) # 580 <inst_85+0x4>

00001698 <inst_375>:
    1698:	0000b537          	lui	a0,0xb
    169c:	50550513          	addi	a0,a0,1285 # b505 <_end+0x8ab5>
    16a0:	33456593          	ori	a1,a0,820
    16a4:	58b22223          	sw	a1,1412(tp) # 584 <inst_85+0x8>

000016a8 <inst_376>:
    16a8:	0000b537          	lui	a0,0xb
    16ac:	50550513          	addi	a0,a0,1285 # b505 <_end+0x8ab5>
    16b0:	66756593          	ori	a1,a0,1639
    16b4:	58b22423          	sw	a1,1416(tp) # 588 <inst_86>

000016b8 <inst_377>:
    16b8:	0000b537          	lui	a0,0xb
    16bc:	50550513          	addi	a0,a0,1285 # b505 <_end+0x8ab5>
    16c0:	fd456593          	ori	a1,a0,-44
    16c4:	58b22623          	sw	a1,1420(tp) # 58c <inst_86+0x4>

000016c8 <inst_378>:
    16c8:	0000b537          	lui	a0,0xb
    16cc:	50550513          	addi	a0,a0,1285 # b505 <_end+0x8ab5>
    16d0:	02e56593          	ori	a1,a0,46
    16d4:	58b22823          	sw	a1,1424(tp) # 590 <inst_86+0x8>

000016d8 <inst_379>:
    16d8:	00000513          	li	a0,0
    16dc:	02d56593          	ori	a1,a0,45
    16e0:	58b22a23          	sw	a1,1428(tp) # 594 <inst_87>

000016e4 <inst_380>:
    16e4:	00000513          	li	a0,0
    16e8:	00256593          	ori	a1,a0,2
    16ec:	58b22c23          	sw	a1,1432(tp) # 598 <inst_87+0x4>

000016f0 <inst_381>:
    16f0:	00000513          	li	a0,0
    16f4:	55456593          	ori	a1,a0,1364
    16f8:	58b22e23          	sw	a1,1436(tp) # 59c <inst_87+0x8>

000016fc <inst_382>:
    16fc:	00000513          	li	a0,0
    1700:	00456593          	ori	a1,a0,4
    1704:	5ab22023          	sw	a1,1440(tp) # 5a0 <inst_88>

00001708 <inst_383>:
    1708:	00000513          	li	a0,0
    170c:	33256593          	ori	a1,a0,818
    1710:	5ab22223          	sw	a1,1444(tp) # 5a4 <inst_88+0x4>

00001714 <inst_384>:
    1714:	00000513          	li	a0,0
    1718:	66556593          	ori	a1,a0,1637
    171c:	5ab22423          	sw	a1,1448(tp) # 5a8 <inst_88+0x8>

00001720 <inst_385>:
    1720:	00000513          	li	a0,0
    1724:	02c56593          	ori	a1,a0,44
    1728:	5ab22623          	sw	a1,1452(tp) # 5ac <inst_89>

0000172c <inst_386>:
    172c:	00000513          	li	a0,0
    1730:	55656593          	ori	a1,a0,1366
    1734:	5ab22823          	sw	a1,1456(tp) # 5b0 <inst_89+0x4>

00001738 <inst_387>:
    1738:	00000513          	li	a0,0
    173c:	aab56593          	ori	a1,a0,-1365
    1740:	5ab22a23          	sw	a1,1460(tp) # 5b4 <inst_89+0x8>

00001744 <inst_388>:
    1744:	00000513          	li	a0,0
    1748:	00656593          	ori	a1,a0,6
    174c:	5ab22c23          	sw	a1,1464(tp) # 5b8 <inst_90>

00001750 <inst_389>:
    1750:	00000513          	li	a0,0
    1754:	33456593          	ori	a1,a0,820
    1758:	5ab22e23          	sw	a1,1468(tp) # 5bc <inst_90+0x4>

0000175c <inst_390>:
    175c:	00000513          	li	a0,0
    1760:	66756593          	ori	a1,a0,1639
    1764:	5cb22023          	sw	a1,1472(tp) # 5c0 <inst_90+0x8>

00001768 <inst_391>:
    1768:	00000513          	li	a0,0
    176c:	fd456593          	ori	a1,a0,-44
    1770:	5cb22223          	sw	a1,1476(tp) # 5c4 <inst_91>

00001774 <inst_392>:
    1774:	00000513          	li	a0,0
    1778:	02e56593          	ori	a1,a0,46
    177c:	5cb22423          	sw	a1,1480(tp) # 5c8 <inst_91+0x4>

00001780 <inst_393>:
    1780:	00400513          	li	a0,4
    1784:	00356593          	ori	a1,a0,3
    1788:	5cb22623          	sw	a1,1484(tp) # 5cc <inst_91+0x8>

0000178c <inst_394>:
    178c:	00400513          	li	a0,4
    1790:	55556593          	ori	a1,a0,1365
    1794:	5cb22823          	sw	a1,1488(tp) # 5d0 <inst_92>

00001798 <inst_395>:
    1798:	00400513          	li	a0,4
    179c:	aaa56593          	ori	a1,a0,-1366
    17a0:	5cb22a23          	sw	a1,1492(tp) # 5d4 <inst_92+0x4>

000017a4 <inst_396>:
    17a4:	00400513          	li	a0,4
    17a8:	33356593          	ori	a1,a0,819
    17ac:	5cb22c23          	sw	a1,1496(tp) # 5d8 <inst_92+0x8>

000017b0 <inst_397>:
    17b0:	00400513          	li	a0,4
    17b4:	66656593          	ori	a1,a0,1638
    17b8:	5cb22e23          	sw	a1,1500(tp) # 5dc <inst_93>

000017bc <inst_398>:
    17bc:	00400513          	li	a0,4
    17c0:	fd356593          	ori	a1,a0,-45
    17c4:	5eb22023          	sw	a1,1504(tp) # 5e0 <inst_93+0x4>

000017c8 <inst_399>:
    17c8:	00400513          	li	a0,4
    17cc:	02d56593          	ori	a1,a0,45
    17d0:	5eb22223          	sw	a1,1508(tp) # 5e4 <inst_93+0x8>

000017d4 <inst_400>:
    17d4:	00400513          	li	a0,4
    17d8:	00256593          	ori	a1,a0,2
    17dc:	5eb22423          	sw	a1,1512(tp) # 5e8 <inst_94>

000017e0 <inst_401>:
    17e0:	00400513          	li	a0,4
    17e4:	55456593          	ori	a1,a0,1364
    17e8:	5eb22623          	sw	a1,1516(tp) # 5ec <inst_94+0x4>

000017ec <inst_402>:
    17ec:	00400513          	li	a0,4
    17f0:	00056593          	ori	a1,a0,0
    17f4:	5eb22823          	sw	a1,1520(tp) # 5f0 <inst_94+0x8>

000017f8 <inst_403>:
    17f8:	00400513          	li	a0,4
    17fc:	00456593          	ori	a1,a0,4
    1800:	5eb22a23          	sw	a1,1524(tp) # 5f4 <inst_95>

00001804 <inst_404>:
    1804:	00400513          	li	a0,4
    1808:	33256593          	ori	a1,a0,818
    180c:	5eb22c23          	sw	a1,1528(tp) # 5f8 <inst_95+0x4>

00001810 <inst_405>:
    1810:	00400513          	li	a0,4
    1814:	66556593          	ori	a1,a0,1637
    1818:	5eb22e23          	sw	a1,1532(tp) # 5fc <inst_95+0x8>

0000181c <inst_406>:
    181c:	00400513          	li	a0,4
    1820:	02c56593          	ori	a1,a0,44
    1824:	60b22023          	sw	a1,1536(tp) # 600 <inst_96>

00001828 <inst_407>:
    1828:	00400513          	li	a0,4
    182c:	55656593          	ori	a1,a0,1366
    1830:	60b22223          	sw	a1,1540(tp) # 604 <inst_96+0x4>

00001834 <inst_408>:
    1834:	00400513          	li	a0,4
    1838:	aab56593          	ori	a1,a0,-1365
    183c:	60b22423          	sw	a1,1544(tp) # 608 <inst_96+0x8>

00001840 <inst_409>:
    1840:	00400513          	li	a0,4
    1844:	00656593          	ori	a1,a0,6
    1848:	60b22623          	sw	a1,1548(tp) # 60c <inst_97>

0000184c <inst_410>:
    184c:	00400513          	li	a0,4
    1850:	33456593          	ori	a1,a0,820
    1854:	60b22823          	sw	a1,1552(tp) # 610 <inst_97+0x4>

00001858 <inst_411>:
    1858:	00400513          	li	a0,4
    185c:	66756593          	ori	a1,a0,1639
    1860:	60b22a23          	sw	a1,1556(tp) # 614 <inst_97+0x8>

00001864 <inst_412>:
    1864:	00400513          	li	a0,4
    1868:	fd456593          	ori	a1,a0,-44
    186c:	60b22c23          	sw	a1,1560(tp) # 618 <inst_98>

00001870 <inst_413>:
    1870:	00400513          	li	a0,4
    1874:	02e56593          	ori	a1,a0,46
    1878:	60b22e23          	sw	a1,1564(tp) # 61c <inst_98+0x4>

0000187c <inst_414>:
    187c:	33333537          	lui	a0,0x33333
    1880:	33250513          	addi	a0,a0,818 # 33333332 <_end+0x333308e2>
    1884:	00356593          	ori	a1,a0,3
    1888:	62b22023          	sw	a1,1568(tp) # 620 <inst_98+0x8>

0000188c <inst_415>:
    188c:	33333537          	lui	a0,0x33333
    1890:	33250513          	addi	a0,a0,818 # 33333332 <_end+0x333308e2>
    1894:	55556593          	ori	a1,a0,1365
    1898:	62b22223          	sw	a1,1572(tp) # 624 <inst_99>

0000189c <inst_416>:
    189c:	33333537          	lui	a0,0x33333
    18a0:	33250513          	addi	a0,a0,818 # 33333332 <_end+0x333308e2>
    18a4:	aaa56593          	ori	a1,a0,-1366
    18a8:	62b22423          	sw	a1,1576(tp) # 628 <inst_99+0x4>

000018ac <inst_417>:
    18ac:	33333537          	lui	a0,0x33333
    18b0:	33250513          	addi	a0,a0,818 # 33333332 <_end+0x333308e2>
    18b4:	00556593          	ori	a1,a0,5
    18b8:	62b22623          	sw	a1,1580(tp) # 62c <inst_99+0x8>

000018bc <inst_418>:
    18bc:	33333537          	lui	a0,0x33333
    18c0:	33250513          	addi	a0,a0,818 # 33333332 <_end+0x333308e2>
    18c4:	33356593          	ori	a1,a0,819
    18c8:	62b22823          	sw	a1,1584(tp) # 630 <inst_99+0xc>

000018cc <inst_419>:
    18cc:	33333537          	lui	a0,0x33333
    18d0:	33250513          	addi	a0,a0,818 # 33333332 <_end+0x333308e2>
    18d4:	66656593          	ori	a1,a0,1638
    18d8:	62b22a23          	sw	a1,1588(tp) # 634 <inst_100>

000018dc <inst_420>:
    18dc:	33333537          	lui	a0,0x33333
    18e0:	33250513          	addi	a0,a0,818 # 33333332 <_end+0x333308e2>
    18e4:	fd356593          	ori	a1,a0,-45
    18e8:	62b22c23          	sw	a1,1592(tp) # 638 <inst_100+0x4>

000018ec <inst_421>:
    18ec:	33333537          	lui	a0,0x33333
    18f0:	33250513          	addi	a0,a0,818 # 33333332 <_end+0x333308e2>
    18f4:	02d56593          	ori	a1,a0,45
    18f8:	62b22e23          	sw	a1,1596(tp) # 63c <inst_100+0x8>

000018fc <inst_422>:
    18fc:	33333537          	lui	a0,0x33333
    1900:	33250513          	addi	a0,a0,818 # 33333332 <_end+0x333308e2>
    1904:	00256593          	ori	a1,a0,2
    1908:	64b22023          	sw	a1,1600(tp) # 640 <inst_100+0xc>

0000190c <inst_423>:
    190c:	33333537          	lui	a0,0x33333
    1910:	33250513          	addi	a0,a0,818 # 33333332 <_end+0x333308e2>
    1914:	55456593          	ori	a1,a0,1364
    1918:	64b22223          	sw	a1,1604(tp) # 644 <inst_101>

0000191c <inst_424>:
    191c:	33333537          	lui	a0,0x33333
    1920:	33250513          	addi	a0,a0,818 # 33333332 <_end+0x333308e2>
    1924:	00056593          	ori	a1,a0,0
    1928:	64b22423          	sw	a1,1608(tp) # 648 <inst_101+0x4>

0000192c <inst_425>:
    192c:	33333537          	lui	a0,0x33333
    1930:	33250513          	addi	a0,a0,818 # 33333332 <_end+0x333308e2>
    1934:	00456593          	ori	a1,a0,4
    1938:	64b22623          	sw	a1,1612(tp) # 64c <inst_101+0x8>

0000193c <inst_426>:
    193c:	33333537          	lui	a0,0x33333
    1940:	33250513          	addi	a0,a0,818 # 33333332 <_end+0x333308e2>
    1944:	33256593          	ori	a1,a0,818
    1948:	64b22823          	sw	a1,1616(tp) # 650 <inst_101+0xc>

0000194c <inst_427>:
    194c:	33333537          	lui	a0,0x33333
    1950:	33250513          	addi	a0,a0,818 # 33333332 <_end+0x333308e2>
    1954:	66556593          	ori	a1,a0,1637
    1958:	64b22a23          	sw	a1,1620(tp) # 654 <inst_102>

0000195c <inst_428>:
    195c:	33333537          	lui	a0,0x33333
    1960:	33250513          	addi	a0,a0,818 # 33333332 <_end+0x333308e2>
    1964:	02c56593          	ori	a1,a0,44
    1968:	64b22c23          	sw	a1,1624(tp) # 658 <inst_102+0x4>

0000196c <inst_429>:
    196c:	33333537          	lui	a0,0x33333
    1970:	33250513          	addi	a0,a0,818 # 33333332 <_end+0x333308e2>
    1974:	55656593          	ori	a1,a0,1366
    1978:	64b22e23          	sw	a1,1628(tp) # 65c <inst_102+0x8>

0000197c <inst_430>:
    197c:	33333537          	lui	a0,0x33333
    1980:	33250513          	addi	a0,a0,818 # 33333332 <_end+0x333308e2>
    1984:	aab56593          	ori	a1,a0,-1365
    1988:	66b22023          	sw	a1,1632(tp) # 660 <inst_102+0xc>

0000198c <inst_431>:
    198c:	33333537          	lui	a0,0x33333
    1990:	33250513          	addi	a0,a0,818 # 33333332 <_end+0x333308e2>
    1994:	00656593          	ori	a1,a0,6
    1998:	66b22223          	sw	a1,1636(tp) # 664 <inst_103>

0000199c <inst_432>:
    199c:	33333537          	lui	a0,0x33333
    19a0:	33250513          	addi	a0,a0,818 # 33333332 <_end+0x333308e2>
    19a4:	33456593          	ori	a1,a0,820
    19a8:	66b22423          	sw	a1,1640(tp) # 668 <inst_103+0x4>

000019ac <inst_433>:
    19ac:	33333537          	lui	a0,0x33333
    19b0:	33250513          	addi	a0,a0,818 # 33333332 <_end+0x333308e2>
    19b4:	66756593          	ori	a1,a0,1639
    19b8:	66b22623          	sw	a1,1644(tp) # 66c <inst_103+0x8>

000019bc <inst_434>:
    19bc:	33333537          	lui	a0,0x33333
    19c0:	33250513          	addi	a0,a0,818 # 33333332 <_end+0x333308e2>
    19c4:	fd456593          	ori	a1,a0,-44
    19c8:	66b22823          	sw	a1,1648(tp) # 670 <inst_103+0xc>

000019cc <inst_435>:
    19cc:	33333537          	lui	a0,0x33333
    19d0:	33250513          	addi	a0,a0,818 # 33333332 <_end+0x333308e2>
    19d4:	02e56593          	ori	a1,a0,46
    19d8:	66b22a23          	sw	a1,1652(tp) # 674 <inst_104>

000019dc <inst_436>:
    19dc:	66666537          	lui	a0,0x66666
    19e0:	66550513          	addi	a0,a0,1637 # 66666665 <_end+0x66663c15>
    19e4:	00356593          	ori	a1,a0,3
    19e8:	66b22c23          	sw	a1,1656(tp) # 678 <inst_104+0x4>

000019ec <inst_437>:
    19ec:	66666537          	lui	a0,0x66666
    19f0:	66550513          	addi	a0,a0,1637 # 66666665 <_end+0x66663c15>
    19f4:	55556593          	ori	a1,a0,1365
    19f8:	66b22e23          	sw	a1,1660(tp) # 67c <inst_104+0x8>

000019fc <inst_438>:
    19fc:	66666537          	lui	a0,0x66666
    1a00:	66550513          	addi	a0,a0,1637 # 66666665 <_end+0x66663c15>
    1a04:	aaa56593          	ori	a1,a0,-1366
    1a08:	68b22023          	sw	a1,1664(tp) # 680 <inst_104+0xc>

00001a0c <inst_439>:
    1a0c:	66666537          	lui	a0,0x66666
    1a10:	66550513          	addi	a0,a0,1637 # 66666665 <_end+0x66663c15>
    1a14:	00556593          	ori	a1,a0,5
    1a18:	68b22223          	sw	a1,1668(tp) # 684 <inst_105>

00001a1c <inst_440>:
    1a1c:	66666537          	lui	a0,0x66666
    1a20:	66550513          	addi	a0,a0,1637 # 66666665 <_end+0x66663c15>
    1a24:	33356593          	ori	a1,a0,819
    1a28:	68b22423          	sw	a1,1672(tp) # 688 <inst_105+0x4>

00001a2c <inst_441>:
    1a2c:	66666537          	lui	a0,0x66666
    1a30:	66550513          	addi	a0,a0,1637 # 66666665 <_end+0x66663c15>
    1a34:	66656593          	ori	a1,a0,1638
    1a38:	68b22623          	sw	a1,1676(tp) # 68c <inst_105+0x8>

00001a3c <inst_442>:
    1a3c:	66666537          	lui	a0,0x66666
    1a40:	66550513          	addi	a0,a0,1637 # 66666665 <_end+0x66663c15>
    1a44:	fd356593          	ori	a1,a0,-45
    1a48:	68b22823          	sw	a1,1680(tp) # 690 <inst_105+0xc>

00001a4c <inst_443>:
    1a4c:	66666537          	lui	a0,0x66666
    1a50:	66550513          	addi	a0,a0,1637 # 66666665 <_end+0x66663c15>
    1a54:	02d56593          	ori	a1,a0,45
    1a58:	68b22a23          	sw	a1,1684(tp) # 694 <inst_106>

00001a5c <inst_444>:
    1a5c:	66666537          	lui	a0,0x66666
    1a60:	66550513          	addi	a0,a0,1637 # 66666665 <_end+0x66663c15>
    1a64:	00256593          	ori	a1,a0,2
    1a68:	68b22c23          	sw	a1,1688(tp) # 698 <inst_106+0x4>

00001a6c <inst_445>:
    1a6c:	66666537          	lui	a0,0x66666
    1a70:	66550513          	addi	a0,a0,1637 # 66666665 <_end+0x66663c15>
    1a74:	55456593          	ori	a1,a0,1364
    1a78:	68b22e23          	sw	a1,1692(tp) # 69c <inst_106+0x8>

00001a7c <inst_446>:
    1a7c:	66666537          	lui	a0,0x66666
    1a80:	66550513          	addi	a0,a0,1637 # 66666665 <_end+0x66663c15>
    1a84:	00056593          	ori	a1,a0,0
    1a88:	6ab22023          	sw	a1,1696(tp) # 6a0 <inst_106+0xc>

00001a8c <inst_447>:
    1a8c:	66666537          	lui	a0,0x66666
    1a90:	66550513          	addi	a0,a0,1637 # 66666665 <_end+0x66663c15>
    1a94:	00456593          	ori	a1,a0,4
    1a98:	6ab22223          	sw	a1,1700(tp) # 6a4 <inst_107>

00001a9c <inst_448>:
    1a9c:	66666537          	lui	a0,0x66666
    1aa0:	66550513          	addi	a0,a0,1637 # 66666665 <_end+0x66663c15>
    1aa4:	33256593          	ori	a1,a0,818
    1aa8:	6ab22423          	sw	a1,1704(tp) # 6a8 <inst_107+0x4>

00001aac <inst_449>:
    1aac:	66666537          	lui	a0,0x66666
    1ab0:	66550513          	addi	a0,a0,1637 # 66666665 <_end+0x66663c15>
    1ab4:	66556593          	ori	a1,a0,1637
    1ab8:	6ab22623          	sw	a1,1708(tp) # 6ac <inst_107+0x8>

00001abc <inst_450>:
    1abc:	66666537          	lui	a0,0x66666
    1ac0:	66550513          	addi	a0,a0,1637 # 66666665 <_end+0x66663c15>
    1ac4:	02c56593          	ori	a1,a0,44
    1ac8:	6ab22823          	sw	a1,1712(tp) # 6b0 <inst_107+0xc>

00001acc <inst_451>:
    1acc:	66666537          	lui	a0,0x66666
    1ad0:	66550513          	addi	a0,a0,1637 # 66666665 <_end+0x66663c15>
    1ad4:	55656593          	ori	a1,a0,1366
    1ad8:	6ab22a23          	sw	a1,1716(tp) # 6b4 <inst_108>

00001adc <inst_452>:
    1adc:	66666537          	lui	a0,0x66666
    1ae0:	66550513          	addi	a0,a0,1637 # 66666665 <_end+0x66663c15>
    1ae4:	aab56593          	ori	a1,a0,-1365
    1ae8:	6ab22c23          	sw	a1,1720(tp) # 6b8 <inst_108+0x4>

00001aec <inst_453>:
    1aec:	66666537          	lui	a0,0x66666
    1af0:	66550513          	addi	a0,a0,1637 # 66666665 <_end+0x66663c15>
    1af4:	00656593          	ori	a1,a0,6
    1af8:	6ab22e23          	sw	a1,1724(tp) # 6bc <inst_108+0x8>

00001afc <inst_454>:
    1afc:	66666537          	lui	a0,0x66666
    1b00:	66550513          	addi	a0,a0,1637 # 66666665 <_end+0x66663c15>
    1b04:	33456593          	ori	a1,a0,820
    1b08:	6cb22023          	sw	a1,1728(tp) # 6c0 <inst_108+0xc>

00001b0c <inst_455>:
    1b0c:	66666537          	lui	a0,0x66666
    1b10:	66550513          	addi	a0,a0,1637 # 66666665 <_end+0x66663c15>
    1b14:	66756593          	ori	a1,a0,1639
    1b18:	6cb22223          	sw	a1,1732(tp) # 6c4 <inst_109>

00001b1c <inst_456>:
    1b1c:	66666537          	lui	a0,0x66666
    1b20:	66550513          	addi	a0,a0,1637 # 66666665 <_end+0x66663c15>
    1b24:	fd456593          	ori	a1,a0,-44
    1b28:	6cb22423          	sw	a1,1736(tp) # 6c8 <inst_109+0x4>

00001b2c <inst_457>:
    1b2c:	66666537          	lui	a0,0x66666
    1b30:	66550513          	addi	a0,a0,1637 # 66666665 <_end+0x66663c15>
    1b34:	02e56593          	ori	a1,a0,46
    1b38:	6cb22623          	sw	a1,1740(tp) # 6cc <inst_109+0x8>

00001b3c <inst_458>:
    1b3c:	0000b537          	lui	a0,0xb
    1b40:	50350513          	addi	a0,a0,1283 # b503 <_end+0x8ab3>
    1b44:	00356593          	ori	a1,a0,3
    1b48:	6cb22823          	sw	a1,1744(tp) # 6d0 <inst_109+0xc>

00001b4c <inst_459>:
    1b4c:	0000b537          	lui	a0,0xb
    1b50:	50350513          	addi	a0,a0,1283 # b503 <_end+0x8ab3>
    1b54:	55556593          	ori	a1,a0,1365
    1b58:	6cb22a23          	sw	a1,1748(tp) # 6d4 <inst_110>

00001b5c <inst_460>:
    1b5c:	0000b537          	lui	a0,0xb
    1b60:	50350513          	addi	a0,a0,1283 # b503 <_end+0x8ab3>
    1b64:	aaa56593          	ori	a1,a0,-1366
    1b68:	6cb22c23          	sw	a1,1752(tp) # 6d8 <inst_110+0x4>

00001b6c <inst_461>:
    1b6c:	0000b537          	lui	a0,0xb
    1b70:	50350513          	addi	a0,a0,1283 # b503 <_end+0x8ab3>
    1b74:	00556593          	ori	a1,a0,5
    1b78:	6cb22e23          	sw	a1,1756(tp) # 6dc <inst_110+0x8>

00001b7c <inst_462>:
    1b7c:	0000b537          	lui	a0,0xb
    1b80:	50350513          	addi	a0,a0,1283 # b503 <_end+0x8ab3>
    1b84:	33356593          	ori	a1,a0,819
    1b88:	6eb22023          	sw	a1,1760(tp) # 6e0 <inst_110+0xc>

00001b8c <inst_463>:
    1b8c:	0000b537          	lui	a0,0xb
    1b90:	50350513          	addi	a0,a0,1283 # b503 <_end+0x8ab3>
    1b94:	66656593          	ori	a1,a0,1638
    1b98:	6eb22223          	sw	a1,1764(tp) # 6e4 <inst_111>

00001b9c <inst_464>:
    1b9c:	0000b537          	lui	a0,0xb
    1ba0:	50350513          	addi	a0,a0,1283 # b503 <_end+0x8ab3>
    1ba4:	fd356593          	ori	a1,a0,-45
    1ba8:	6eb22423          	sw	a1,1768(tp) # 6e8 <inst_111+0x4>

00001bac <inst_465>:
    1bac:	0000b537          	lui	a0,0xb
    1bb0:	50350513          	addi	a0,a0,1283 # b503 <_end+0x8ab3>
    1bb4:	02d56593          	ori	a1,a0,45
    1bb8:	6eb22623          	sw	a1,1772(tp) # 6ec <inst_111+0x8>

00001bbc <inst_466>:
    1bbc:	0000b537          	lui	a0,0xb
    1bc0:	50350513          	addi	a0,a0,1283 # b503 <_end+0x8ab3>
    1bc4:	00256593          	ori	a1,a0,2
    1bc8:	6eb22823          	sw	a1,1776(tp) # 6f0 <inst_111+0xc>

00001bcc <inst_467>:
    1bcc:	0000b537          	lui	a0,0xb
    1bd0:	50350513          	addi	a0,a0,1283 # b503 <_end+0x8ab3>
    1bd4:	55456593          	ori	a1,a0,1364
    1bd8:	6eb22a23          	sw	a1,1780(tp) # 6f4 <inst_112>

00001bdc <inst_468>:
    1bdc:	0000b537          	lui	a0,0xb
    1be0:	50350513          	addi	a0,a0,1283 # b503 <_end+0x8ab3>
    1be4:	00056593          	ori	a1,a0,0
    1be8:	6eb22c23          	sw	a1,1784(tp) # 6f8 <inst_112+0x4>

00001bec <inst_469>:
    1bec:	0000b537          	lui	a0,0xb
    1bf0:	50350513          	addi	a0,a0,1283 # b503 <_end+0x8ab3>
    1bf4:	00456593          	ori	a1,a0,4
    1bf8:	6eb22e23          	sw	a1,1788(tp) # 6fc <inst_112+0x8>

00001bfc <inst_470>:
    1bfc:	0000b537          	lui	a0,0xb
    1c00:	50350513          	addi	a0,a0,1283 # b503 <_end+0x8ab3>
    1c04:	33256593          	ori	a1,a0,818
    1c08:	70b22023          	sw	a1,1792(tp) # 700 <inst_112+0xc>

00001c0c <inst_471>:
    1c0c:	0000b537          	lui	a0,0xb
    1c10:	50350513          	addi	a0,a0,1283 # b503 <_end+0x8ab3>
    1c14:	66556593          	ori	a1,a0,1637
    1c18:	70b22223          	sw	a1,1796(tp) # 704 <inst_113>

00001c1c <inst_472>:
    1c1c:	0000b537          	lui	a0,0xb
    1c20:	50350513          	addi	a0,a0,1283 # b503 <_end+0x8ab3>
    1c24:	02c56593          	ori	a1,a0,44
    1c28:	70b22423          	sw	a1,1800(tp) # 708 <inst_113+0x4>

00001c2c <inst_473>:
    1c2c:	0000b537          	lui	a0,0xb
    1c30:	50350513          	addi	a0,a0,1283 # b503 <_end+0x8ab3>
    1c34:	55656593          	ori	a1,a0,1366
    1c38:	70b22623          	sw	a1,1804(tp) # 70c <inst_113+0x8>

00001c3c <inst_474>:
    1c3c:	0000b537          	lui	a0,0xb
    1c40:	50350513          	addi	a0,a0,1283 # b503 <_end+0x8ab3>
    1c44:	aab56593          	ori	a1,a0,-1365
    1c48:	70b22823          	sw	a1,1808(tp) # 710 <inst_113+0xc>

00001c4c <inst_475>:
    1c4c:	0000b537          	lui	a0,0xb
    1c50:	50350513          	addi	a0,a0,1283 # b503 <_end+0x8ab3>
    1c54:	00656593          	ori	a1,a0,6
    1c58:	70b22a23          	sw	a1,1812(tp) # 714 <inst_114>

00001c5c <inst_476>:
    1c5c:	0000b537          	lui	a0,0xb
    1c60:	50350513          	addi	a0,a0,1283 # b503 <_end+0x8ab3>
    1c64:	33456593          	ori	a1,a0,820
    1c68:	70b22c23          	sw	a1,1816(tp) # 718 <inst_114+0x4>

00001c6c <inst_477>:
    1c6c:	0000b537          	lui	a0,0xb
    1c70:	50350513          	addi	a0,a0,1283 # b503 <_end+0x8ab3>
    1c74:	66756593          	ori	a1,a0,1639
    1c78:	70b22e23          	sw	a1,1820(tp) # 71c <inst_114+0x8>

00001c7c <inst_478>:
    1c7c:	0000b537          	lui	a0,0xb
    1c80:	50350513          	addi	a0,a0,1283 # b503 <_end+0x8ab3>
    1c84:	fd456593          	ori	a1,a0,-44
    1c88:	72b22023          	sw	a1,1824(tp) # 720 <inst_114+0xc>

00001c8c <inst_479>:
    1c8c:	0000b537          	lui	a0,0xb
    1c90:	50350513          	addi	a0,a0,1283 # b503 <_end+0x8ab3>
    1c94:	02e56593          	ori	a1,a0,46
    1c98:	72b22223          	sw	a1,1828(tp) # 724 <inst_115>

00001c9c <inst_480>:
    1c9c:	55555537          	lui	a0,0x55555
    1ca0:	55650513          	addi	a0,a0,1366 # 55555556 <_end+0x55552b06>
    1ca4:	00356593          	ori	a1,a0,3
    1ca8:	72b22423          	sw	a1,1832(tp) # 728 <inst_115+0x4>

00001cac <inst_481>:
    1cac:	55555537          	lui	a0,0x55555
    1cb0:	55650513          	addi	a0,a0,1366 # 55555556 <_end+0x55552b06>
    1cb4:	55556593          	ori	a1,a0,1365
    1cb8:	72b22623          	sw	a1,1836(tp) # 72c <inst_115+0x8>

00001cbc <inst_482>:
    1cbc:	55555537          	lui	a0,0x55555
    1cc0:	55650513          	addi	a0,a0,1366 # 55555556 <_end+0x55552b06>
    1cc4:	aaa56593          	ori	a1,a0,-1366
    1cc8:	72b22823          	sw	a1,1840(tp) # 730 <inst_115+0xc>

00001ccc <inst_483>:
    1ccc:	55555537          	lui	a0,0x55555
    1cd0:	55650513          	addi	a0,a0,1366 # 55555556 <_end+0x55552b06>
    1cd4:	00556593          	ori	a1,a0,5
    1cd8:	72b22a23          	sw	a1,1844(tp) # 734 <inst_116>

00001cdc <inst_484>:
    1cdc:	55555537          	lui	a0,0x55555
    1ce0:	55650513          	addi	a0,a0,1366 # 55555556 <_end+0x55552b06>
    1ce4:	33356593          	ori	a1,a0,819
    1ce8:	72b22c23          	sw	a1,1848(tp) # 738 <inst_116+0x4>

00001cec <inst_485>:
    1cec:	55555537          	lui	a0,0x55555
    1cf0:	55650513          	addi	a0,a0,1366 # 55555556 <_end+0x55552b06>
    1cf4:	66656593          	ori	a1,a0,1638
    1cf8:	72b22e23          	sw	a1,1852(tp) # 73c <inst_116+0x8>

00001cfc <inst_486>:
    1cfc:	55555537          	lui	a0,0x55555
    1d00:	55650513          	addi	a0,a0,1366 # 55555556 <_end+0x55552b06>
    1d04:	fd356593          	ori	a1,a0,-45
    1d08:	74b22023          	sw	a1,1856(tp) # 740 <inst_116+0xc>

00001d0c <inst_487>:
    1d0c:	55555537          	lui	a0,0x55555
    1d10:	55650513          	addi	a0,a0,1366 # 55555556 <_end+0x55552b06>
    1d14:	02d56593          	ori	a1,a0,45
    1d18:	74b22223          	sw	a1,1860(tp) # 744 <inst_117>

00001d1c <inst_488>:
    1d1c:	55555537          	lui	a0,0x55555
    1d20:	55650513          	addi	a0,a0,1366 # 55555556 <_end+0x55552b06>
    1d24:	00256593          	ori	a1,a0,2
    1d28:	74b22423          	sw	a1,1864(tp) # 748 <inst_117+0x4>

00001d2c <inst_489>:
    1d2c:	55555537          	lui	a0,0x55555
    1d30:	55650513          	addi	a0,a0,1366 # 55555556 <_end+0x55552b06>
    1d34:	55456593          	ori	a1,a0,1364
    1d38:	74b22623          	sw	a1,1868(tp) # 74c <inst_117+0x8>

00001d3c <inst_490>:
    1d3c:	55555537          	lui	a0,0x55555
    1d40:	55650513          	addi	a0,a0,1366 # 55555556 <_end+0x55552b06>
    1d44:	00056593          	ori	a1,a0,0
    1d48:	74b22823          	sw	a1,1872(tp) # 750 <inst_117+0xc>

00001d4c <inst_491>:
    1d4c:	55555537          	lui	a0,0x55555
    1d50:	55650513          	addi	a0,a0,1366 # 55555556 <_end+0x55552b06>
    1d54:	00456593          	ori	a1,a0,4
    1d58:	74b22a23          	sw	a1,1876(tp) # 754 <inst_118>

00001d5c <inst_492>:
    1d5c:	55555537          	lui	a0,0x55555
    1d60:	55650513          	addi	a0,a0,1366 # 55555556 <_end+0x55552b06>
    1d64:	33256593          	ori	a1,a0,818
    1d68:	74b22c23          	sw	a1,1880(tp) # 758 <inst_118+0x4>

00001d6c <inst_493>:
    1d6c:	55555537          	lui	a0,0x55555
    1d70:	55650513          	addi	a0,a0,1366 # 55555556 <_end+0x55552b06>
    1d74:	66556593          	ori	a1,a0,1637
    1d78:	74b22e23          	sw	a1,1884(tp) # 75c <inst_118+0x8>

00001d7c <inst_494>:
    1d7c:	55555537          	lui	a0,0x55555
    1d80:	55650513          	addi	a0,a0,1366 # 55555556 <_end+0x55552b06>
    1d84:	02c56593          	ori	a1,a0,44
    1d88:	76b22023          	sw	a1,1888(tp) # 760 <inst_118+0xc>

00001d8c <inst_495>:
    1d8c:	55555537          	lui	a0,0x55555
    1d90:	55650513          	addi	a0,a0,1366 # 55555556 <_end+0x55552b06>
    1d94:	55656593          	ori	a1,a0,1366
    1d98:	76b22223          	sw	a1,1892(tp) # 764 <inst_119>

00001d9c <inst_496>:
    1d9c:	55555537          	lui	a0,0x55555
    1da0:	55650513          	addi	a0,a0,1366 # 55555556 <_end+0x55552b06>
    1da4:	aab56593          	ori	a1,a0,-1365
    1da8:	76b22423          	sw	a1,1896(tp) # 768 <inst_119+0x4>

00001dac <inst_497>:
    1dac:	55555537          	lui	a0,0x55555
    1db0:	55650513          	addi	a0,a0,1366 # 55555556 <_end+0x55552b06>
    1db4:	00656593          	ori	a1,a0,6
    1db8:	76b22623          	sw	a1,1900(tp) # 76c <inst_119+0x8>

00001dbc <inst_498>:
    1dbc:	55555537          	lui	a0,0x55555
    1dc0:	55650513          	addi	a0,a0,1366 # 55555556 <_end+0x55552b06>
    1dc4:	33456593          	ori	a1,a0,820
    1dc8:	76b22823          	sw	a1,1904(tp) # 770 <inst_119+0xc>

00001dcc <inst_499>:
    1dcc:	55555537          	lui	a0,0x55555
    1dd0:	55650513          	addi	a0,a0,1366 # 55555556 <_end+0x55552b06>
    1dd4:	66756593          	ori	a1,a0,1639
    1dd8:	76b22a23          	sw	a1,1908(tp) # 774 <inst_120>

00001ddc <inst_500>:
    1ddc:	55555537          	lui	a0,0x55555
    1de0:	55650513          	addi	a0,a0,1366 # 55555556 <_end+0x55552b06>
    1de4:	fd456593          	ori	a1,a0,-44
    1de8:	76b22c23          	sw	a1,1912(tp) # 778 <inst_120+0x4>

00001dec <inst_501>:
    1dec:	55555537          	lui	a0,0x55555
    1df0:	55650513          	addi	a0,a0,1366 # 55555556 <_end+0x55552b06>
    1df4:	02e56593          	ori	a1,a0,46
    1df8:	76b22e23          	sw	a1,1916(tp) # 77c <inst_120+0x8>

00001dfc <inst_502>:
    1dfc:	aaaab537          	lui	a0,0xaaaab
    1e00:	aab50513          	addi	a0,a0,-1365 # aaaaaaab <_end+0xaaaa805b>
    1e04:	00356593          	ori	a1,a0,3
    1e08:	78b22023          	sw	a1,1920(tp) # 780 <inst_120+0xc>

00001e0c <inst_503>:
    1e0c:	aaaab537          	lui	a0,0xaaaab
    1e10:	aab50513          	addi	a0,a0,-1365 # aaaaaaab <_end+0xaaaa805b>
    1e14:	55556593          	ori	a1,a0,1365
    1e18:	78b22223          	sw	a1,1924(tp) # 784 <inst_121>

00001e1c <inst_504>:
    1e1c:	aaaab537          	lui	a0,0xaaaab
    1e20:	aab50513          	addi	a0,a0,-1365 # aaaaaaab <_end+0xaaaa805b>
    1e24:	aaa56593          	ori	a1,a0,-1366
    1e28:	78b22423          	sw	a1,1928(tp) # 788 <inst_121+0x4>

00001e2c <inst_505>:
    1e2c:	aaaab537          	lui	a0,0xaaaab
    1e30:	aab50513          	addi	a0,a0,-1365 # aaaaaaab <_end+0xaaaa805b>
    1e34:	00556593          	ori	a1,a0,5
    1e38:	78b22623          	sw	a1,1932(tp) # 78c <inst_121+0x8>

00001e3c <inst_506>:
    1e3c:	aaaab537          	lui	a0,0xaaaab
    1e40:	aab50513          	addi	a0,a0,-1365 # aaaaaaab <_end+0xaaaa805b>
    1e44:	33356593          	ori	a1,a0,819
    1e48:	78b22823          	sw	a1,1936(tp) # 790 <inst_121+0xc>

00001e4c <inst_507>:
    1e4c:	aaaab537          	lui	a0,0xaaaab
    1e50:	aab50513          	addi	a0,a0,-1365 # aaaaaaab <_end+0xaaaa805b>
    1e54:	66656593          	ori	a1,a0,1638
    1e58:	78b22a23          	sw	a1,1940(tp) # 794 <inst_122>

00001e5c <inst_508>:
    1e5c:	aaaab537          	lui	a0,0xaaaab
    1e60:	aab50513          	addi	a0,a0,-1365 # aaaaaaab <_end+0xaaaa805b>
    1e64:	fd356593          	ori	a1,a0,-45
    1e68:	78b22c23          	sw	a1,1944(tp) # 798 <inst_122+0x4>

00001e6c <inst_509>:
    1e6c:	aaaab537          	lui	a0,0xaaaab
    1e70:	aab50513          	addi	a0,a0,-1365 # aaaaaaab <_end+0xaaaa805b>
    1e74:	02d56593          	ori	a1,a0,45
    1e78:	78b22e23          	sw	a1,1948(tp) # 79c <inst_122+0x8>

00001e7c <inst_510>:
    1e7c:	aaaab537          	lui	a0,0xaaaab
    1e80:	aab50513          	addi	a0,a0,-1365 # aaaaaaab <_end+0xaaaa805b>
    1e84:	00256593          	ori	a1,a0,2
    1e88:	7ab22023          	sw	a1,1952(tp) # 7a0 <inst_122+0xc>

00001e8c <inst_511>:
    1e8c:	aaaab537          	lui	a0,0xaaaab
    1e90:	aab50513          	addi	a0,a0,-1365 # aaaaaaab <_end+0xaaaa805b>
    1e94:	55456593          	ori	a1,a0,1364
    1e98:	7ab22223          	sw	a1,1956(tp) # 7a4 <inst_123>

00001e9c <inst_512>:
    1e9c:	aaaab537          	lui	a0,0xaaaab
    1ea0:	aab50513          	addi	a0,a0,-1365 # aaaaaaab <_end+0xaaaa805b>
    1ea4:	00056593          	ori	a1,a0,0
    1ea8:	7ab22423          	sw	a1,1960(tp) # 7a8 <inst_123+0x4>

00001eac <inst_513>:
    1eac:	aaaab537          	lui	a0,0xaaaab
    1eb0:	aab50513          	addi	a0,a0,-1365 # aaaaaaab <_end+0xaaaa805b>
    1eb4:	00456593          	ori	a1,a0,4
    1eb8:	7ab22623          	sw	a1,1964(tp) # 7ac <inst_123+0x8>

00001ebc <inst_514>:
    1ebc:	aaaab537          	lui	a0,0xaaaab
    1ec0:	aab50513          	addi	a0,a0,-1365 # aaaaaaab <_end+0xaaaa805b>
    1ec4:	33256593          	ori	a1,a0,818
    1ec8:	7ab22823          	sw	a1,1968(tp) # 7b0 <inst_123+0xc>

00001ecc <inst_515>:
    1ecc:	aaaab537          	lui	a0,0xaaaab
    1ed0:	aab50513          	addi	a0,a0,-1365 # aaaaaaab <_end+0xaaaa805b>
    1ed4:	66556593          	ori	a1,a0,1637
    1ed8:	7ab22a23          	sw	a1,1972(tp) # 7b4 <inst_124>

00001edc <inst_516>:
    1edc:	aaaab537          	lui	a0,0xaaaab
    1ee0:	aab50513          	addi	a0,a0,-1365 # aaaaaaab <_end+0xaaaa805b>
    1ee4:	02c56593          	ori	a1,a0,44
    1ee8:	7ab22c23          	sw	a1,1976(tp) # 7b8 <inst_124+0x4>

00001eec <inst_517>:
    1eec:	aaaab537          	lui	a0,0xaaaab
    1ef0:	aab50513          	addi	a0,a0,-1365 # aaaaaaab <_end+0xaaaa805b>
    1ef4:	55656593          	ori	a1,a0,1366
    1ef8:	7ab22e23          	sw	a1,1980(tp) # 7bc <inst_124+0x8>

00001efc <inst_518>:
    1efc:	aaaab537          	lui	a0,0xaaaab
    1f00:	aab50513          	addi	a0,a0,-1365 # aaaaaaab <_end+0xaaaa805b>
    1f04:	aab56593          	ori	a1,a0,-1365
    1f08:	7cb22023          	sw	a1,1984(tp) # 7c0 <inst_124+0xc>

00001f0c <inst_519>:
    1f0c:	aaaab537          	lui	a0,0xaaaab
    1f10:	aab50513          	addi	a0,a0,-1365 # aaaaaaab <_end+0xaaaa805b>
    1f14:	00656593          	ori	a1,a0,6
    1f18:	7cb22223          	sw	a1,1988(tp) # 7c4 <inst_125>

00001f1c <inst_520>:
    1f1c:	aaaab537          	lui	a0,0xaaaab
    1f20:	aab50513          	addi	a0,a0,-1365 # aaaaaaab <_end+0xaaaa805b>
    1f24:	33456593          	ori	a1,a0,820
    1f28:	7cb22423          	sw	a1,1992(tp) # 7c8 <inst_125+0x4>

00001f2c <inst_521>:
    1f2c:	aaaab537          	lui	a0,0xaaaab
    1f30:	aab50513          	addi	a0,a0,-1365 # aaaaaaab <_end+0xaaaa805b>
    1f34:	66756593          	ori	a1,a0,1639
    1f38:	7cb22623          	sw	a1,1996(tp) # 7cc <inst_125+0x8>

00001f3c <inst_522>:
    1f3c:	aaaab537          	lui	a0,0xaaaab
    1f40:	aab50513          	addi	a0,a0,-1365 # aaaaaaab <_end+0xaaaa805b>
    1f44:	fd456593          	ori	a1,a0,-44
    1f48:	7cb22823          	sw	a1,2000(tp) # 7d0 <inst_125+0xc>

00001f4c <inst_523>:
    1f4c:	aaaab537          	lui	a0,0xaaaab
    1f50:	aab50513          	addi	a0,a0,-1365 # aaaaaaab <_end+0xaaaa805b>
    1f54:	02e56593          	ori	a1,a0,46
    1f58:	7cb22a23          	sw	a1,2004(tp) # 7d4 <inst_126>

00001f5c <inst_524>:
    1f5c:	00600513          	li	a0,6
    1f60:	00356593          	ori	a1,a0,3
    1f64:	7cb22c23          	sw	a1,2008(tp) # 7d8 <inst_126+0x4>

00001f68 <inst_525>:
    1f68:	00600513          	li	a0,6
    1f6c:	55556593          	ori	a1,a0,1365
    1f70:	7cb22e23          	sw	a1,2012(tp) # 7dc <inst_126+0x8>

00001f74 <inst_526>:
    1f74:	00600513          	li	a0,6
    1f78:	aaa56593          	ori	a1,a0,-1366
    1f7c:	7eb22023          	sw	a1,2016(tp) # 7e0 <inst_126+0xc>

00001f80 <inst_527>:
    1f80:	00600513          	li	a0,6
    1f84:	00556593          	ori	a1,a0,5
    1f88:	7eb22223          	sw	a1,2020(tp) # 7e4 <inst_127>

00001f8c <inst_528>:
    1f8c:	00600513          	li	a0,6
    1f90:	33356593          	ori	a1,a0,819
    1f94:	7eb22423          	sw	a1,2024(tp) # 7e8 <inst_127+0x4>

00001f98 <inst_529>:
    1f98:	00600513          	li	a0,6
    1f9c:	66656593          	ori	a1,a0,1638
    1fa0:	7eb22623          	sw	a1,2028(tp) # 7ec <inst_127+0x8>

00001fa4 <inst_530>:
    1fa4:	00600513          	li	a0,6
    1fa8:	fd356593          	ori	a1,a0,-45
    1fac:	7eb22823          	sw	a1,2032(tp) # 7f0 <inst_127+0xc>

00001fb0 <inst_531>:
    1fb0:	00600513          	li	a0,6
    1fb4:	02d56593          	ori	a1,a0,45
    1fb8:	7eb22a23          	sw	a1,2036(tp) # 7f4 <inst_128>

00001fbc <inst_532>:
    1fbc:	00600513          	li	a0,6
    1fc0:	00256593          	ori	a1,a0,2
    1fc4:	7eb22c23          	sw	a1,2040(tp) # 7f8 <inst_128+0x4>

00001fc8 <inst_533>:
    1fc8:	00600513          	li	a0,6
    1fcc:	55456593          	ori	a1,a0,1364
    1fd0:	7eb22e23          	sw	a1,2044(tp) # 7fc <inst_128+0x8>
    1fd4:	00001217          	auipc	tp,0x1
    1fd8:	a1420213          	addi	tp,tp,-1516 # 29e8 <signature_x4_1>

00001fdc <inst_534>:
    1fdc:	00600513          	li	a0,6
    1fe0:	00056593          	ori	a1,a0,0
    1fe4:	00b22023          	sw	a1,0(tp) # 0 <rvtest_entry_point>

00001fe8 <inst_535>:
    1fe8:	00600513          	li	a0,6
    1fec:	00456593          	ori	a1,a0,4
    1ff0:	00b22223          	sw	a1,4(tp) # 4 <rvtest_entry_point+0x4>

00001ff4 <inst_536>:
    1ff4:	00600513          	li	a0,6
    1ff8:	33256593          	ori	a1,a0,818
    1ffc:	00b22423          	sw	a1,8(tp) # 8 <rvtest_entry_point+0x8>

00002000 <inst_537>:
    2000:	00600513          	li	a0,6
    2004:	66556593          	ori	a1,a0,1637
    2008:	00b22623          	sw	a1,12(tp) # c <rvtest_entry_point+0xc>

0000200c <inst_538>:
    200c:	00600513          	li	a0,6
    2010:	02c56593          	ori	a1,a0,44
    2014:	00b22823          	sw	a1,16(tp) # 10 <rvtest_entry_point+0x10>

00002018 <inst_539>:
    2018:	00600513          	li	a0,6
    201c:	55656593          	ori	a1,a0,1366
    2020:	00b22a23          	sw	a1,20(tp) # 14 <rvtest_entry_point+0x14>

00002024 <inst_540>:
    2024:	00600513          	li	a0,6
    2028:	aab56593          	ori	a1,a0,-1365
    202c:	00b22c23          	sw	a1,24(tp) # 18 <rvtest_entry_point+0x18>

00002030 <inst_541>:
    2030:	00600513          	li	a0,6
    2034:	00656593          	ori	a1,a0,6
    2038:	00b22e23          	sw	a1,28(tp) # 1c <rvtest_entry_point+0x1c>

0000203c <inst_542>:
    203c:	00600513          	li	a0,6
    2040:	33456593          	ori	a1,a0,820
    2044:	02b22023          	sw	a1,32(tp) # 20 <rvtest_entry_point+0x20>

00002048 <inst_543>:
    2048:	00600513          	li	a0,6
    204c:	66756593          	ori	a1,a0,1639
    2050:	02b22223          	sw	a1,36(tp) # 24 <rvtest_entry_point+0x24>

00002054 <inst_544>:
    2054:	00600513          	li	a0,6
    2058:	fd456593          	ori	a1,a0,-44
    205c:	02b22423          	sw	a1,40(tp) # 28 <rvtest_entry_point+0x28>

00002060 <inst_545>:
    2060:	00600513          	li	a0,6
    2064:	02e56593          	ori	a1,a0,46
    2068:	02b22623          	sw	a1,44(tp) # 2c <rvtest_entry_point+0x2c>

0000206c <inst_546>:
    206c:	33333537          	lui	a0,0x33333
    2070:	33450513          	addi	a0,a0,820 # 33333334 <_end+0x333308e4>
    2074:	00356593          	ori	a1,a0,3
    2078:	02b22823          	sw	a1,48(tp) # 30 <rvtest_entry_point+0x30>

0000207c <inst_547>:
    207c:	33333537          	lui	a0,0x33333
    2080:	33450513          	addi	a0,a0,820 # 33333334 <_end+0x333308e4>
    2084:	55556593          	ori	a1,a0,1365
    2088:	02b22a23          	sw	a1,52(tp) # 34 <rvtest_entry_point+0x34>

0000208c <inst_548>:
    208c:	33333537          	lui	a0,0x33333
    2090:	33450513          	addi	a0,a0,820 # 33333334 <_end+0x333308e4>
    2094:	aaa56593          	ori	a1,a0,-1366
    2098:	02b22c23          	sw	a1,56(tp) # 38 <rvtest_entry_point+0x38>

0000209c <inst_549>:
    209c:	33333537          	lui	a0,0x33333
    20a0:	33450513          	addi	a0,a0,820 # 33333334 <_end+0x333308e4>
    20a4:	00556593          	ori	a1,a0,5
    20a8:	02b22e23          	sw	a1,60(tp) # 3c <rvtest_entry_point+0x3c>

000020ac <inst_550>:
    20ac:	33333537          	lui	a0,0x33333
    20b0:	33450513          	addi	a0,a0,820 # 33333334 <_end+0x333308e4>
    20b4:	33356593          	ori	a1,a0,819
    20b8:	04b22023          	sw	a1,64(tp) # 40 <rvtest_entry_point+0x40>

000020bc <inst_551>:
    20bc:	33333537          	lui	a0,0x33333
    20c0:	33450513          	addi	a0,a0,820 # 33333334 <_end+0x333308e4>
    20c4:	66656593          	ori	a1,a0,1638
    20c8:	04b22223          	sw	a1,68(tp) # 44 <rvtest_entry_point+0x44>

000020cc <inst_552>:
    20cc:	33333537          	lui	a0,0x33333
    20d0:	33450513          	addi	a0,a0,820 # 33333334 <_end+0x333308e4>
    20d4:	fd356593          	ori	a1,a0,-45
    20d8:	04b22423          	sw	a1,72(tp) # 48 <rvtest_entry_point+0x48>

000020dc <inst_553>:
    20dc:	33333537          	lui	a0,0x33333
    20e0:	33450513          	addi	a0,a0,820 # 33333334 <_end+0x333308e4>
    20e4:	02d56593          	ori	a1,a0,45
    20e8:	04b22623          	sw	a1,76(tp) # 4c <rvtest_entry_point+0x4c>

000020ec <inst_554>:
    20ec:	33333537          	lui	a0,0x33333
    20f0:	33450513          	addi	a0,a0,820 # 33333334 <_end+0x333308e4>
    20f4:	00256593          	ori	a1,a0,2
    20f8:	04b22823          	sw	a1,80(tp) # 50 <rvtest_entry_point+0x50>

000020fc <inst_555>:
    20fc:	33333537          	lui	a0,0x33333
    2100:	33450513          	addi	a0,a0,820 # 33333334 <_end+0x333308e4>
    2104:	55456593          	ori	a1,a0,1364
    2108:	04b22a23          	sw	a1,84(tp) # 54 <rvtest_entry_point+0x54>

0000210c <inst_556>:
    210c:	33333537          	lui	a0,0x33333
    2110:	33450513          	addi	a0,a0,820 # 33333334 <_end+0x333308e4>
    2114:	00056593          	ori	a1,a0,0
    2118:	04b22c23          	sw	a1,88(tp) # 58 <rvtest_entry_point+0x58>

0000211c <inst_557>:
    211c:	33333537          	lui	a0,0x33333
    2120:	33450513          	addi	a0,a0,820 # 33333334 <_end+0x333308e4>
    2124:	00456593          	ori	a1,a0,4
    2128:	04b22e23          	sw	a1,92(tp) # 5c <rvtest_entry_point+0x5c>

0000212c <inst_558>:
    212c:	c0000537          	lui	a0,0xc0000
    2130:	fff50513          	addi	a0,a0,-1 # bfffffff <_end+0xbfffd5af>
    2134:	40056593          	ori	a1,a0,1024
    2138:	06b22023          	sw	a1,96(tp) # 60 <rvtest_entry_point+0x60>

0000213c <inst_559>:
    213c:	ffffc537          	lui	a0,0xffffc
    2140:	fff50513          	addi	a0,a0,-1 # ffffbfff <_end+0xffff95af>
    2144:	fef56593          	ori	a1,a0,-17
    2148:	06b22223          	sw	a1,100(tp) # 64 <rvtest_entry_point+0x64>
    214c:	00000013          	nop

00002150 <rvtest_code_end>:
    2150:	00000297          	auipc	t0,0x0
    2154:	04028293          	addi	t0,t0,64 # 2190 <begin_signature>
    2158:	00010337          	lui	t1,0x10
    215c:	ff030313          	addi	t1,t1,-16 # fff0 <_end+0xd5a0>
    2160:	00532023          	sw	t0,0(t1)
    2164:	00001297          	auipc	t0,0x1
    2168:	8ec28293          	addi	t0,t0,-1812 # 2a50 <_end>
    216c:	00010337          	lui	t1,0x10
    2170:	ff430313          	addi	t1,t1,-12 # fff4 <_end+0xd5a4>
    2174:	00532023          	sw	t0,0(t1)

00002178 <self_loop>:
    2178:	0000006f          	j	2178 <self_loop>
