
generated/slt-01.elf:     file format elf32-littleriscv


Disassembly of section .text.init:

00000000 <rvtest_entry_point>:
       0:	feedc0b7          	lui	ra,0xfeedc
       4:	ead08093          	addi	ra,ra,-339 # feedbead <_end+0xfeed837d>
       8:	ff76e137          	lui	sp,0xff76e
       c:	f5610113          	addi	sp,sp,-170 # ff76df56 <_end+0xff76a426>
      10:	7fbb71b7          	lui	gp,0x7fbb7
      14:	fab18193          	addi	gp,gp,-85 # 7fbb6fab <_end+0x7fbb347b>
      18:	bfddb237          	lui	tp,0xbfddb
      1c:	7d520213          	addi	tp,tp,2005 # bfddb7d5 <_end+0xbfdd7ca5>
      20:	00000297          	auipc	t0,0x0
      24:	0d828293          	addi	t0,t0,216 # f8 <rvtest_code_begin>
      28:	00003317          	auipc	t1,0x3
      2c:	1d830313          	addi	t1,t1,472 # 3200 <rvtest_data_begin>
      30:	b7fbb3b7          	lui	t2,0xb7fbb
      34:	6fa38393          	addi	t2,t2,1786 # b7fbb6fa <_end+0xb7fb7bca>
      38:	5bfde437          	lui	s0,0x5bfde
      3c:	b7d40413          	addi	s0,s0,-1155 # 5bfddb7d <_end+0x5bfda04d>
      40:	adfef4b7          	lui	s1,0xadfef
      44:	dbe48493          	addi	s1,s1,-578 # adfeedbe <_end+0xadfeb28e>
      48:	56ff7537          	lui	a0,0x56ff7
      4c:	6df50513          	addi	a0,a0,1759 # 56ff76df <_end+0x56ff3baf>
      50:	ab7fc5b7          	lui	a1,0xab7fc
      54:	b6f58593          	addi	a1,a1,-1169 # ab7fbb6f <_end+0xab7f803f>
      58:	d5bfe637          	lui	a2,0xd5bfe
      5c:	db760613          	addi	a2,a2,-585 # d5bfddb7 <_end+0xd5bfa287>
      60:	eadff6b7          	lui	a3,0xeadff
      64:	edb68693          	addi	a3,a3,-293 # eadfeedb <_end+0xeadfb3ab>
      68:	f56ff737          	lui	a4,0xf56ff
      6c:	76d70713          	addi	a4,a4,1901 # f56ff76d <_end+0xf56fbc3d>
      70:	fab807b7          	lui	a5,0xfab80
      74:	bb678793          	addi	a5,a5,-1098 # fab7fbb6 <_end+0xfab7c086>
      78:	7d5c0837          	lui	a6,0x7d5c0
      7c:	ddb80813          	addi	a6,a6,-549 # 7d5bfddb <_end+0x7d5bc2ab>
      80:	beae08b7          	lui	a7,0xbeae0
      84:	eed88893          	addi	a7,a7,-275 # beadfeed <_end+0xbeadc3bd>
      88:	df570937          	lui	s2,0xdf570
      8c:	f7690913          	addi	s2,s2,-138 # df56ff76 <_end+0xdf56c446>
      90:	6fab89b7          	lui	s3,0x6fab8
      94:	fbb98993          	addi	s3,s3,-69 # 6fab7fbb <_end+0x6fab448b>
      98:	b7d5ca37          	lui	s4,0xb7d5c
      9c:	fdda0a13          	addi	s4,s4,-35 # b7d5bfdd <_end+0xb7d584ad>
      a0:	dbeaeab7          	lui	s5,0xdbeae
      a4:	feea8a93          	addi	s5,s5,-18 # dbeadfee <_end+0xdbeaa4be>
      a8:	6df57b37          	lui	s6,0x6df57
      ac:	ff7b0b13          	addi	s6,s6,-9 # 6df56ff7 <_end+0x6df534c7>
      b0:	b6fabbb7          	lui	s7,0xb6fab
      b4:	7fbb8b93          	addi	s7,s7,2043 # b6fab7fb <_end+0xb6fa7ccb>
      b8:	db7d6c37          	lui	s8,0xdb7d6
      bc:	bfdc0c13          	addi	s8,s8,-1027 # db7d5bfd <_end+0xdb7d20cd>
      c0:	edbebcb7          	lui	s9,0xedbeb
      c4:	dfec8c93          	addi	s9,s9,-514 # edbeadfe <_end+0xedbe72ce>
      c8:	76df5d37          	lui	s10,0x76df5
      cc:	6ffd0d13          	addi	s10,s10,1791 # 76df56ff <_end+0x76df1bcf>
      d0:	bb6fbdb7          	lui	s11,0xbb6fb
      d4:	b7fd8d93          	addi	s11,s11,-1153 # bb6fab7f <_end+0xbb6f704f>
      d8:	ddb7de37          	lui	t3,0xddb7d
      dc:	5bfe0e13          	addi	t3,t3,1471 # ddb7d5bf <_end+0xddb79a8f>
      e0:	eedbfeb7          	lui	t4,0xeedbf
      e4:	adfe8e93          	addi	t4,t4,-1313 # eedbeadf <_end+0xeedbafaf>
      e8:	f76dff37          	lui	t5,0xf76df
      ec:	56ff0f13          	addi	t5,t5,1391 # f76df56f <_end+0xf76dba3f>
      f0:	fbb70fb7          	lui	t6,0xfbb70
      f4:	ab7f8f93          	addi	t6,t6,-1353 # fbb6fab7 <_end+0xfbb6bf87>

000000f8 <rvtest_code_begin>:
      f8:	00003617          	auipc	a2,0x3
      fc:	11860613          	addi	a2,a2,280 # 3210 <begin_signature>

00000100 <inst_0>:
     100:	66666937          	lui	s2,0x66666
     104:	66790913          	addi	s2,s2,1639 # 66666667 <_end+0x66662b37>
     108:	66666d37          	lui	s10,0x66666
     10c:	667d0d13          	addi	s10,s10,1639 # 66666667 <_end+0x66662b37>
     110:	01a92d33          	slt	s10,s2,s10
     114:	01a62023          	sw	s10,0(a2)

00000118 <inst_1>:
     118:	33333a37          	lui	s4,0x33333
     11c:	334a0a13          	addi	s4,s4,820 # 33333334 <_end+0x3332f804>
     120:	33333a37          	lui	s4,0x33333
     124:	334a0a13          	addi	s4,s4,820 # 33333334 <_end+0x3332f804>
     128:	014a20b3          	slt	ra,s4,s4
     12c:	00162223          	sw	ra,4(a2)

00000130 <inst_2>:
     130:	ffffcab7          	lui	s5,0xffffc
     134:	fffa8a93          	addi	s5,s5,-1 # ffffbfff <_end+0xffff84cf>
     138:	ffffcab7          	lui	s5,0xffffc
     13c:	fffa8a93          	addi	s5,s5,-1 # ffffbfff <_end+0xffff84cf>
     140:	015aaab3          	slt	s5,s5,s5
     144:	01562423          	sw	s5,8(a2)

00000148 <inst_3>:
     148:	dff00793          	li	a5,-513
     14c:	00500d93          	li	s11,5
     150:	01b7a7b3          	slt	a5,a5,s11
     154:	00f62623          	sw	a5,12(a2)

00000158 <inst_4>:
     158:	333332b7          	lui	t0,0x33333
     15c:	33428293          	addi	t0,t0,820 # 33333334 <_end+0x3332f804>
     160:	80000937          	lui	s2,0x80000
     164:	0122a3b3          	slt	t2,t0,s2
     168:	00762823          	sw	t2,16(a2)

0000016c <inst_5>:
     16c:	08000cb7          	lui	s9,0x8000
     170:	00000993          	li	s3,0
     174:	013ca8b3          	slt	a7,s9,s3
     178:	01162a23          	sw	a7,20(a2)

0000017c <inst_6>:
     17c:	000204b7          	lui	s1,0x20
     180:	80000fb7          	lui	t6,0x80000
     184:	ffff8f93          	addi	t6,t6,-1 # 7fffffff <_end+0x7fffc4cf>
     188:	01f4abb3          	slt	s7,s1,t6
     18c:	01762c23          	sw	s7,24(a2)

00000190 <inst_7>:
     190:	fffe0137          	lui	sp,0xfffe0
     194:	fff10113          	addi	sp,sp,-1 # fffdffff <_end+0xfffdc4cf>
     198:	00100793          	li	a5,1
     19c:	00f125b3          	slt	a1,sp,a5
     1a0:	00b62e23          	sw	a1,28(a2)

000001a4 <inst_8>:
     1a4:	80000e37          	lui	t3,0x80000
     1a8:	40000693          	li	a3,1024
     1ac:	00de2b33          	slt	s6,t3,a3
     1b0:	03662023          	sw	s6,32(a2)

000001b4 <inst_9>:
     1b4:	00000513          	li	a0,0
     1b8:	00800393          	li	t2,8
     1bc:	00752f33          	slt	t5,a0,t2
     1c0:	03e62223          	sw	t5,36(a2)

000001c4 <inst_10>:
     1c4:	80000c37          	lui	s8,0x80000
     1c8:	fffc0c13          	addi	s8,s8,-1 # 7fffffff <_end+0x7fffc4cf>
     1cc:	eff00b13          	li	s6,-257
     1d0:	016c22b3          	slt	t0,s8,s6
     1d4:	02562423          	sw	t0,40(a2)

000001d8 <inst_11>:
     1d8:	00100413          	li	s0,1
     1dc:	dff00193          	li	gp,-513
     1e0:	00342c33          	slt	s8,s0,gp
     1e4:	03862623          	sw	s8,44(a2)

000001e8 <inst_12>:
     1e8:	10000d37          	lui	s10,0x10000
     1ec:	00200493          	li	s1,2
     1f0:	009d2133          	slt	sp,s10,s1
     1f4:	02262823          	sw	sp,48(a2)

000001f8 <inst_13>:
     1f8:	00008237          	lui	tp,0x8
     1fc:	00400713          	li	a4,4
     200:	00e22433          	slt	s0,tp,a4
     204:	02862a23          	sw	s0,52(a2)

00000208 <inst_14>:
     208:	fffff337          	lui	t1,0xfffff
     20c:	fff30313          	addi	t1,t1,-1 # ffffefff <_end+0xffffb4cf>
     210:	01000213          	li	tp,16
     214:	00432cb3          	slt	s9,t1,tp
     218:	03962c23          	sw	s9,56(a2)
     21c:	00003797          	auipc	a5,0x3
     220:	03078793          	addi	a5,a5,48 # 324c <signature_x15_0>

00000224 <inst_15>:
     224:	01000fb7          	lui	t6,0x1000
     228:	02000c93          	li	s9,32
     22c:	019fa733          	slt	a4,t6,s9
     230:	00e7a023          	sw	a4,0(a5)

00000234 <inst_16>:
     234:	00500713          	li	a4,5
     238:	04000413          	li	s0,64
     23c:	00872a33          	slt	s4,a4,s0
     240:	0147a223          	sw	s4,4(a5)

00000244 <inst_17>:
     244:	00000393          	li	t2,0
     248:	08000593          	li	a1,128
     24c:	00b3a9b3          	slt	s3,t2,a1
     250:	0137a423          	sw	s3,8(a5)

00000254 <inst_18>:
     254:	00500993          	li	s3,5
     258:	10000e93          	li	t4,256
     25c:	01d9a4b3          	slt	s1,s3,t4
     260:	0097a623          	sw	s1,12(a5)

00000264 <inst_19>:
     264:	004001b7          	lui	gp,0x400
     268:	20000b93          	li	s7,512
     26c:	0171a333          	slt	t1,gp,s7
     270:	0067a823          	sw	t1,16(a5)

00000274 <inst_20>:
     274:	fef00593          	li	a1,-17
     278:	000010b7          	lui	ra,0x1
     27c:	80008093          	addi	ra,ra,-2048 # 800 <inst_93+0xc>
     280:	0015afb3          	slt	t6,a1,ra
     284:	01f7aa23          	sw	t6,20(a5)

00000288 <inst_21>:
     288:	ff000f37          	lui	t5,0xff000
     28c:	ffff0f13          	addi	t5,t5,-1 # feffffff <_end+0xfeffc4cf>
     290:	00001837          	lui	a6,0x1
     294:	010f2633          	slt	a2,t5,a6
     298:	00c7ac23          	sw	a2,24(a5)

0000029c <inst_22>:
     29c:	00000693          	li	a3,0
     2a0:	00002137          	lui	sp,0x2
     2a4:	0026a833          	slt	a6,a3,sp
     2a8:	0107ae23          	sw	a6,28(a5)

000002ac <inst_23>:
     2ac:	02000b13          	li	s6,32
     2b0:	00004637          	lui	a2,0x4
     2b4:	00cb2533          	slt	a0,s6,a2
     2b8:	02a7a023          	sw	a0,32(a5)

000002bc <inst_24>:
     2bc:	ffe00e93          	li	t4,-2
     2c0:	00008c37          	lui	s8,0x8
     2c4:	018eadb3          	slt	s11,t4,s8
     2c8:	03b7a223          	sw	s11,36(a5)

000002cc <inst_25>:
     2cc:	fc000837          	lui	a6,0xfc000
     2d0:	fff80813          	addi	a6,a6,-1 # fbffffff <_end+0xfbffc4cf>
     2d4:	00010f37          	lui	t5,0x10
     2d8:	01e82233          	slt	tp,a6,t5
     2dc:	0247a423          	sw	tp,40(a5)

000002e0 <inst_26>:
     2e0:	000018b7          	lui	a7,0x1
     2e4:	00020e37          	lui	t3,0x20
     2e8:	01c8a1b3          	slt	gp,a7,t3
     2ec:	0237a623          	sw	gp,44(a5)

000002f0 <inst_27>:
     2f0:	020000b7          	lui	ra,0x2000
     2f4:	000402b7          	lui	t0,0x40
     2f8:	0050a6b3          	slt	a3,ra,t0
     2fc:	02d7a823          	sw	a3,48(a5)

00000300 <inst_28>:
     300:	ffe00db7          	lui	s11,0xffe00
     304:	fffd8d93          	addi	s11,s11,-1 # ffdfffff <_end+0xffdfc4cf>
     308:	00080537          	lui	a0,0x80
     30c:	00ada933          	slt	s2,s11,a0
     310:	0327aa23          	sw	s2,52(a5)
     314:	00003097          	auipc	ra,0x3
     318:	f7008093          	addi	ra,ra,-144 # 3284 <signature_x1_0>

0000031c <inst_29>:
     31c:	00000013          	nop
     320:	001008b7          	lui	a7,0x100
     324:	01102e33          	sgtz	t3,a7
     328:	01c0a023          	sw	t3,0(ra)

0000032c <inst_30>:
     32c:	00400613          	li	a2,4
     330:	00000013          	nop
     334:	00062eb3          	sltz	t4,a2
     338:	01d0a223          	sw	t4,4(ra)

0000033c <inst_31>:
     33c:	00900b93          	li	s7,9
     340:	00400337          	lui	t1,0x400
     344:	006ba033          	slt	zero,s7,t1
     348:	0000a423          	sw	zero,8(ra)

0000034c <inst_32>:
     34c:	80000537          	lui	a0,0x80000
     350:	008005b7          	lui	a1,0x800
     354:	00b52633          	slt	a2,a0,a1
     358:	00c0a623          	sw	a2,12(ra)

0000035c <inst_33>:
     35c:	f7f00513          	li	a0,-129
     360:	010005b7          	lui	a1,0x1000
     364:	00b52633          	slt	a2,a0,a1
     368:	00c0a823          	sw	a2,16(ra)

0000036c <inst_34>:
     36c:	00040537          	lui	a0,0x40
     370:	020005b7          	lui	a1,0x2000
     374:	00b52633          	slt	a2,a0,a1
     378:	00c0aa23          	sw	a2,20(ra)

0000037c <inst_35>:
     37c:	aaaab537          	lui	a0,0xaaaab
     380:	aaa50513          	addi	a0,a0,-1366 # aaaaaaaa <_end+0xaaaa6f7a>
     384:	040005b7          	lui	a1,0x4000
     388:	00b52633          	slt	a2,a0,a1
     38c:	00c0ac23          	sw	a2,24(ra)

00000390 <inst_36>:
     390:	eff00513          	li	a0,-257
     394:	080005b7          	lui	a1,0x8000
     398:	00b52633          	slt	a2,a0,a1
     39c:	00c0ae23          	sw	a2,28(ra)

000003a0 <inst_37>:
     3a0:	02000537          	lui	a0,0x2000
     3a4:	100005b7          	lui	a1,0x10000
     3a8:	00b52633          	slt	a2,a0,a1
     3ac:	02c0a023          	sw	a2,32(ra)

000003b0 <inst_38>:
     3b0:	ffff8537          	lui	a0,0xffff8
     3b4:	fff50513          	addi	a0,a0,-1 # ffff7fff <_end+0xffff44cf>
     3b8:	200005b7          	lui	a1,0x20000
     3bc:	00b52633          	slt	a2,a0,a1
     3c0:	02c0a223          	sw	a2,36(ra)

000003c4 <inst_39>:
     3c4:	02000537          	lui	a0,0x2000
     3c8:	400005b7          	lui	a1,0x40000
     3cc:	00b52633          	slt	a2,a0,a1
     3d0:	02c0a423          	sw	a2,40(ra)

000003d4 <inst_40>:
     3d4:	33333537          	lui	a0,0x33333
     3d8:	33450513          	addi	a0,a0,820 # 33333334 <_end+0x3332f804>
     3dc:	ffe00593          	li	a1,-2
     3e0:	00b52633          	slt	a2,a0,a1
     3e4:	02c0a623          	sw	a2,44(ra)

000003e8 <inst_41>:
     3e8:	00700513          	li	a0,7
     3ec:	ffd00593          	li	a1,-3
     3f0:	00b52633          	slt	a2,a0,a1
     3f4:	02c0a823          	sw	a2,48(ra)

000003f8 <inst_42>:
     3f8:	fef00513          	li	a0,-17
     3fc:	ffb00593          	li	a1,-5
     400:	00b52633          	slt	a2,a0,a1
     404:	02c0aa23          	sw	a2,52(ra)

00000408 <inst_43>:
     408:	00008537          	lui	a0,0x8
     40c:	fef00593          	li	a1,-17
     410:	00b52633          	slt	a2,a0,a1
     414:	02c0ac23          	sw	a2,56(ra)

00000418 <inst_44>:
     418:	bff00513          	li	a0,-1025
     41c:	fdf00593          	li	a1,-33
     420:	00b52633          	slt	a2,a0,a1
     424:	02c0ae23          	sw	a2,60(ra)

00000428 <inst_45>:
     428:	fef00513          	li	a0,-17
     42c:	fbf00593          	li	a1,-65
     430:	00b52633          	slt	a2,a0,a1
     434:	04c0a023          	sw	a2,64(ra)

00000438 <inst_46>:
     438:	ffffc537          	lui	a0,0xffffc
     43c:	fff50513          	addi	a0,a0,-1 # ffffbfff <_end+0xffff84cf>
     440:	f7f00593          	li	a1,-129
     444:	00b52633          	slt	a2,a0,a1
     448:	04c0a223          	sw	a2,68(ra)

0000044c <inst_47>:
     44c:	00080537          	lui	a0,0x80
     450:	bff00593          	li	a1,-1025
     454:	00b52633          	slt	a2,a0,a1
     458:	04c0a423          	sw	a2,72(ra)

0000045c <inst_48>:
     45c:	40000537          	lui	a0,0x40000
     460:	fffff5b7          	lui	a1,0xfffff
     464:	7ff58593          	addi	a1,a1,2047 # fffff7ff <_end+0xffffbccf>
     468:	00b52633          	slt	a2,a0,a1
     46c:	04c0a623          	sw	a2,76(ra)

00000470 <inst_49>:
     470:	ff800537          	lui	a0,0xff800
     474:	fff50513          	addi	a0,a0,-1 # ff7fffff <_end+0xff7fc4cf>
     478:	fffff5b7          	lui	a1,0xfffff
     47c:	fff58593          	addi	a1,a1,-1 # ffffefff <_end+0xffffb4cf>
     480:	00b52633          	slt	a2,a0,a1
     484:	04c0a823          	sw	a2,80(ra)

00000488 <inst_50>:
     488:	00020537          	lui	a0,0x20
     48c:	ffffe5b7          	lui	a1,0xffffe
     490:	fff58593          	addi	a1,a1,-1 # ffffdfff <_end+0xffffa4cf>
     494:	00b52633          	slt	a2,a0,a1
     498:	04c0aa23          	sw	a2,84(ra)

0000049c <inst_51>:
     49c:	00900513          	li	a0,9
     4a0:	ffffc5b7          	lui	a1,0xffffc
     4a4:	fff58593          	addi	a1,a1,-1 # ffffbfff <_end+0xffff84cf>
     4a8:	00b52633          	slt	a2,a0,a1
     4ac:	04c0ac23          	sw	a2,88(ra)

000004b0 <inst_52>:
     4b0:	00300513          	li	a0,3
     4b4:	ffff85b7          	lui	a1,0xffff8
     4b8:	fff58593          	addi	a1,a1,-1 # ffff7fff <_end+0xffff44cf>
     4bc:	00b52633          	slt	a2,a0,a1
     4c0:	04c0ae23          	sw	a2,92(ra)

000004c4 <inst_53>:
     4c4:	f0000537          	lui	a0,0xf0000
     4c8:	fff50513          	addi	a0,a0,-1 # efffffff <_end+0xefffc4cf>
     4cc:	ffff05b7          	lui	a1,0xffff0
     4d0:	fff58593          	addi	a1,a1,-1 # fffeffff <_end+0xfffec4cf>
     4d4:	00b52633          	slt	a2,a0,a1
     4d8:	06c0a023          	sw	a2,96(ra)

000004dc <inst_54>:
     4dc:	0000b537          	lui	a0,0xb
     4e0:	50550513          	addi	a0,a0,1285 # b505 <_end+0x79d5>
     4e4:	fffe05b7          	lui	a1,0xfffe0
     4e8:	fff58593          	addi	a1,a1,-1 # fffdffff <_end+0xfffdc4cf>
     4ec:	00b52633          	slt	a2,a0,a1
     4f0:	06c0a223          	sw	a2,100(ra)

000004f4 <inst_55>:
     4f4:	40000513          	li	a0,1024
     4f8:	fffc05b7          	lui	a1,0xfffc0
     4fc:	fff58593          	addi	a1,a1,-1 # fffbffff <_end+0xfffbc4cf>
     500:	00b52633          	slt	a2,a0,a1
     504:	06c0a423          	sw	a2,104(ra)

00000508 <inst_56>:
     508:	ffff5537          	lui	a0,0xffff5
     50c:	afd50513          	addi	a0,a0,-1283 # ffff4afd <_end+0xffff0fcd>
     510:	fff805b7          	lui	a1,0xfff80
     514:	fff58593          	addi	a1,a1,-1 # fff7ffff <_end+0xfff7c4cf>
     518:	00b52633          	slt	a2,a0,a1
     51c:	06c0a623          	sw	a2,108(ra)

00000520 <inst_57>:
     520:	33333537          	lui	a0,0x33333
     524:	33350513          	addi	a0,a0,819 # 33333333 <_end+0x3332f803>
     528:	fff005b7          	lui	a1,0xfff00
     52c:	fff58593          	addi	a1,a1,-1 # ffefffff <_end+0xffefc4cf>
     530:	00b52633          	slt	a2,a0,a1
     534:	06c0a823          	sw	a2,112(ra)

00000538 <inst_58>:
     538:	00001537          	lui	a0,0x1
     53c:	ffe005b7          	lui	a1,0xffe00
     540:	fff58593          	addi	a1,a1,-1 # ffdfffff <_end+0xffdfc4cf>
     544:	00b52633          	slt	a2,a0,a1
     548:	06c0aa23          	sw	a2,116(ra)

0000054c <inst_59>:
     54c:	fffe0537          	lui	a0,0xfffe0
     550:	fff50513          	addi	a0,a0,-1 # fffdffff <_end+0xfffdc4cf>
     554:	ffc005b7          	lui	a1,0xffc00
     558:	fff58593          	addi	a1,a1,-1 # ffbfffff <_end+0xffbfc4cf>
     55c:	00b52633          	slt	a2,a0,a1
     560:	06c0ac23          	sw	a2,120(ra)

00000564 <inst_60>:
     564:	bff00513          	li	a0,-1025
     568:	ff8005b7          	lui	a1,0xff800
     56c:	fff58593          	addi	a1,a1,-1 # ff7fffff <_end+0xff7fc4cf>
     570:	00b52633          	slt	a2,a0,a1
     574:	06c0ae23          	sw	a2,124(ra)

00000578 <inst_61>:
     578:	02000513          	li	a0,32
     57c:	ff0005b7          	lui	a1,0xff000
     580:	fff58593          	addi	a1,a1,-1 # feffffff <_end+0xfeffc4cf>
     584:	00b52633          	slt	a2,a0,a1
     588:	08c0a023          	sw	a2,128(ra)

0000058c <inst_62>:
     58c:	00200537          	lui	a0,0x200
     590:	fe0005b7          	lui	a1,0xfe000
     594:	fff58593          	addi	a1,a1,-1 # fdffffff <_end+0xfdffc4cf>
     598:	00b52633          	slt	a2,a0,a1
     59c:	08c0a223          	sw	a2,132(ra)

000005a0 <inst_63>:
     5a0:	55555537          	lui	a0,0x55555
     5a4:	55550513          	addi	a0,a0,1365 # 55555555 <_end+0x55551a25>
     5a8:	fc0005b7          	lui	a1,0xfc000
     5ac:	fff58593          	addi	a1,a1,-1 # fbffffff <_end+0xfbffc4cf>
     5b0:	00b52633          	slt	a2,a0,a1
     5b4:	08c0a423          	sw	a2,136(ra)

000005b8 <inst_64>:
     5b8:	ffa00513          	li	a0,-6
     5bc:	f80005b7          	lui	a1,0xf8000
     5c0:	fff58593          	addi	a1,a1,-1 # f7ffffff <_end+0xf7ffc4cf>
     5c4:	00b52633          	slt	a2,a0,a1
     5c8:	08c0a623          	sw	a2,140(ra)

000005cc <inst_65>:
     5cc:	55555537          	lui	a0,0x55555
     5d0:	55550513          	addi	a0,a0,1365 # 55555555 <_end+0x55551a25>
     5d4:	f00005b7          	lui	a1,0xf0000
     5d8:	fff58593          	addi	a1,a1,-1 # efffffff <_end+0xefffc4cf>
     5dc:	00b52633          	slt	a2,a0,a1
     5e0:	08c0a823          	sw	a2,144(ra)

000005e4 <inst_66>:
     5e4:	ffffe537          	lui	a0,0xffffe
     5e8:	fff50513          	addi	a0,a0,-1 # ffffdfff <_end+0xffffa4cf>
     5ec:	e00005b7          	lui	a1,0xe0000
     5f0:	fff58593          	addi	a1,a1,-1 # dfffffff <_end+0xdfffc4cf>
     5f4:	00b52633          	slt	a2,a0,a1
     5f8:	08c0aa23          	sw	a2,148(ra)

000005fc <inst_67>:
     5fc:	55555537          	lui	a0,0x55555
     600:	55650513          	addi	a0,a0,1366 # 55555556 <_end+0x55551a26>
     604:	c00005b7          	lui	a1,0xc0000
     608:	fff58593          	addi	a1,a1,-1 # bfffffff <_end+0xbfffc4cf>
     60c:	00b52633          	slt	a2,a0,a1
     610:	08c0ac23          	sw	a2,152(ra)

00000614 <inst_68>:
     614:	00200513          	li	a0,2
     618:	555555b7          	lui	a1,0x55555
     61c:	55558593          	addi	a1,a1,1365 # 55555555 <_end+0x55551a25>
     620:	00b52633          	slt	a2,a0,a1
     624:	08c0ae23          	sw	a2,156(ra)

00000628 <inst_69>:
     628:	00300513          	li	a0,3
     62c:	aaaab5b7          	lui	a1,0xaaaab
     630:	aaa58593          	addi	a1,a1,-1366 # aaaaaaaa <_end+0xaaaa6f7a>
     634:	00b52633          	slt	a2,a0,a1
     638:	0ac0a023          	sw	a2,160(ra)

0000063c <inst_70>:
     63c:	00800513          	li	a0,8
     640:	10000593          	li	a1,256
     644:	00b52633          	slt	a2,a0,a1
     648:	0ac0a223          	sw	a2,164(ra)

0000064c <inst_71>:
     64c:	01000513          	li	a0,16
     650:	555555b7          	lui	a1,0x55555
     654:	55658593          	addi	a1,a1,1366 # 55555556 <_end+0x55551a26>
     658:	00b52633          	slt	a2,a0,a1
     65c:	0ac0a423          	sw	a2,168(ra)

00000660 <inst_72>:
     660:	04000513          	li	a0,64
     664:	ffff55b7          	lui	a1,0xffff5
     668:	afc58593          	addi	a1,a1,-1284 # ffff4afc <_end+0xffff0fcc>
     66c:	00b52633          	slt	a2,a0,a1
     670:	0ac0a623          	sw	a2,172(ra)

00000674 <inst_73>:
     674:	08000513          	li	a0,128
     678:	ffffe5b7          	lui	a1,0xffffe
     67c:	fff58593          	addi	a1,a1,-1 # ffffdfff <_end+0xffffa4cf>
     680:	00b52633          	slt	a2,a0,a1
     684:	0ac0a823          	sw	a2,176(ra)

00000688 <inst_74>:
     688:	10000513          	li	a0,256
     68c:	c00005b7          	lui	a1,0xc0000
     690:	fff58593          	addi	a1,a1,-1 # bfffffff <_end+0xbfffc4cf>
     694:	00b52633          	slt	a2,a0,a1
     698:	0ac0aa23          	sw	a2,180(ra)

0000069c <inst_75>:
     69c:	20000513          	li	a0,512
     6a0:	fbf00593          	li	a1,-65
     6a4:	00b52633          	slt	a2,a0,a1
     6a8:	0ac0ac23          	sw	a2,184(ra)

000006ac <inst_76>:
     6ac:	00001537          	lui	a0,0x1
     6b0:	80050513          	addi	a0,a0,-2048 # 800 <inst_93+0xc>
     6b4:	000405b7          	lui	a1,0x40
     6b8:	00b52633          	slt	a2,a0,a1
     6bc:	0ac0ae23          	sw	a2,188(ra)

000006c0 <inst_77>:
     6c0:	00002537          	lui	a0,0x2
     6c4:	aaaab5b7          	lui	a1,0xaaaab
     6c8:	aab58593          	addi	a1,a1,-1365 # aaaaaaab <_end+0xaaaa6f7b>
     6cc:	00b52633          	slt	a2,a0,a1
     6d0:	0cc0a023          	sw	a2,192(ra)

000006d4 <inst_78>:
     6d4:	00004537          	lui	a0,0x4
     6d8:	fef00593          	li	a1,-17
     6dc:	00b52633          	slt	a2,a0,a1
     6e0:	0cc0a223          	sw	a2,196(ra)

000006e4 <inst_79>:
     6e4:	00010537          	lui	a0,0x10
     6e8:	00500593          	li	a1,5
     6ec:	00b52633          	slt	a2,a0,a1
     6f0:	0cc0a423          	sw	a2,200(ra)

000006f4 <inst_80>:
     6f4:	00100537          	lui	a0,0x100
     6f8:	ff0005b7          	lui	a1,0xff000
     6fc:	fff58593          	addi	a1,a1,-1 # feffffff <_end+0xfeffc4cf>
     700:	00b52633          	slt	a2,a0,a1
     704:	0cc0a623          	sw	a2,204(ra)

00000708 <inst_81>:
     708:	00800537          	lui	a0,0x800
     70c:	333335b7          	lui	a1,0x33333
     710:	33458593          	addi	a1,a1,820 # 33333334 <_end+0x3332f804>
     714:	00b52633          	slt	a2,a0,a1
     718:	0cc0a823          	sw	a2,208(ra)

0000071c <inst_82>:
     71c:	04000537          	lui	a0,0x4000
     720:	000045b7          	lui	a1,0x4
     724:	00b52633          	slt	a2,a0,a1
     728:	0cc0aa23          	sw	a2,212(ra)

0000072c <inst_83>:
     72c:	20000537          	lui	a0,0x20000
     730:	fe0005b7          	lui	a1,0xfe000
     734:	fff58593          	addi	a1,a1,-1 # fdffffff <_end+0xfdffc4cf>
     738:	00b52633          	slt	a2,a0,a1
     73c:	0cc0ac23          	sw	a2,216(ra)

00000740 <inst_84>:
     740:	ffd00513          	li	a0,-3
     744:	ffff55b7          	lui	a1,0xffff5
     748:	afc58593          	addi	a1,a1,-1284 # ffff4afc <_end+0xffff0fcc>
     74c:	00b52633          	slt	a2,a0,a1
     750:	0cc0ae23          	sw	a2,220(ra)

00000754 <inst_85>:
     754:	ffb00513          	li	a0,-5
     758:	40000593          	li	a1,1024
     75c:	00b52633          	slt	a2,a0,a1
     760:	0ec0a023          	sw	a2,224(ra)

00000764 <inst_86>:
     764:	ff700513          	li	a0,-9
     768:	666665b7          	lui	a1,0x66666
     76c:	66758593          	addi	a1,a1,1639 # 66666667 <_end+0x66662b37>
     770:	00b52633          	slt	a2,a0,a1
     774:	0ec0a223          	sw	a2,228(ra)

00000778 <inst_87>:
     778:	fdf00513          	li	a0,-33
     77c:	fffc05b7          	lui	a1,0xfffc0
     780:	fff58593          	addi	a1,a1,-1 # fffbffff <_end+0xfffbc4cf>
     784:	00b52633          	slt	a2,a0,a1
     788:	0ec0a423          	sw	a2,232(ra)

0000078c <inst_88>:
     78c:	fbf00513          	li	a0,-65
     790:	400005b7          	lui	a1,0x40000
     794:	00b52633          	slt	a2,a0,a1
     798:	0ec0a623          	sw	a2,236(ra)

0000079c <inst_89>:
     79c:	fffff537          	lui	a0,0xfffff
     7a0:	7ff50513          	addi	a0,a0,2047 # fffff7ff <_end+0xffffbccf>
     7a4:	00800593          	li	a1,8
     7a8:	00b52633          	slt	a2,a0,a1
     7ac:	0ec0a823          	sw	a2,240(ra)

000007b0 <inst_90>:
     7b0:	ffff0537          	lui	a0,0xffff0
     7b4:	fff50513          	addi	a0,a0,-1 # fffeffff <_end+0xfffec4cf>
     7b8:	fffc05b7          	lui	a1,0xfffc0
     7bc:	fff58593          	addi	a1,a1,-1 # fffbffff <_end+0xfffbc4cf>
     7c0:	00b52633          	slt	a2,a0,a1
     7c4:	0ec0aa23          	sw	a2,244(ra)

000007c8 <inst_91>:
     7c8:	fffc0537          	lui	a0,0xfffc0
     7cc:	fff50513          	addi	a0,a0,-1 # fffbffff <_end+0xfffbc4cf>
     7d0:	e00005b7          	lui	a1,0xe0000
     7d4:	fff58593          	addi	a1,a1,-1 # dfffffff <_end+0xdfffc4cf>
     7d8:	00b52633          	slt	a2,a0,a1
     7dc:	0ec0ac23          	sw	a2,248(ra)

000007e0 <inst_92>:
     7e0:	fff80537          	lui	a0,0xfff80
     7e4:	fff50513          	addi	a0,a0,-1 # fff7ffff <_end+0xfff7c4cf>
     7e8:	fef00593          	li	a1,-17
     7ec:	00b52633          	slt	a2,a0,a1
     7f0:	0ec0ae23          	sw	a2,252(ra)

000007f4 <inst_93>:
     7f4:	fff00537          	lui	a0,0xfff00
     7f8:	fff50513          	addi	a0,a0,-1 # ffefffff <_end+0xffefc4cf>
     7fc:	0000b5b7          	lui	a1,0xb
     800:	50458593          	addi	a1,a1,1284 # b504 <_end+0x79d4>
     804:	00b52633          	slt	a2,a0,a1
     808:	10c0a023          	sw	a2,256(ra)

0000080c <inst_94>:
     80c:	ffc00537          	lui	a0,0xffc00
     810:	fff50513          	addi	a0,a0,-1 # ffbfffff <_end+0xffbfc4cf>
     814:	00200593          	li	a1,2
     818:	00b52633          	slt	a2,a0,a1
     81c:	10c0a223          	sw	a2,260(ra)

00000820 <inst_95>:
     820:	fe000537          	lui	a0,0xfe000
     824:	fff50513          	addi	a0,a0,-1 # fdffffff <_end+0xfdffc4cf>
     828:	000015b7          	lui	a1,0x1
     82c:	00b52633          	slt	a2,a0,a1
     830:	10c0a423          	sw	a2,264(ra)

00000834 <inst_96>:
     834:	f8000537          	lui	a0,0xf8000
     838:	fff50513          	addi	a0,a0,-1 # f7ffffff <_end+0xf7ffc4cf>
     83c:	000015b7          	lui	a1,0x1
     840:	80058593          	addi	a1,a1,-2048 # 800 <inst_93+0xc>
     844:	00b52633          	slt	a2,a0,a1
     848:	10c0a623          	sw	a2,268(ra)

0000084c <inst_97>:
     84c:	e0000537          	lui	a0,0xe0000
     850:	fff50513          	addi	a0,a0,-1 # dfffffff <_end+0xdfffc4cf>
     854:	666665b7          	lui	a1,0x66666
     858:	66658593          	addi	a1,a1,1638 # 66666666 <_end+0x66662b36>
     85c:	00b52633          	slt	a2,a0,a1
     860:	10c0a823          	sw	a2,272(ra)

00000864 <inst_98>:
     864:	c0000537          	lui	a0,0xc0000
     868:	fff50513          	addi	a0,a0,-1 # bfffffff <_end+0xbfffc4cf>
     86c:	ffff55b7          	lui	a1,0xffff5
     870:	afc58593          	addi	a1,a1,-1284 # ffff4afc <_end+0xffff0fcc>
     874:	00b52633          	slt	a2,a0,a1
     878:	10c0aa23          	sw	a2,276(ra)

0000087c <inst_99>:
     87c:	00300513          	li	a0,3
     880:	00300593          	li	a1,3
     884:	00b52633          	slt	a2,a0,a1
     888:	10c0ac23          	sw	a2,280(ra)

0000088c <inst_100>:
     88c:	00300513          	li	a0,3
     890:	555555b7          	lui	a1,0x55555
     894:	55558593          	addi	a1,a1,1365 # 55555555 <_end+0x55551a25>
     898:	00b52633          	slt	a2,a0,a1
     89c:	10c0ae23          	sw	a2,284(ra)

000008a0 <inst_101>:
     8a0:	00300513          	li	a0,3
     8a4:	00500593          	li	a1,5
     8a8:	00b52633          	slt	a2,a0,a1
     8ac:	12c0a023          	sw	a2,288(ra)

000008b0 <inst_102>:
     8b0:	00300513          	li	a0,3
     8b4:	333335b7          	lui	a1,0x33333
     8b8:	33358593          	addi	a1,a1,819 # 33333333 <_end+0x3332f803>
     8bc:	00b52633          	slt	a2,a0,a1
     8c0:	12c0a223          	sw	a2,292(ra)

000008c4 <inst_103>:
     8c4:	00300513          	li	a0,3
     8c8:	666665b7          	lui	a1,0x66666
     8cc:	66658593          	addi	a1,a1,1638 # 66666666 <_end+0x66662b36>
     8d0:	00b52633          	slt	a2,a0,a1
     8d4:	12c0a423          	sw	a2,296(ra)

000008d8 <inst_104>:
     8d8:	00300513          	li	a0,3
     8dc:	ffff55b7          	lui	a1,0xffff5
     8e0:	afc58593          	addi	a1,a1,-1284 # ffff4afc <_end+0xffff0fcc>
     8e4:	00b52633          	slt	a2,a0,a1
     8e8:	12c0a623          	sw	a2,300(ra)

000008ec <inst_105>:
     8ec:	00300513          	li	a0,3
     8f0:	0000b5b7          	lui	a1,0xb
     8f4:	50458593          	addi	a1,a1,1284 # b504 <_end+0x79d4>
     8f8:	00b52633          	slt	a2,a0,a1
     8fc:	12c0a823          	sw	a2,304(ra)

00000900 <inst_106>:
     900:	00300513          	li	a0,3
     904:	00200593          	li	a1,2
     908:	00b52633          	slt	a2,a0,a1
     90c:	12c0aa23          	sw	a2,308(ra)

00000910 <inst_107>:
     910:	00300513          	li	a0,3
     914:	555555b7          	lui	a1,0x55555
     918:	55458593          	addi	a1,a1,1364 # 55555554 <_end+0x55551a24>
     91c:	00b52633          	slt	a2,a0,a1
     920:	12c0ac23          	sw	a2,312(ra)

00000924 <inst_108>:
     924:	00300513          	li	a0,3
     928:	00000593          	li	a1,0
     92c:	00b52633          	slt	a2,a0,a1
     930:	12c0ae23          	sw	a2,316(ra)

00000934 <inst_109>:
     934:	00300513          	li	a0,3
     938:	00400593          	li	a1,4
     93c:	00b52633          	slt	a2,a0,a1
     940:	14c0a023          	sw	a2,320(ra)

00000944 <inst_110>:
     944:	00300513          	li	a0,3
     948:	333335b7          	lui	a1,0x33333
     94c:	33258593          	addi	a1,a1,818 # 33333332 <_end+0x3332f802>
     950:	00b52633          	slt	a2,a0,a1
     954:	14c0a223          	sw	a2,324(ra)

00000958 <inst_111>:
     958:	00300513          	li	a0,3
     95c:	666665b7          	lui	a1,0x66666
     960:	66558593          	addi	a1,a1,1637 # 66666665 <_end+0x66662b35>
     964:	00b52633          	slt	a2,a0,a1
     968:	14c0a423          	sw	a2,328(ra)

0000096c <inst_112>:
     96c:	00300513          	li	a0,3
     970:	0000b5b7          	lui	a1,0xb
     974:	50358593          	addi	a1,a1,1283 # b503 <_end+0x79d3>
     978:	00b52633          	slt	a2,a0,a1
     97c:	14c0a623          	sw	a2,332(ra)

00000980 <inst_113>:
     980:	00300513          	li	a0,3
     984:	555555b7          	lui	a1,0x55555
     988:	55658593          	addi	a1,a1,1366 # 55555556 <_end+0x55551a26>
     98c:	00b52633          	slt	a2,a0,a1
     990:	14c0a823          	sw	a2,336(ra)

00000994 <inst_114>:
     994:	00300513          	li	a0,3
     998:	aaaab5b7          	lui	a1,0xaaaab
     99c:	aab58593          	addi	a1,a1,-1365 # aaaaaaab <_end+0xaaaa6f7b>
     9a0:	00b52633          	slt	a2,a0,a1
     9a4:	14c0aa23          	sw	a2,340(ra)

000009a8 <inst_115>:
     9a8:	00300513          	li	a0,3
     9ac:	00600593          	li	a1,6
     9b0:	00b52633          	slt	a2,a0,a1
     9b4:	14c0ac23          	sw	a2,344(ra)

000009b8 <inst_116>:
     9b8:	00300513          	li	a0,3
     9bc:	333335b7          	lui	a1,0x33333
     9c0:	33458593          	addi	a1,a1,820 # 33333334 <_end+0x3332f804>
     9c4:	00b52633          	slt	a2,a0,a1
     9c8:	14c0ae23          	sw	a2,348(ra)

000009cc <inst_117>:
     9cc:	00300513          	li	a0,3
     9d0:	666665b7          	lui	a1,0x66666
     9d4:	66758593          	addi	a1,a1,1639 # 66666667 <_end+0x66662b37>
     9d8:	00b52633          	slt	a2,a0,a1
     9dc:	16c0a023          	sw	a2,352(ra)

000009e0 <inst_118>:
     9e0:	00300513          	li	a0,3
     9e4:	ffff55b7          	lui	a1,0xffff5
     9e8:	afd58593          	addi	a1,a1,-1283 # ffff4afd <_end+0xffff0fcd>
     9ec:	00b52633          	slt	a2,a0,a1
     9f0:	16c0a223          	sw	a2,356(ra)

000009f4 <inst_119>:
     9f4:	00300513          	li	a0,3
     9f8:	0000b5b7          	lui	a1,0xb
     9fc:	50558593          	addi	a1,a1,1285 # b505 <_end+0x79d5>
     a00:	00b52633          	slt	a2,a0,a1
     a04:	16c0a423          	sw	a2,360(ra)

00000a08 <inst_120>:
     a08:	55555537          	lui	a0,0x55555
     a0c:	55550513          	addi	a0,a0,1365 # 55555555 <_end+0x55551a25>
     a10:	00300593          	li	a1,3
     a14:	00b52633          	slt	a2,a0,a1
     a18:	16c0a623          	sw	a2,364(ra)

00000a1c <inst_121>:
     a1c:	55555537          	lui	a0,0x55555
     a20:	55550513          	addi	a0,a0,1365 # 55555555 <_end+0x55551a25>
     a24:	555555b7          	lui	a1,0x55555
     a28:	55558593          	addi	a1,a1,1365 # 55555555 <_end+0x55551a25>
     a2c:	00b52633          	slt	a2,a0,a1
     a30:	16c0a823          	sw	a2,368(ra)

00000a34 <inst_122>:
     a34:	55555537          	lui	a0,0x55555
     a38:	55550513          	addi	a0,a0,1365 # 55555555 <_end+0x55551a25>
     a3c:	aaaab5b7          	lui	a1,0xaaaab
     a40:	aaa58593          	addi	a1,a1,-1366 # aaaaaaaa <_end+0xaaaa6f7a>
     a44:	00b52633          	slt	a2,a0,a1
     a48:	16c0aa23          	sw	a2,372(ra)

00000a4c <inst_123>:
     a4c:	55555537          	lui	a0,0x55555
     a50:	55550513          	addi	a0,a0,1365 # 55555555 <_end+0x55551a25>
     a54:	00500593          	li	a1,5
     a58:	00b52633          	slt	a2,a0,a1
     a5c:	16c0ac23          	sw	a2,376(ra)

00000a60 <inst_124>:
     a60:	55555537          	lui	a0,0x55555
     a64:	55550513          	addi	a0,a0,1365 # 55555555 <_end+0x55551a25>
     a68:	333335b7          	lui	a1,0x33333
     a6c:	33358593          	addi	a1,a1,819 # 33333333 <_end+0x3332f803>
     a70:	00b52633          	slt	a2,a0,a1
     a74:	16c0ae23          	sw	a2,380(ra)

00000a78 <inst_125>:
     a78:	55555537          	lui	a0,0x55555
     a7c:	55550513          	addi	a0,a0,1365 # 55555555 <_end+0x55551a25>
     a80:	666665b7          	lui	a1,0x66666
     a84:	66658593          	addi	a1,a1,1638 # 66666666 <_end+0x66662b36>
     a88:	00b52633          	slt	a2,a0,a1
     a8c:	18c0a023          	sw	a2,384(ra)

00000a90 <inst_126>:
     a90:	55555537          	lui	a0,0x55555
     a94:	55550513          	addi	a0,a0,1365 # 55555555 <_end+0x55551a25>
     a98:	ffff55b7          	lui	a1,0xffff5
     a9c:	afc58593          	addi	a1,a1,-1284 # ffff4afc <_end+0xffff0fcc>
     aa0:	00b52633          	slt	a2,a0,a1
     aa4:	18c0a223          	sw	a2,388(ra)

00000aa8 <inst_127>:
     aa8:	55555537          	lui	a0,0x55555
     aac:	55550513          	addi	a0,a0,1365 # 55555555 <_end+0x55551a25>
     ab0:	0000b5b7          	lui	a1,0xb
     ab4:	50458593          	addi	a1,a1,1284 # b504 <_end+0x79d4>
     ab8:	00b52633          	slt	a2,a0,a1
     abc:	18c0a423          	sw	a2,392(ra)

00000ac0 <inst_128>:
     ac0:	55555537          	lui	a0,0x55555
     ac4:	55550513          	addi	a0,a0,1365 # 55555555 <_end+0x55551a25>
     ac8:	00200593          	li	a1,2
     acc:	00b52633          	slt	a2,a0,a1
     ad0:	18c0a623          	sw	a2,396(ra)

00000ad4 <inst_129>:
     ad4:	55555537          	lui	a0,0x55555
     ad8:	55550513          	addi	a0,a0,1365 # 55555555 <_end+0x55551a25>
     adc:	555555b7          	lui	a1,0x55555
     ae0:	55458593          	addi	a1,a1,1364 # 55555554 <_end+0x55551a24>
     ae4:	00b52633          	slt	a2,a0,a1
     ae8:	18c0a823          	sw	a2,400(ra)

00000aec <inst_130>:
     aec:	55555537          	lui	a0,0x55555
     af0:	55550513          	addi	a0,a0,1365 # 55555555 <_end+0x55551a25>
     af4:	00000593          	li	a1,0
     af8:	00b52633          	slt	a2,a0,a1
     afc:	18c0aa23          	sw	a2,404(ra)

00000b00 <inst_131>:
     b00:	55555537          	lui	a0,0x55555
     b04:	55550513          	addi	a0,a0,1365 # 55555555 <_end+0x55551a25>
     b08:	00400593          	li	a1,4
     b0c:	00b52633          	slt	a2,a0,a1
     b10:	18c0ac23          	sw	a2,408(ra)

00000b14 <inst_132>:
     b14:	55555537          	lui	a0,0x55555
     b18:	55550513          	addi	a0,a0,1365 # 55555555 <_end+0x55551a25>
     b1c:	333335b7          	lui	a1,0x33333
     b20:	33258593          	addi	a1,a1,818 # 33333332 <_end+0x3332f802>
     b24:	00b52633          	slt	a2,a0,a1
     b28:	18c0ae23          	sw	a2,412(ra)

00000b2c <inst_133>:
     b2c:	55555537          	lui	a0,0x55555
     b30:	55550513          	addi	a0,a0,1365 # 55555555 <_end+0x55551a25>
     b34:	666665b7          	lui	a1,0x66666
     b38:	66558593          	addi	a1,a1,1637 # 66666665 <_end+0x66662b35>
     b3c:	00b52633          	slt	a2,a0,a1
     b40:	1ac0a023          	sw	a2,416(ra)

00000b44 <inst_134>:
     b44:	55555537          	lui	a0,0x55555
     b48:	55550513          	addi	a0,a0,1365 # 55555555 <_end+0x55551a25>
     b4c:	0000b5b7          	lui	a1,0xb
     b50:	50358593          	addi	a1,a1,1283 # b503 <_end+0x79d3>
     b54:	00b52633          	slt	a2,a0,a1
     b58:	1ac0a223          	sw	a2,420(ra)

00000b5c <inst_135>:
     b5c:	55555537          	lui	a0,0x55555
     b60:	55550513          	addi	a0,a0,1365 # 55555555 <_end+0x55551a25>
     b64:	555555b7          	lui	a1,0x55555
     b68:	55658593          	addi	a1,a1,1366 # 55555556 <_end+0x55551a26>
     b6c:	00b52633          	slt	a2,a0,a1
     b70:	1ac0a423          	sw	a2,424(ra)

00000b74 <inst_136>:
     b74:	55555537          	lui	a0,0x55555
     b78:	55550513          	addi	a0,a0,1365 # 55555555 <_end+0x55551a25>
     b7c:	aaaab5b7          	lui	a1,0xaaaab
     b80:	aab58593          	addi	a1,a1,-1365 # aaaaaaab <_end+0xaaaa6f7b>
     b84:	00b52633          	slt	a2,a0,a1
     b88:	1ac0a623          	sw	a2,428(ra)

00000b8c <inst_137>:
     b8c:	55555537          	lui	a0,0x55555
     b90:	55550513          	addi	a0,a0,1365 # 55555555 <_end+0x55551a25>
     b94:	00600593          	li	a1,6
     b98:	00b52633          	slt	a2,a0,a1
     b9c:	1ac0a823          	sw	a2,432(ra)

00000ba0 <inst_138>:
     ba0:	55555537          	lui	a0,0x55555
     ba4:	55550513          	addi	a0,a0,1365 # 55555555 <_end+0x55551a25>
     ba8:	333335b7          	lui	a1,0x33333
     bac:	33458593          	addi	a1,a1,820 # 33333334 <_end+0x3332f804>
     bb0:	00b52633          	slt	a2,a0,a1
     bb4:	1ac0aa23          	sw	a2,436(ra)

00000bb8 <inst_139>:
     bb8:	55555537          	lui	a0,0x55555
     bbc:	55550513          	addi	a0,a0,1365 # 55555555 <_end+0x55551a25>
     bc0:	666665b7          	lui	a1,0x66666
     bc4:	66758593          	addi	a1,a1,1639 # 66666667 <_end+0x66662b37>
     bc8:	00b52633          	slt	a2,a0,a1
     bcc:	1ac0ac23          	sw	a2,440(ra)

00000bd0 <inst_140>:
     bd0:	55555537          	lui	a0,0x55555
     bd4:	55550513          	addi	a0,a0,1365 # 55555555 <_end+0x55551a25>
     bd8:	ffff55b7          	lui	a1,0xffff5
     bdc:	afd58593          	addi	a1,a1,-1283 # ffff4afd <_end+0xffff0fcd>
     be0:	00b52633          	slt	a2,a0,a1
     be4:	1ac0ae23          	sw	a2,444(ra)

00000be8 <inst_141>:
     be8:	55555537          	lui	a0,0x55555
     bec:	55550513          	addi	a0,a0,1365 # 55555555 <_end+0x55551a25>
     bf0:	0000b5b7          	lui	a1,0xb
     bf4:	50558593          	addi	a1,a1,1285 # b505 <_end+0x79d5>
     bf8:	00b52633          	slt	a2,a0,a1
     bfc:	1cc0a023          	sw	a2,448(ra)

00000c00 <inst_142>:
     c00:	aaaab537          	lui	a0,0xaaaab
     c04:	aaa50513          	addi	a0,a0,-1366 # aaaaaaaa <_end+0xaaaa6f7a>
     c08:	00300593          	li	a1,3
     c0c:	00b52633          	slt	a2,a0,a1
     c10:	1cc0a223          	sw	a2,452(ra)

00000c14 <inst_143>:
     c14:	aaaab537          	lui	a0,0xaaaab
     c18:	aaa50513          	addi	a0,a0,-1366 # aaaaaaaa <_end+0xaaaa6f7a>
     c1c:	555555b7          	lui	a1,0x55555
     c20:	55558593          	addi	a1,a1,1365 # 55555555 <_end+0x55551a25>
     c24:	00b52633          	slt	a2,a0,a1
     c28:	1cc0a423          	sw	a2,456(ra)

00000c2c <inst_144>:
     c2c:	aaaab537          	lui	a0,0xaaaab
     c30:	aaa50513          	addi	a0,a0,-1366 # aaaaaaaa <_end+0xaaaa6f7a>
     c34:	aaaab5b7          	lui	a1,0xaaaab
     c38:	aaa58593          	addi	a1,a1,-1366 # aaaaaaaa <_end+0xaaaa6f7a>
     c3c:	00b52633          	slt	a2,a0,a1
     c40:	1cc0a623          	sw	a2,460(ra)

00000c44 <inst_145>:
     c44:	aaaab537          	lui	a0,0xaaaab
     c48:	aaa50513          	addi	a0,a0,-1366 # aaaaaaaa <_end+0xaaaa6f7a>
     c4c:	00500593          	li	a1,5
     c50:	00b52633          	slt	a2,a0,a1
     c54:	1cc0a823          	sw	a2,464(ra)

00000c58 <inst_146>:
     c58:	aaaab537          	lui	a0,0xaaaab
     c5c:	aaa50513          	addi	a0,a0,-1366 # aaaaaaaa <_end+0xaaaa6f7a>
     c60:	333335b7          	lui	a1,0x33333
     c64:	33358593          	addi	a1,a1,819 # 33333333 <_end+0x3332f803>
     c68:	00b52633          	slt	a2,a0,a1
     c6c:	1cc0aa23          	sw	a2,468(ra)

00000c70 <inst_147>:
     c70:	aaaab537          	lui	a0,0xaaaab
     c74:	aaa50513          	addi	a0,a0,-1366 # aaaaaaaa <_end+0xaaaa6f7a>
     c78:	666665b7          	lui	a1,0x66666
     c7c:	66658593          	addi	a1,a1,1638 # 66666666 <_end+0x66662b36>
     c80:	00b52633          	slt	a2,a0,a1
     c84:	1cc0ac23          	sw	a2,472(ra)

00000c88 <inst_148>:
     c88:	aaaab537          	lui	a0,0xaaaab
     c8c:	aaa50513          	addi	a0,a0,-1366 # aaaaaaaa <_end+0xaaaa6f7a>
     c90:	ffff55b7          	lui	a1,0xffff5
     c94:	afc58593          	addi	a1,a1,-1284 # ffff4afc <_end+0xffff0fcc>
     c98:	00b52633          	slt	a2,a0,a1
     c9c:	1cc0ae23          	sw	a2,476(ra)

00000ca0 <inst_149>:
     ca0:	aaaab537          	lui	a0,0xaaaab
     ca4:	aaa50513          	addi	a0,a0,-1366 # aaaaaaaa <_end+0xaaaa6f7a>
     ca8:	0000b5b7          	lui	a1,0xb
     cac:	50458593          	addi	a1,a1,1284 # b504 <_end+0x79d4>
     cb0:	00b52633          	slt	a2,a0,a1
     cb4:	1ec0a023          	sw	a2,480(ra)

00000cb8 <inst_150>:
     cb8:	aaaab537          	lui	a0,0xaaaab
     cbc:	aaa50513          	addi	a0,a0,-1366 # aaaaaaaa <_end+0xaaaa6f7a>
     cc0:	00200593          	li	a1,2
     cc4:	00b52633          	slt	a2,a0,a1
     cc8:	1ec0a223          	sw	a2,484(ra)

00000ccc <inst_151>:
     ccc:	aaaab537          	lui	a0,0xaaaab
     cd0:	aaa50513          	addi	a0,a0,-1366 # aaaaaaaa <_end+0xaaaa6f7a>
     cd4:	555555b7          	lui	a1,0x55555
     cd8:	55458593          	addi	a1,a1,1364 # 55555554 <_end+0x55551a24>
     cdc:	00b52633          	slt	a2,a0,a1
     ce0:	1ec0a423          	sw	a2,488(ra)

00000ce4 <inst_152>:
     ce4:	aaaab537          	lui	a0,0xaaaab
     ce8:	aaa50513          	addi	a0,a0,-1366 # aaaaaaaa <_end+0xaaaa6f7a>
     cec:	00000593          	li	a1,0
     cf0:	00b52633          	slt	a2,a0,a1
     cf4:	1ec0a623          	sw	a2,492(ra)

00000cf8 <inst_153>:
     cf8:	aaaab537          	lui	a0,0xaaaab
     cfc:	aaa50513          	addi	a0,a0,-1366 # aaaaaaaa <_end+0xaaaa6f7a>
     d00:	00400593          	li	a1,4
     d04:	00b52633          	slt	a2,a0,a1
     d08:	1ec0a823          	sw	a2,496(ra)

00000d0c <inst_154>:
     d0c:	aaaab537          	lui	a0,0xaaaab
     d10:	aaa50513          	addi	a0,a0,-1366 # aaaaaaaa <_end+0xaaaa6f7a>
     d14:	333335b7          	lui	a1,0x33333
     d18:	33258593          	addi	a1,a1,818 # 33333332 <_end+0x3332f802>
     d1c:	00b52633          	slt	a2,a0,a1
     d20:	1ec0aa23          	sw	a2,500(ra)

00000d24 <inst_155>:
     d24:	aaaab537          	lui	a0,0xaaaab
     d28:	aaa50513          	addi	a0,a0,-1366 # aaaaaaaa <_end+0xaaaa6f7a>
     d2c:	666665b7          	lui	a1,0x66666
     d30:	66558593          	addi	a1,a1,1637 # 66666665 <_end+0x66662b35>
     d34:	00b52633          	slt	a2,a0,a1
     d38:	1ec0ac23          	sw	a2,504(ra)

00000d3c <inst_156>:
     d3c:	aaaab537          	lui	a0,0xaaaab
     d40:	aaa50513          	addi	a0,a0,-1366 # aaaaaaaa <_end+0xaaaa6f7a>
     d44:	0000b5b7          	lui	a1,0xb
     d48:	50358593          	addi	a1,a1,1283 # b503 <_end+0x79d3>
     d4c:	00b52633          	slt	a2,a0,a1
     d50:	1ec0ae23          	sw	a2,508(ra)

00000d54 <inst_157>:
     d54:	aaaab537          	lui	a0,0xaaaab
     d58:	aaa50513          	addi	a0,a0,-1366 # aaaaaaaa <_end+0xaaaa6f7a>
     d5c:	555555b7          	lui	a1,0x55555
     d60:	55658593          	addi	a1,a1,1366 # 55555556 <_end+0x55551a26>
     d64:	00b52633          	slt	a2,a0,a1
     d68:	20c0a023          	sw	a2,512(ra)

00000d6c <inst_158>:
     d6c:	aaaab537          	lui	a0,0xaaaab
     d70:	aaa50513          	addi	a0,a0,-1366 # aaaaaaaa <_end+0xaaaa6f7a>
     d74:	aaaab5b7          	lui	a1,0xaaaab
     d78:	aab58593          	addi	a1,a1,-1365 # aaaaaaab <_end+0xaaaa6f7b>
     d7c:	00b52633          	slt	a2,a0,a1
     d80:	20c0a223          	sw	a2,516(ra)

00000d84 <inst_159>:
     d84:	aaaab537          	lui	a0,0xaaaab
     d88:	aaa50513          	addi	a0,a0,-1366 # aaaaaaaa <_end+0xaaaa6f7a>
     d8c:	00600593          	li	a1,6
     d90:	00b52633          	slt	a2,a0,a1
     d94:	20c0a423          	sw	a2,520(ra)

00000d98 <inst_160>:
     d98:	aaaab537          	lui	a0,0xaaaab
     d9c:	aaa50513          	addi	a0,a0,-1366 # aaaaaaaa <_end+0xaaaa6f7a>
     da0:	333335b7          	lui	a1,0x33333
     da4:	33458593          	addi	a1,a1,820 # 33333334 <_end+0x3332f804>
     da8:	00b52633          	slt	a2,a0,a1
     dac:	20c0a623          	sw	a2,524(ra)

00000db0 <inst_161>:
     db0:	aaaab537          	lui	a0,0xaaaab
     db4:	aaa50513          	addi	a0,a0,-1366 # aaaaaaaa <_end+0xaaaa6f7a>
     db8:	666665b7          	lui	a1,0x66666
     dbc:	66758593          	addi	a1,a1,1639 # 66666667 <_end+0x66662b37>
     dc0:	00b52633          	slt	a2,a0,a1
     dc4:	20c0a823          	sw	a2,528(ra)

00000dc8 <inst_162>:
     dc8:	aaaab537          	lui	a0,0xaaaab
     dcc:	aaa50513          	addi	a0,a0,-1366 # aaaaaaaa <_end+0xaaaa6f7a>
     dd0:	ffff55b7          	lui	a1,0xffff5
     dd4:	afd58593          	addi	a1,a1,-1283 # ffff4afd <_end+0xffff0fcd>
     dd8:	00b52633          	slt	a2,a0,a1
     ddc:	20c0aa23          	sw	a2,532(ra)

00000de0 <inst_163>:
     de0:	aaaab537          	lui	a0,0xaaaab
     de4:	aaa50513          	addi	a0,a0,-1366 # aaaaaaaa <_end+0xaaaa6f7a>
     de8:	0000b5b7          	lui	a1,0xb
     dec:	50558593          	addi	a1,a1,1285 # b505 <_end+0x79d5>
     df0:	00b52633          	slt	a2,a0,a1
     df4:	20c0ac23          	sw	a2,536(ra)

00000df8 <inst_164>:
     df8:	00500513          	li	a0,5
     dfc:	00300593          	li	a1,3
     e00:	00b52633          	slt	a2,a0,a1
     e04:	20c0ae23          	sw	a2,540(ra)

00000e08 <inst_165>:
     e08:	00500513          	li	a0,5
     e0c:	555555b7          	lui	a1,0x55555
     e10:	55558593          	addi	a1,a1,1365 # 55555555 <_end+0x55551a25>
     e14:	00b52633          	slt	a2,a0,a1
     e18:	22c0a023          	sw	a2,544(ra)

00000e1c <inst_166>:
     e1c:	00500513          	li	a0,5
     e20:	aaaab5b7          	lui	a1,0xaaaab
     e24:	aaa58593          	addi	a1,a1,-1366 # aaaaaaaa <_end+0xaaaa6f7a>
     e28:	00b52633          	slt	a2,a0,a1
     e2c:	22c0a223          	sw	a2,548(ra)

00000e30 <inst_167>:
     e30:	00500513          	li	a0,5
     e34:	00500593          	li	a1,5
     e38:	00b52633          	slt	a2,a0,a1
     e3c:	22c0a423          	sw	a2,552(ra)

00000e40 <inst_168>:
     e40:	00500513          	li	a0,5
     e44:	333335b7          	lui	a1,0x33333
     e48:	33358593          	addi	a1,a1,819 # 33333333 <_end+0x3332f803>
     e4c:	00b52633          	slt	a2,a0,a1
     e50:	22c0a623          	sw	a2,556(ra)

00000e54 <inst_169>:
     e54:	00500513          	li	a0,5
     e58:	666665b7          	lui	a1,0x66666
     e5c:	66658593          	addi	a1,a1,1638 # 66666666 <_end+0x66662b36>
     e60:	00b52633          	slt	a2,a0,a1
     e64:	22c0a823          	sw	a2,560(ra)

00000e68 <inst_170>:
     e68:	00500513          	li	a0,5
     e6c:	ffff55b7          	lui	a1,0xffff5
     e70:	afc58593          	addi	a1,a1,-1284 # ffff4afc <_end+0xffff0fcc>
     e74:	00b52633          	slt	a2,a0,a1
     e78:	22c0aa23          	sw	a2,564(ra)

00000e7c <inst_171>:
     e7c:	00500513          	li	a0,5
     e80:	0000b5b7          	lui	a1,0xb
     e84:	50458593          	addi	a1,a1,1284 # b504 <_end+0x79d4>
     e88:	00b52633          	slt	a2,a0,a1
     e8c:	22c0ac23          	sw	a2,568(ra)

00000e90 <inst_172>:
     e90:	00500513          	li	a0,5
     e94:	00200593          	li	a1,2
     e98:	00b52633          	slt	a2,a0,a1
     e9c:	22c0ae23          	sw	a2,572(ra)

00000ea0 <inst_173>:
     ea0:	00500513          	li	a0,5
     ea4:	555555b7          	lui	a1,0x55555
     ea8:	55458593          	addi	a1,a1,1364 # 55555554 <_end+0x55551a24>
     eac:	00b52633          	slt	a2,a0,a1
     eb0:	24c0a023          	sw	a2,576(ra)

00000eb4 <inst_174>:
     eb4:	00500513          	li	a0,5
     eb8:	00000593          	li	a1,0
     ebc:	00b52633          	slt	a2,a0,a1
     ec0:	24c0a223          	sw	a2,580(ra)

00000ec4 <inst_175>:
     ec4:	00500513          	li	a0,5
     ec8:	00400593          	li	a1,4
     ecc:	00b52633          	slt	a2,a0,a1
     ed0:	24c0a423          	sw	a2,584(ra)

00000ed4 <inst_176>:
     ed4:	00500513          	li	a0,5
     ed8:	333335b7          	lui	a1,0x33333
     edc:	33258593          	addi	a1,a1,818 # 33333332 <_end+0x3332f802>
     ee0:	00b52633          	slt	a2,a0,a1
     ee4:	24c0a623          	sw	a2,588(ra)

00000ee8 <inst_177>:
     ee8:	00500513          	li	a0,5
     eec:	666665b7          	lui	a1,0x66666
     ef0:	66558593          	addi	a1,a1,1637 # 66666665 <_end+0x66662b35>
     ef4:	00b52633          	slt	a2,a0,a1
     ef8:	24c0a823          	sw	a2,592(ra)

00000efc <inst_178>:
     efc:	00500513          	li	a0,5
     f00:	0000b5b7          	lui	a1,0xb
     f04:	50358593          	addi	a1,a1,1283 # b503 <_end+0x79d3>
     f08:	00b52633          	slt	a2,a0,a1
     f0c:	24c0aa23          	sw	a2,596(ra)

00000f10 <inst_179>:
     f10:	00500513          	li	a0,5
     f14:	555555b7          	lui	a1,0x55555
     f18:	55658593          	addi	a1,a1,1366 # 55555556 <_end+0x55551a26>
     f1c:	00b52633          	slt	a2,a0,a1
     f20:	24c0ac23          	sw	a2,600(ra)

00000f24 <inst_180>:
     f24:	00500513          	li	a0,5
     f28:	aaaab5b7          	lui	a1,0xaaaab
     f2c:	aab58593          	addi	a1,a1,-1365 # aaaaaaab <_end+0xaaaa6f7b>
     f30:	00b52633          	slt	a2,a0,a1
     f34:	24c0ae23          	sw	a2,604(ra)

00000f38 <inst_181>:
     f38:	00500513          	li	a0,5
     f3c:	00600593          	li	a1,6
     f40:	00b52633          	slt	a2,a0,a1
     f44:	26c0a023          	sw	a2,608(ra)

00000f48 <inst_182>:
     f48:	00500513          	li	a0,5
     f4c:	333335b7          	lui	a1,0x33333
     f50:	33458593          	addi	a1,a1,820 # 33333334 <_end+0x3332f804>
     f54:	00b52633          	slt	a2,a0,a1
     f58:	26c0a223          	sw	a2,612(ra)

00000f5c <inst_183>:
     f5c:	00500513          	li	a0,5
     f60:	666665b7          	lui	a1,0x66666
     f64:	66758593          	addi	a1,a1,1639 # 66666667 <_end+0x66662b37>
     f68:	00b52633          	slt	a2,a0,a1
     f6c:	26c0a423          	sw	a2,616(ra)

00000f70 <inst_184>:
     f70:	00500513          	li	a0,5
     f74:	ffff55b7          	lui	a1,0xffff5
     f78:	afd58593          	addi	a1,a1,-1283 # ffff4afd <_end+0xffff0fcd>
     f7c:	00b52633          	slt	a2,a0,a1
     f80:	26c0a623          	sw	a2,620(ra)

00000f84 <inst_185>:
     f84:	00500513          	li	a0,5
     f88:	0000b5b7          	lui	a1,0xb
     f8c:	50558593          	addi	a1,a1,1285 # b505 <_end+0x79d5>
     f90:	00b52633          	slt	a2,a0,a1
     f94:	26c0a823          	sw	a2,624(ra)

00000f98 <inst_186>:
     f98:	33333537          	lui	a0,0x33333
     f9c:	33350513          	addi	a0,a0,819 # 33333333 <_end+0x3332f803>
     fa0:	00300593          	li	a1,3
     fa4:	00b52633          	slt	a2,a0,a1
     fa8:	26c0aa23          	sw	a2,628(ra)

00000fac <inst_187>:
     fac:	33333537          	lui	a0,0x33333
     fb0:	33350513          	addi	a0,a0,819 # 33333333 <_end+0x3332f803>
     fb4:	555555b7          	lui	a1,0x55555
     fb8:	55558593          	addi	a1,a1,1365 # 55555555 <_end+0x55551a25>
     fbc:	00b52633          	slt	a2,a0,a1
     fc0:	26c0ac23          	sw	a2,632(ra)

00000fc4 <inst_188>:
     fc4:	33333537          	lui	a0,0x33333
     fc8:	33350513          	addi	a0,a0,819 # 33333333 <_end+0x3332f803>
     fcc:	aaaab5b7          	lui	a1,0xaaaab
     fd0:	aaa58593          	addi	a1,a1,-1366 # aaaaaaaa <_end+0xaaaa6f7a>
     fd4:	00b52633          	slt	a2,a0,a1
     fd8:	26c0ae23          	sw	a2,636(ra)

00000fdc <inst_189>:
     fdc:	33333537          	lui	a0,0x33333
     fe0:	33350513          	addi	a0,a0,819 # 33333333 <_end+0x3332f803>
     fe4:	00500593          	li	a1,5
     fe8:	00b52633          	slt	a2,a0,a1
     fec:	28c0a023          	sw	a2,640(ra)

00000ff0 <inst_190>:
     ff0:	33333537          	lui	a0,0x33333
     ff4:	33350513          	addi	a0,a0,819 # 33333333 <_end+0x3332f803>
     ff8:	333335b7          	lui	a1,0x33333
     ffc:	33358593          	addi	a1,a1,819 # 33333333 <_end+0x3332f803>
    1000:	00b52633          	slt	a2,a0,a1
    1004:	28c0a223          	sw	a2,644(ra)

00001008 <inst_191>:
    1008:	33333537          	lui	a0,0x33333
    100c:	33350513          	addi	a0,a0,819 # 33333333 <_end+0x3332f803>
    1010:	666665b7          	lui	a1,0x66666
    1014:	66658593          	addi	a1,a1,1638 # 66666666 <_end+0x66662b36>
    1018:	00b52633          	slt	a2,a0,a1
    101c:	28c0a423          	sw	a2,648(ra)

00001020 <inst_192>:
    1020:	33333537          	lui	a0,0x33333
    1024:	33350513          	addi	a0,a0,819 # 33333333 <_end+0x3332f803>
    1028:	ffff55b7          	lui	a1,0xffff5
    102c:	afc58593          	addi	a1,a1,-1284 # ffff4afc <_end+0xffff0fcc>
    1030:	00b52633          	slt	a2,a0,a1
    1034:	28c0a623          	sw	a2,652(ra)

00001038 <inst_193>:
    1038:	33333537          	lui	a0,0x33333
    103c:	33350513          	addi	a0,a0,819 # 33333333 <_end+0x3332f803>
    1040:	0000b5b7          	lui	a1,0xb
    1044:	50458593          	addi	a1,a1,1284 # b504 <_end+0x79d4>
    1048:	00b52633          	slt	a2,a0,a1
    104c:	28c0a823          	sw	a2,656(ra)

00001050 <inst_194>:
    1050:	33333537          	lui	a0,0x33333
    1054:	33350513          	addi	a0,a0,819 # 33333333 <_end+0x3332f803>
    1058:	00200593          	li	a1,2
    105c:	00b52633          	slt	a2,a0,a1
    1060:	28c0aa23          	sw	a2,660(ra)

00001064 <inst_195>:
    1064:	33333537          	lui	a0,0x33333
    1068:	33350513          	addi	a0,a0,819 # 33333333 <_end+0x3332f803>
    106c:	555555b7          	lui	a1,0x55555
    1070:	55458593          	addi	a1,a1,1364 # 55555554 <_end+0x55551a24>
    1074:	00b52633          	slt	a2,a0,a1
    1078:	28c0ac23          	sw	a2,664(ra)

0000107c <inst_196>:
    107c:	33333537          	lui	a0,0x33333
    1080:	33350513          	addi	a0,a0,819 # 33333333 <_end+0x3332f803>
    1084:	00000593          	li	a1,0
    1088:	00b52633          	slt	a2,a0,a1
    108c:	28c0ae23          	sw	a2,668(ra)

00001090 <inst_197>:
    1090:	33333537          	lui	a0,0x33333
    1094:	33350513          	addi	a0,a0,819 # 33333333 <_end+0x3332f803>
    1098:	00400593          	li	a1,4
    109c:	00b52633          	slt	a2,a0,a1
    10a0:	2ac0a023          	sw	a2,672(ra)

000010a4 <inst_198>:
    10a4:	33333537          	lui	a0,0x33333
    10a8:	33350513          	addi	a0,a0,819 # 33333333 <_end+0x3332f803>
    10ac:	333335b7          	lui	a1,0x33333
    10b0:	33258593          	addi	a1,a1,818 # 33333332 <_end+0x3332f802>
    10b4:	00b52633          	slt	a2,a0,a1
    10b8:	2ac0a223          	sw	a2,676(ra)

000010bc <inst_199>:
    10bc:	33333537          	lui	a0,0x33333
    10c0:	33350513          	addi	a0,a0,819 # 33333333 <_end+0x3332f803>
    10c4:	666665b7          	lui	a1,0x66666
    10c8:	66558593          	addi	a1,a1,1637 # 66666665 <_end+0x66662b35>
    10cc:	00b52633          	slt	a2,a0,a1
    10d0:	2ac0a423          	sw	a2,680(ra)

000010d4 <inst_200>:
    10d4:	33333537          	lui	a0,0x33333
    10d8:	33350513          	addi	a0,a0,819 # 33333333 <_end+0x3332f803>
    10dc:	0000b5b7          	lui	a1,0xb
    10e0:	50358593          	addi	a1,a1,1283 # b503 <_end+0x79d3>
    10e4:	00b52633          	slt	a2,a0,a1
    10e8:	2ac0a623          	sw	a2,684(ra)

000010ec <inst_201>:
    10ec:	33333537          	lui	a0,0x33333
    10f0:	33350513          	addi	a0,a0,819 # 33333333 <_end+0x3332f803>
    10f4:	555555b7          	lui	a1,0x55555
    10f8:	55658593          	addi	a1,a1,1366 # 55555556 <_end+0x55551a26>
    10fc:	00b52633          	slt	a2,a0,a1
    1100:	2ac0a823          	sw	a2,688(ra)

00001104 <inst_202>:
    1104:	33333537          	lui	a0,0x33333
    1108:	33350513          	addi	a0,a0,819 # 33333333 <_end+0x3332f803>
    110c:	aaaab5b7          	lui	a1,0xaaaab
    1110:	aab58593          	addi	a1,a1,-1365 # aaaaaaab <_end+0xaaaa6f7b>
    1114:	00b52633          	slt	a2,a0,a1
    1118:	2ac0aa23          	sw	a2,692(ra)

0000111c <inst_203>:
    111c:	33333537          	lui	a0,0x33333
    1120:	33350513          	addi	a0,a0,819 # 33333333 <_end+0x3332f803>
    1124:	00600593          	li	a1,6
    1128:	00b52633          	slt	a2,a0,a1
    112c:	2ac0ac23          	sw	a2,696(ra)

00001130 <inst_204>:
    1130:	33333537          	lui	a0,0x33333
    1134:	33350513          	addi	a0,a0,819 # 33333333 <_end+0x3332f803>
    1138:	333335b7          	lui	a1,0x33333
    113c:	33458593          	addi	a1,a1,820 # 33333334 <_end+0x3332f804>
    1140:	00b52633          	slt	a2,a0,a1
    1144:	2ac0ae23          	sw	a2,700(ra)

00001148 <inst_205>:
    1148:	33333537          	lui	a0,0x33333
    114c:	33350513          	addi	a0,a0,819 # 33333333 <_end+0x3332f803>
    1150:	666665b7          	lui	a1,0x66666
    1154:	66758593          	addi	a1,a1,1639 # 66666667 <_end+0x66662b37>
    1158:	00b52633          	slt	a2,a0,a1
    115c:	2cc0a023          	sw	a2,704(ra)

00001160 <inst_206>:
    1160:	33333537          	lui	a0,0x33333
    1164:	33350513          	addi	a0,a0,819 # 33333333 <_end+0x3332f803>
    1168:	ffff55b7          	lui	a1,0xffff5
    116c:	afd58593          	addi	a1,a1,-1283 # ffff4afd <_end+0xffff0fcd>
    1170:	00b52633          	slt	a2,a0,a1
    1174:	2cc0a223          	sw	a2,708(ra)

00001178 <inst_207>:
    1178:	33333537          	lui	a0,0x33333
    117c:	33350513          	addi	a0,a0,819 # 33333333 <_end+0x3332f803>
    1180:	0000b5b7          	lui	a1,0xb
    1184:	50558593          	addi	a1,a1,1285 # b505 <_end+0x79d5>
    1188:	00b52633          	slt	a2,a0,a1
    118c:	2cc0a423          	sw	a2,712(ra)

00001190 <inst_208>:
    1190:	66666537          	lui	a0,0x66666
    1194:	66650513          	addi	a0,a0,1638 # 66666666 <_end+0x66662b36>
    1198:	00300593          	li	a1,3
    119c:	00b52633          	slt	a2,a0,a1
    11a0:	2cc0a623          	sw	a2,716(ra)

000011a4 <inst_209>:
    11a4:	66666537          	lui	a0,0x66666
    11a8:	66650513          	addi	a0,a0,1638 # 66666666 <_end+0x66662b36>
    11ac:	555555b7          	lui	a1,0x55555
    11b0:	55558593          	addi	a1,a1,1365 # 55555555 <_end+0x55551a25>
    11b4:	00b52633          	slt	a2,a0,a1
    11b8:	2cc0a823          	sw	a2,720(ra)

000011bc <inst_210>:
    11bc:	66666537          	lui	a0,0x66666
    11c0:	66650513          	addi	a0,a0,1638 # 66666666 <_end+0x66662b36>
    11c4:	aaaab5b7          	lui	a1,0xaaaab
    11c8:	aaa58593          	addi	a1,a1,-1366 # aaaaaaaa <_end+0xaaaa6f7a>
    11cc:	00b52633          	slt	a2,a0,a1
    11d0:	2cc0aa23          	sw	a2,724(ra)

000011d4 <inst_211>:
    11d4:	66666537          	lui	a0,0x66666
    11d8:	66650513          	addi	a0,a0,1638 # 66666666 <_end+0x66662b36>
    11dc:	00500593          	li	a1,5
    11e0:	00b52633          	slt	a2,a0,a1
    11e4:	2cc0ac23          	sw	a2,728(ra)

000011e8 <inst_212>:
    11e8:	66666537          	lui	a0,0x66666
    11ec:	66650513          	addi	a0,a0,1638 # 66666666 <_end+0x66662b36>
    11f0:	333335b7          	lui	a1,0x33333
    11f4:	33358593          	addi	a1,a1,819 # 33333333 <_end+0x3332f803>
    11f8:	00b52633          	slt	a2,a0,a1
    11fc:	2cc0ae23          	sw	a2,732(ra)

00001200 <inst_213>:
    1200:	66666537          	lui	a0,0x66666
    1204:	66650513          	addi	a0,a0,1638 # 66666666 <_end+0x66662b36>
    1208:	666665b7          	lui	a1,0x66666
    120c:	66658593          	addi	a1,a1,1638 # 66666666 <_end+0x66662b36>
    1210:	00b52633          	slt	a2,a0,a1
    1214:	2ec0a023          	sw	a2,736(ra)

00001218 <inst_214>:
    1218:	66666537          	lui	a0,0x66666
    121c:	66650513          	addi	a0,a0,1638 # 66666666 <_end+0x66662b36>
    1220:	ffff55b7          	lui	a1,0xffff5
    1224:	afc58593          	addi	a1,a1,-1284 # ffff4afc <_end+0xffff0fcc>
    1228:	00b52633          	slt	a2,a0,a1
    122c:	2ec0a223          	sw	a2,740(ra)

00001230 <inst_215>:
    1230:	66666537          	lui	a0,0x66666
    1234:	66650513          	addi	a0,a0,1638 # 66666666 <_end+0x66662b36>
    1238:	0000b5b7          	lui	a1,0xb
    123c:	50458593          	addi	a1,a1,1284 # b504 <_end+0x79d4>
    1240:	00b52633          	slt	a2,a0,a1
    1244:	2ec0a423          	sw	a2,744(ra)

00001248 <inst_216>:
    1248:	66666537          	lui	a0,0x66666
    124c:	66650513          	addi	a0,a0,1638 # 66666666 <_end+0x66662b36>
    1250:	00200593          	li	a1,2
    1254:	00b52633          	slt	a2,a0,a1
    1258:	2ec0a623          	sw	a2,748(ra)

0000125c <inst_217>:
    125c:	66666537          	lui	a0,0x66666
    1260:	66650513          	addi	a0,a0,1638 # 66666666 <_end+0x66662b36>
    1264:	555555b7          	lui	a1,0x55555
    1268:	55458593          	addi	a1,a1,1364 # 55555554 <_end+0x55551a24>
    126c:	00b52633          	slt	a2,a0,a1
    1270:	2ec0a823          	sw	a2,752(ra)

00001274 <inst_218>:
    1274:	66666537          	lui	a0,0x66666
    1278:	66650513          	addi	a0,a0,1638 # 66666666 <_end+0x66662b36>
    127c:	00000593          	li	a1,0
    1280:	00b52633          	slt	a2,a0,a1
    1284:	2ec0aa23          	sw	a2,756(ra)

00001288 <inst_219>:
    1288:	66666537          	lui	a0,0x66666
    128c:	66650513          	addi	a0,a0,1638 # 66666666 <_end+0x66662b36>
    1290:	00400593          	li	a1,4
    1294:	00b52633          	slt	a2,a0,a1
    1298:	2ec0ac23          	sw	a2,760(ra)

0000129c <inst_220>:
    129c:	66666537          	lui	a0,0x66666
    12a0:	66650513          	addi	a0,a0,1638 # 66666666 <_end+0x66662b36>
    12a4:	333335b7          	lui	a1,0x33333
    12a8:	33258593          	addi	a1,a1,818 # 33333332 <_end+0x3332f802>
    12ac:	00b52633          	slt	a2,a0,a1
    12b0:	2ec0ae23          	sw	a2,764(ra)

000012b4 <inst_221>:
    12b4:	66666537          	lui	a0,0x66666
    12b8:	66650513          	addi	a0,a0,1638 # 66666666 <_end+0x66662b36>
    12bc:	666665b7          	lui	a1,0x66666
    12c0:	66558593          	addi	a1,a1,1637 # 66666665 <_end+0x66662b35>
    12c4:	00b52633          	slt	a2,a0,a1
    12c8:	30c0a023          	sw	a2,768(ra)

000012cc <inst_222>:
    12cc:	66666537          	lui	a0,0x66666
    12d0:	66650513          	addi	a0,a0,1638 # 66666666 <_end+0x66662b36>
    12d4:	0000b5b7          	lui	a1,0xb
    12d8:	50358593          	addi	a1,a1,1283 # b503 <_end+0x79d3>
    12dc:	00b52633          	slt	a2,a0,a1
    12e0:	30c0a223          	sw	a2,772(ra)

000012e4 <inst_223>:
    12e4:	66666537          	lui	a0,0x66666
    12e8:	66650513          	addi	a0,a0,1638 # 66666666 <_end+0x66662b36>
    12ec:	555555b7          	lui	a1,0x55555
    12f0:	55658593          	addi	a1,a1,1366 # 55555556 <_end+0x55551a26>
    12f4:	00b52633          	slt	a2,a0,a1
    12f8:	30c0a423          	sw	a2,776(ra)

000012fc <inst_224>:
    12fc:	66666537          	lui	a0,0x66666
    1300:	66650513          	addi	a0,a0,1638 # 66666666 <_end+0x66662b36>
    1304:	aaaab5b7          	lui	a1,0xaaaab
    1308:	aab58593          	addi	a1,a1,-1365 # aaaaaaab <_end+0xaaaa6f7b>
    130c:	00b52633          	slt	a2,a0,a1
    1310:	30c0a623          	sw	a2,780(ra)

00001314 <inst_225>:
    1314:	66666537          	lui	a0,0x66666
    1318:	66650513          	addi	a0,a0,1638 # 66666666 <_end+0x66662b36>
    131c:	00600593          	li	a1,6
    1320:	00b52633          	slt	a2,a0,a1
    1324:	30c0a823          	sw	a2,784(ra)

00001328 <inst_226>:
    1328:	66666537          	lui	a0,0x66666
    132c:	66650513          	addi	a0,a0,1638 # 66666666 <_end+0x66662b36>
    1330:	333335b7          	lui	a1,0x33333
    1334:	33458593          	addi	a1,a1,820 # 33333334 <_end+0x3332f804>
    1338:	00b52633          	slt	a2,a0,a1
    133c:	30c0aa23          	sw	a2,788(ra)

00001340 <inst_227>:
    1340:	66666537          	lui	a0,0x66666
    1344:	66650513          	addi	a0,a0,1638 # 66666666 <_end+0x66662b36>
    1348:	666665b7          	lui	a1,0x66666
    134c:	66758593          	addi	a1,a1,1639 # 66666667 <_end+0x66662b37>
    1350:	00b52633          	slt	a2,a0,a1
    1354:	30c0ac23          	sw	a2,792(ra)

00001358 <inst_228>:
    1358:	66666537          	lui	a0,0x66666
    135c:	66650513          	addi	a0,a0,1638 # 66666666 <_end+0x66662b36>
    1360:	ffff55b7          	lui	a1,0xffff5
    1364:	afd58593          	addi	a1,a1,-1283 # ffff4afd <_end+0xffff0fcd>
    1368:	00b52633          	slt	a2,a0,a1
    136c:	30c0ae23          	sw	a2,796(ra)

00001370 <inst_229>:
    1370:	66666537          	lui	a0,0x66666
    1374:	66650513          	addi	a0,a0,1638 # 66666666 <_end+0x66662b36>
    1378:	0000b5b7          	lui	a1,0xb
    137c:	50558593          	addi	a1,a1,1285 # b505 <_end+0x79d5>
    1380:	00b52633          	slt	a2,a0,a1
    1384:	32c0a023          	sw	a2,800(ra)

00001388 <inst_230>:
    1388:	ffff5537          	lui	a0,0xffff5
    138c:	afc50513          	addi	a0,a0,-1284 # ffff4afc <_end+0xffff0fcc>
    1390:	00300593          	li	a1,3
    1394:	00b52633          	slt	a2,a0,a1
    1398:	32c0a223          	sw	a2,804(ra)

0000139c <inst_231>:
    139c:	ffff5537          	lui	a0,0xffff5
    13a0:	afc50513          	addi	a0,a0,-1284 # ffff4afc <_end+0xffff0fcc>
    13a4:	555555b7          	lui	a1,0x55555
    13a8:	55558593          	addi	a1,a1,1365 # 55555555 <_end+0x55551a25>
    13ac:	00b52633          	slt	a2,a0,a1
    13b0:	32c0a423          	sw	a2,808(ra)

000013b4 <inst_232>:
    13b4:	ffff5537          	lui	a0,0xffff5
    13b8:	afc50513          	addi	a0,a0,-1284 # ffff4afc <_end+0xffff0fcc>
    13bc:	aaaab5b7          	lui	a1,0xaaaab
    13c0:	aaa58593          	addi	a1,a1,-1366 # aaaaaaaa <_end+0xaaaa6f7a>
    13c4:	00b52633          	slt	a2,a0,a1
    13c8:	32c0a623          	sw	a2,812(ra)

000013cc <inst_233>:
    13cc:	ffff5537          	lui	a0,0xffff5
    13d0:	afc50513          	addi	a0,a0,-1284 # ffff4afc <_end+0xffff0fcc>
    13d4:	00500593          	li	a1,5
    13d8:	00b52633          	slt	a2,a0,a1
    13dc:	32c0a823          	sw	a2,816(ra)

000013e0 <inst_234>:
    13e0:	ffff5537          	lui	a0,0xffff5
    13e4:	afc50513          	addi	a0,a0,-1284 # ffff4afc <_end+0xffff0fcc>
    13e8:	333335b7          	lui	a1,0x33333
    13ec:	33358593          	addi	a1,a1,819 # 33333333 <_end+0x3332f803>
    13f0:	00b52633          	slt	a2,a0,a1
    13f4:	32c0aa23          	sw	a2,820(ra)

000013f8 <inst_235>:
    13f8:	ffff5537          	lui	a0,0xffff5
    13fc:	afc50513          	addi	a0,a0,-1284 # ffff4afc <_end+0xffff0fcc>
    1400:	666665b7          	lui	a1,0x66666
    1404:	66658593          	addi	a1,a1,1638 # 66666666 <_end+0x66662b36>
    1408:	00b52633          	slt	a2,a0,a1
    140c:	32c0ac23          	sw	a2,824(ra)

00001410 <inst_236>:
    1410:	ffff5537          	lui	a0,0xffff5
    1414:	afc50513          	addi	a0,a0,-1284 # ffff4afc <_end+0xffff0fcc>
    1418:	ffff55b7          	lui	a1,0xffff5
    141c:	afc58593          	addi	a1,a1,-1284 # ffff4afc <_end+0xffff0fcc>
    1420:	00b52633          	slt	a2,a0,a1
    1424:	32c0ae23          	sw	a2,828(ra)

00001428 <inst_237>:
    1428:	ffff5537          	lui	a0,0xffff5
    142c:	afc50513          	addi	a0,a0,-1284 # ffff4afc <_end+0xffff0fcc>
    1430:	0000b5b7          	lui	a1,0xb
    1434:	50458593          	addi	a1,a1,1284 # b504 <_end+0x79d4>
    1438:	00b52633          	slt	a2,a0,a1
    143c:	34c0a023          	sw	a2,832(ra)

00001440 <inst_238>:
    1440:	ffff5537          	lui	a0,0xffff5
    1444:	afc50513          	addi	a0,a0,-1284 # ffff4afc <_end+0xffff0fcc>
    1448:	00200593          	li	a1,2
    144c:	00b52633          	slt	a2,a0,a1
    1450:	34c0a223          	sw	a2,836(ra)

00001454 <inst_239>:
    1454:	ffff5537          	lui	a0,0xffff5
    1458:	afc50513          	addi	a0,a0,-1284 # ffff4afc <_end+0xffff0fcc>
    145c:	555555b7          	lui	a1,0x55555
    1460:	55458593          	addi	a1,a1,1364 # 55555554 <_end+0x55551a24>
    1464:	00b52633          	slt	a2,a0,a1
    1468:	34c0a423          	sw	a2,840(ra)

0000146c <inst_240>:
    146c:	ffff5537          	lui	a0,0xffff5
    1470:	afc50513          	addi	a0,a0,-1284 # ffff4afc <_end+0xffff0fcc>
    1474:	00000593          	li	a1,0
    1478:	00b52633          	slt	a2,a0,a1
    147c:	34c0a623          	sw	a2,844(ra)

00001480 <inst_241>:
    1480:	ffff5537          	lui	a0,0xffff5
    1484:	afc50513          	addi	a0,a0,-1284 # ffff4afc <_end+0xffff0fcc>
    1488:	00400593          	li	a1,4
    148c:	00b52633          	slt	a2,a0,a1
    1490:	34c0a823          	sw	a2,848(ra)

00001494 <inst_242>:
    1494:	ffff5537          	lui	a0,0xffff5
    1498:	afc50513          	addi	a0,a0,-1284 # ffff4afc <_end+0xffff0fcc>
    149c:	333335b7          	lui	a1,0x33333
    14a0:	33258593          	addi	a1,a1,818 # 33333332 <_end+0x3332f802>
    14a4:	00b52633          	slt	a2,a0,a1
    14a8:	34c0aa23          	sw	a2,852(ra)

000014ac <inst_243>:
    14ac:	ffff5537          	lui	a0,0xffff5
    14b0:	afc50513          	addi	a0,a0,-1284 # ffff4afc <_end+0xffff0fcc>
    14b4:	666665b7          	lui	a1,0x66666
    14b8:	66558593          	addi	a1,a1,1637 # 66666665 <_end+0x66662b35>
    14bc:	00b52633          	slt	a2,a0,a1
    14c0:	34c0ac23          	sw	a2,856(ra)

000014c4 <inst_244>:
    14c4:	ffff5537          	lui	a0,0xffff5
    14c8:	afc50513          	addi	a0,a0,-1284 # ffff4afc <_end+0xffff0fcc>
    14cc:	0000b5b7          	lui	a1,0xb
    14d0:	50358593          	addi	a1,a1,1283 # b503 <_end+0x79d3>
    14d4:	00b52633          	slt	a2,a0,a1
    14d8:	34c0ae23          	sw	a2,860(ra)

000014dc <inst_245>:
    14dc:	ffff5537          	lui	a0,0xffff5
    14e0:	afc50513          	addi	a0,a0,-1284 # ffff4afc <_end+0xffff0fcc>
    14e4:	555555b7          	lui	a1,0x55555
    14e8:	55658593          	addi	a1,a1,1366 # 55555556 <_end+0x55551a26>
    14ec:	00b52633          	slt	a2,a0,a1
    14f0:	36c0a023          	sw	a2,864(ra)

000014f4 <inst_246>:
    14f4:	ffff5537          	lui	a0,0xffff5
    14f8:	afc50513          	addi	a0,a0,-1284 # ffff4afc <_end+0xffff0fcc>
    14fc:	aaaab5b7          	lui	a1,0xaaaab
    1500:	aab58593          	addi	a1,a1,-1365 # aaaaaaab <_end+0xaaaa6f7b>
    1504:	00b52633          	slt	a2,a0,a1
    1508:	36c0a223          	sw	a2,868(ra)

0000150c <inst_247>:
    150c:	ffff5537          	lui	a0,0xffff5
    1510:	afc50513          	addi	a0,a0,-1284 # ffff4afc <_end+0xffff0fcc>
    1514:	00600593          	li	a1,6
    1518:	00b52633          	slt	a2,a0,a1
    151c:	36c0a423          	sw	a2,872(ra)

00001520 <inst_248>:
    1520:	ffff5537          	lui	a0,0xffff5
    1524:	afc50513          	addi	a0,a0,-1284 # ffff4afc <_end+0xffff0fcc>
    1528:	333335b7          	lui	a1,0x33333
    152c:	33458593          	addi	a1,a1,820 # 33333334 <_end+0x3332f804>
    1530:	00b52633          	slt	a2,a0,a1
    1534:	36c0a623          	sw	a2,876(ra)

00001538 <inst_249>:
    1538:	ffff5537          	lui	a0,0xffff5
    153c:	afc50513          	addi	a0,a0,-1284 # ffff4afc <_end+0xffff0fcc>
    1540:	666665b7          	lui	a1,0x66666
    1544:	66758593          	addi	a1,a1,1639 # 66666667 <_end+0x66662b37>
    1548:	00b52633          	slt	a2,a0,a1
    154c:	36c0a823          	sw	a2,880(ra)

00001550 <inst_250>:
    1550:	ffff5537          	lui	a0,0xffff5
    1554:	afc50513          	addi	a0,a0,-1284 # ffff4afc <_end+0xffff0fcc>
    1558:	ffff55b7          	lui	a1,0xffff5
    155c:	afd58593          	addi	a1,a1,-1283 # ffff4afd <_end+0xffff0fcd>
    1560:	00b52633          	slt	a2,a0,a1
    1564:	36c0aa23          	sw	a2,884(ra)

00001568 <inst_251>:
    1568:	ffff5537          	lui	a0,0xffff5
    156c:	afc50513          	addi	a0,a0,-1284 # ffff4afc <_end+0xffff0fcc>
    1570:	0000b5b7          	lui	a1,0xb
    1574:	50558593          	addi	a1,a1,1285 # b505 <_end+0x79d5>
    1578:	00b52633          	slt	a2,a0,a1
    157c:	36c0ac23          	sw	a2,888(ra)

00001580 <inst_252>:
    1580:	0000b537          	lui	a0,0xb
    1584:	50450513          	addi	a0,a0,1284 # b504 <_end+0x79d4>
    1588:	00300593          	li	a1,3
    158c:	00b52633          	slt	a2,a0,a1
    1590:	36c0ae23          	sw	a2,892(ra)

00001594 <inst_253>:
    1594:	0000b537          	lui	a0,0xb
    1598:	50450513          	addi	a0,a0,1284 # b504 <_end+0x79d4>
    159c:	555555b7          	lui	a1,0x55555
    15a0:	55558593          	addi	a1,a1,1365 # 55555555 <_end+0x55551a25>
    15a4:	00b52633          	slt	a2,a0,a1
    15a8:	38c0a023          	sw	a2,896(ra)

000015ac <inst_254>:
    15ac:	0000b537          	lui	a0,0xb
    15b0:	50450513          	addi	a0,a0,1284 # b504 <_end+0x79d4>
    15b4:	aaaab5b7          	lui	a1,0xaaaab
    15b8:	aaa58593          	addi	a1,a1,-1366 # aaaaaaaa <_end+0xaaaa6f7a>
    15bc:	00b52633          	slt	a2,a0,a1
    15c0:	38c0a223          	sw	a2,900(ra)

000015c4 <inst_255>:
    15c4:	0000b537          	lui	a0,0xb
    15c8:	50450513          	addi	a0,a0,1284 # b504 <_end+0x79d4>
    15cc:	00500593          	li	a1,5
    15d0:	00b52633          	slt	a2,a0,a1
    15d4:	38c0a423          	sw	a2,904(ra)

000015d8 <inst_256>:
    15d8:	0000b537          	lui	a0,0xb
    15dc:	50450513          	addi	a0,a0,1284 # b504 <_end+0x79d4>
    15e0:	333335b7          	lui	a1,0x33333
    15e4:	33358593          	addi	a1,a1,819 # 33333333 <_end+0x3332f803>
    15e8:	00b52633          	slt	a2,a0,a1
    15ec:	38c0a623          	sw	a2,908(ra)

000015f0 <inst_257>:
    15f0:	0000b537          	lui	a0,0xb
    15f4:	50450513          	addi	a0,a0,1284 # b504 <_end+0x79d4>
    15f8:	666665b7          	lui	a1,0x66666
    15fc:	66658593          	addi	a1,a1,1638 # 66666666 <_end+0x66662b36>
    1600:	00b52633          	slt	a2,a0,a1
    1604:	38c0a823          	sw	a2,912(ra)

00001608 <inst_258>:
    1608:	0000b537          	lui	a0,0xb
    160c:	50450513          	addi	a0,a0,1284 # b504 <_end+0x79d4>
    1610:	ffff55b7          	lui	a1,0xffff5
    1614:	afc58593          	addi	a1,a1,-1284 # ffff4afc <_end+0xffff0fcc>
    1618:	00b52633          	slt	a2,a0,a1
    161c:	38c0aa23          	sw	a2,916(ra)

00001620 <inst_259>:
    1620:	0000b537          	lui	a0,0xb
    1624:	50450513          	addi	a0,a0,1284 # b504 <_end+0x79d4>
    1628:	0000b5b7          	lui	a1,0xb
    162c:	50458593          	addi	a1,a1,1284 # b504 <_end+0x79d4>
    1630:	00b52633          	slt	a2,a0,a1
    1634:	38c0ac23          	sw	a2,920(ra)

00001638 <inst_260>:
    1638:	0000b537          	lui	a0,0xb
    163c:	50450513          	addi	a0,a0,1284 # b504 <_end+0x79d4>
    1640:	00200593          	li	a1,2
    1644:	00b52633          	slt	a2,a0,a1
    1648:	38c0ae23          	sw	a2,924(ra)

0000164c <inst_261>:
    164c:	0000b537          	lui	a0,0xb
    1650:	50450513          	addi	a0,a0,1284 # b504 <_end+0x79d4>
    1654:	555555b7          	lui	a1,0x55555
    1658:	55458593          	addi	a1,a1,1364 # 55555554 <_end+0x55551a24>
    165c:	00b52633          	slt	a2,a0,a1
    1660:	3ac0a023          	sw	a2,928(ra)

00001664 <inst_262>:
    1664:	0000b537          	lui	a0,0xb
    1668:	50450513          	addi	a0,a0,1284 # b504 <_end+0x79d4>
    166c:	00000593          	li	a1,0
    1670:	00b52633          	slt	a2,a0,a1
    1674:	3ac0a223          	sw	a2,932(ra)

00001678 <inst_263>:
    1678:	0000b537          	lui	a0,0xb
    167c:	50450513          	addi	a0,a0,1284 # b504 <_end+0x79d4>
    1680:	00400593          	li	a1,4
    1684:	00b52633          	slt	a2,a0,a1
    1688:	3ac0a423          	sw	a2,936(ra)

0000168c <inst_264>:
    168c:	0000b537          	lui	a0,0xb
    1690:	50450513          	addi	a0,a0,1284 # b504 <_end+0x79d4>
    1694:	333335b7          	lui	a1,0x33333
    1698:	33258593          	addi	a1,a1,818 # 33333332 <_end+0x3332f802>
    169c:	00b52633          	slt	a2,a0,a1
    16a0:	3ac0a623          	sw	a2,940(ra)

000016a4 <inst_265>:
    16a4:	0000b537          	lui	a0,0xb
    16a8:	50450513          	addi	a0,a0,1284 # b504 <_end+0x79d4>
    16ac:	666665b7          	lui	a1,0x66666
    16b0:	66558593          	addi	a1,a1,1637 # 66666665 <_end+0x66662b35>
    16b4:	00b52633          	slt	a2,a0,a1
    16b8:	3ac0a823          	sw	a2,944(ra)

000016bc <inst_266>:
    16bc:	0000b537          	lui	a0,0xb
    16c0:	50450513          	addi	a0,a0,1284 # b504 <_end+0x79d4>
    16c4:	0000b5b7          	lui	a1,0xb
    16c8:	50358593          	addi	a1,a1,1283 # b503 <_end+0x79d3>
    16cc:	00b52633          	slt	a2,a0,a1
    16d0:	3ac0aa23          	sw	a2,948(ra)

000016d4 <inst_267>:
    16d4:	0000b537          	lui	a0,0xb
    16d8:	50450513          	addi	a0,a0,1284 # b504 <_end+0x79d4>
    16dc:	555555b7          	lui	a1,0x55555
    16e0:	55658593          	addi	a1,a1,1366 # 55555556 <_end+0x55551a26>
    16e4:	00b52633          	slt	a2,a0,a1
    16e8:	3ac0ac23          	sw	a2,952(ra)

000016ec <inst_268>:
    16ec:	0000b537          	lui	a0,0xb
    16f0:	50450513          	addi	a0,a0,1284 # b504 <_end+0x79d4>
    16f4:	aaaab5b7          	lui	a1,0xaaaab
    16f8:	aab58593          	addi	a1,a1,-1365 # aaaaaaab <_end+0xaaaa6f7b>
    16fc:	00b52633          	slt	a2,a0,a1
    1700:	3ac0ae23          	sw	a2,956(ra)

00001704 <inst_269>:
    1704:	0000b537          	lui	a0,0xb
    1708:	50450513          	addi	a0,a0,1284 # b504 <_end+0x79d4>
    170c:	00600593          	li	a1,6
    1710:	00b52633          	slt	a2,a0,a1
    1714:	3cc0a023          	sw	a2,960(ra)

00001718 <inst_270>:
    1718:	0000b537          	lui	a0,0xb
    171c:	50450513          	addi	a0,a0,1284 # b504 <_end+0x79d4>
    1720:	333335b7          	lui	a1,0x33333
    1724:	33458593          	addi	a1,a1,820 # 33333334 <_end+0x3332f804>
    1728:	00b52633          	slt	a2,a0,a1
    172c:	3cc0a223          	sw	a2,964(ra)

00001730 <inst_271>:
    1730:	0000b537          	lui	a0,0xb
    1734:	50450513          	addi	a0,a0,1284 # b504 <_end+0x79d4>
    1738:	666665b7          	lui	a1,0x66666
    173c:	66758593          	addi	a1,a1,1639 # 66666667 <_end+0x66662b37>
    1740:	00b52633          	slt	a2,a0,a1
    1744:	3cc0a423          	sw	a2,968(ra)

00001748 <inst_272>:
    1748:	0000b537          	lui	a0,0xb
    174c:	50450513          	addi	a0,a0,1284 # b504 <_end+0x79d4>
    1750:	ffff55b7          	lui	a1,0xffff5
    1754:	afd58593          	addi	a1,a1,-1283 # ffff4afd <_end+0xffff0fcd>
    1758:	00b52633          	slt	a2,a0,a1
    175c:	3cc0a623          	sw	a2,972(ra)

00001760 <inst_273>:
    1760:	0000b537          	lui	a0,0xb
    1764:	50450513          	addi	a0,a0,1284 # b504 <_end+0x79d4>
    1768:	0000b5b7          	lui	a1,0xb
    176c:	50558593          	addi	a1,a1,1285 # b505 <_end+0x79d5>
    1770:	00b52633          	slt	a2,a0,a1
    1774:	3cc0a823          	sw	a2,976(ra)

00001778 <inst_274>:
    1778:	00200513          	li	a0,2
    177c:	00300593          	li	a1,3
    1780:	00b52633          	slt	a2,a0,a1
    1784:	3cc0aa23          	sw	a2,980(ra)

00001788 <inst_275>:
    1788:	00200513          	li	a0,2
    178c:	aaaab5b7          	lui	a1,0xaaaab
    1790:	aaa58593          	addi	a1,a1,-1366 # aaaaaaaa <_end+0xaaaa6f7a>
    1794:	00b52633          	slt	a2,a0,a1
    1798:	3cc0ac23          	sw	a2,984(ra)

0000179c <inst_276>:
    179c:	00200513          	li	a0,2
    17a0:	00500593          	li	a1,5
    17a4:	00b52633          	slt	a2,a0,a1
    17a8:	3cc0ae23          	sw	a2,988(ra)

000017ac <inst_277>:
    17ac:	00200513          	li	a0,2
    17b0:	333335b7          	lui	a1,0x33333
    17b4:	33358593          	addi	a1,a1,819 # 33333333 <_end+0x3332f803>
    17b8:	00b52633          	slt	a2,a0,a1
    17bc:	3ec0a023          	sw	a2,992(ra)

000017c0 <inst_278>:
    17c0:	00200513          	li	a0,2
    17c4:	666665b7          	lui	a1,0x66666
    17c8:	66658593          	addi	a1,a1,1638 # 66666666 <_end+0x66662b36>
    17cc:	00b52633          	slt	a2,a0,a1
    17d0:	3ec0a223          	sw	a2,996(ra)

000017d4 <inst_279>:
    17d4:	00200513          	li	a0,2
    17d8:	ffff55b7          	lui	a1,0xffff5
    17dc:	afc58593          	addi	a1,a1,-1284 # ffff4afc <_end+0xffff0fcc>
    17e0:	00b52633          	slt	a2,a0,a1
    17e4:	3ec0a423          	sw	a2,1000(ra)

000017e8 <inst_280>:
    17e8:	00200513          	li	a0,2
    17ec:	0000b5b7          	lui	a1,0xb
    17f0:	50458593          	addi	a1,a1,1284 # b504 <_end+0x79d4>
    17f4:	00b52633          	slt	a2,a0,a1
    17f8:	3ec0a623          	sw	a2,1004(ra)

000017fc <inst_281>:
    17fc:	00200513          	li	a0,2
    1800:	00200593          	li	a1,2
    1804:	00b52633          	slt	a2,a0,a1
    1808:	3ec0a823          	sw	a2,1008(ra)

0000180c <inst_282>:
    180c:	00200513          	li	a0,2
    1810:	555555b7          	lui	a1,0x55555
    1814:	55458593          	addi	a1,a1,1364 # 55555554 <_end+0x55551a24>
    1818:	00b52633          	slt	a2,a0,a1
    181c:	3ec0aa23          	sw	a2,1012(ra)

00001820 <inst_283>:
    1820:	00200513          	li	a0,2
    1824:	00000593          	li	a1,0
    1828:	00b52633          	slt	a2,a0,a1
    182c:	3ec0ac23          	sw	a2,1016(ra)

00001830 <inst_284>:
    1830:	00200513          	li	a0,2
    1834:	00400593          	li	a1,4
    1838:	00b52633          	slt	a2,a0,a1
    183c:	3ec0ae23          	sw	a2,1020(ra)

00001840 <inst_285>:
    1840:	00200513          	li	a0,2
    1844:	333335b7          	lui	a1,0x33333
    1848:	33258593          	addi	a1,a1,818 # 33333332 <_end+0x3332f802>
    184c:	00b52633          	slt	a2,a0,a1
    1850:	40c0a023          	sw	a2,1024(ra)

00001854 <inst_286>:
    1854:	00200513          	li	a0,2
    1858:	666665b7          	lui	a1,0x66666
    185c:	66558593          	addi	a1,a1,1637 # 66666665 <_end+0x66662b35>
    1860:	00b52633          	slt	a2,a0,a1
    1864:	40c0a223          	sw	a2,1028(ra)

00001868 <inst_287>:
    1868:	00200513          	li	a0,2
    186c:	0000b5b7          	lui	a1,0xb
    1870:	50358593          	addi	a1,a1,1283 # b503 <_end+0x79d3>
    1874:	00b52633          	slt	a2,a0,a1
    1878:	40c0a423          	sw	a2,1032(ra)

0000187c <inst_288>:
    187c:	00200513          	li	a0,2
    1880:	555555b7          	lui	a1,0x55555
    1884:	55658593          	addi	a1,a1,1366 # 55555556 <_end+0x55551a26>
    1888:	00b52633          	slt	a2,a0,a1
    188c:	40c0a623          	sw	a2,1036(ra)

00001890 <inst_289>:
    1890:	00200513          	li	a0,2
    1894:	aaaab5b7          	lui	a1,0xaaaab
    1898:	aab58593          	addi	a1,a1,-1365 # aaaaaaab <_end+0xaaaa6f7b>
    189c:	00b52633          	slt	a2,a0,a1
    18a0:	40c0a823          	sw	a2,1040(ra)

000018a4 <inst_290>:
    18a4:	00200513          	li	a0,2
    18a8:	00600593          	li	a1,6
    18ac:	00b52633          	slt	a2,a0,a1
    18b0:	40c0aa23          	sw	a2,1044(ra)

000018b4 <inst_291>:
    18b4:	00200513          	li	a0,2
    18b8:	333335b7          	lui	a1,0x33333
    18bc:	33458593          	addi	a1,a1,820 # 33333334 <_end+0x3332f804>
    18c0:	00b52633          	slt	a2,a0,a1
    18c4:	40c0ac23          	sw	a2,1048(ra)

000018c8 <inst_292>:
    18c8:	00200513          	li	a0,2
    18cc:	666665b7          	lui	a1,0x66666
    18d0:	66758593          	addi	a1,a1,1639 # 66666667 <_end+0x66662b37>
    18d4:	00b52633          	slt	a2,a0,a1
    18d8:	40c0ae23          	sw	a2,1052(ra)

000018dc <inst_293>:
    18dc:	00200513          	li	a0,2
    18e0:	ffff55b7          	lui	a1,0xffff5
    18e4:	afd58593          	addi	a1,a1,-1283 # ffff4afd <_end+0xffff0fcd>
    18e8:	00b52633          	slt	a2,a0,a1
    18ec:	42c0a023          	sw	a2,1056(ra)

000018f0 <inst_294>:
    18f0:	00200513          	li	a0,2
    18f4:	0000b5b7          	lui	a1,0xb
    18f8:	50558593          	addi	a1,a1,1285 # b505 <_end+0x79d5>
    18fc:	00b52633          	slt	a2,a0,a1
    1900:	42c0a223          	sw	a2,1060(ra)

00001904 <inst_295>:
    1904:	55555537          	lui	a0,0x55555
    1908:	55450513          	addi	a0,a0,1364 # 55555554 <_end+0x55551a24>
    190c:	00300593          	li	a1,3
    1910:	00b52633          	slt	a2,a0,a1
    1914:	42c0a423          	sw	a2,1064(ra)

00001918 <inst_296>:
    1918:	55555537          	lui	a0,0x55555
    191c:	55450513          	addi	a0,a0,1364 # 55555554 <_end+0x55551a24>
    1920:	555555b7          	lui	a1,0x55555
    1924:	55558593          	addi	a1,a1,1365 # 55555555 <_end+0x55551a25>
    1928:	00b52633          	slt	a2,a0,a1
    192c:	42c0a623          	sw	a2,1068(ra)

00001930 <inst_297>:
    1930:	55555537          	lui	a0,0x55555
    1934:	55450513          	addi	a0,a0,1364 # 55555554 <_end+0x55551a24>
    1938:	aaaab5b7          	lui	a1,0xaaaab
    193c:	aaa58593          	addi	a1,a1,-1366 # aaaaaaaa <_end+0xaaaa6f7a>
    1940:	00b52633          	slt	a2,a0,a1
    1944:	42c0a823          	sw	a2,1072(ra)

00001948 <inst_298>:
    1948:	55555537          	lui	a0,0x55555
    194c:	55450513          	addi	a0,a0,1364 # 55555554 <_end+0x55551a24>
    1950:	00500593          	li	a1,5
    1954:	00b52633          	slt	a2,a0,a1
    1958:	42c0aa23          	sw	a2,1076(ra)

0000195c <inst_299>:
    195c:	55555537          	lui	a0,0x55555
    1960:	55450513          	addi	a0,a0,1364 # 55555554 <_end+0x55551a24>
    1964:	333335b7          	lui	a1,0x33333
    1968:	33358593          	addi	a1,a1,819 # 33333333 <_end+0x3332f803>
    196c:	00b52633          	slt	a2,a0,a1
    1970:	42c0ac23          	sw	a2,1080(ra)

00001974 <inst_300>:
    1974:	55555537          	lui	a0,0x55555
    1978:	55450513          	addi	a0,a0,1364 # 55555554 <_end+0x55551a24>
    197c:	666665b7          	lui	a1,0x66666
    1980:	66658593          	addi	a1,a1,1638 # 66666666 <_end+0x66662b36>
    1984:	00b52633          	slt	a2,a0,a1
    1988:	42c0ae23          	sw	a2,1084(ra)

0000198c <inst_301>:
    198c:	55555537          	lui	a0,0x55555
    1990:	55450513          	addi	a0,a0,1364 # 55555554 <_end+0x55551a24>
    1994:	ffff55b7          	lui	a1,0xffff5
    1998:	afc58593          	addi	a1,a1,-1284 # ffff4afc <_end+0xffff0fcc>
    199c:	00b52633          	slt	a2,a0,a1
    19a0:	44c0a023          	sw	a2,1088(ra)

000019a4 <inst_302>:
    19a4:	55555537          	lui	a0,0x55555
    19a8:	55450513          	addi	a0,a0,1364 # 55555554 <_end+0x55551a24>
    19ac:	0000b5b7          	lui	a1,0xb
    19b0:	50458593          	addi	a1,a1,1284 # b504 <_end+0x79d4>
    19b4:	00b52633          	slt	a2,a0,a1
    19b8:	44c0a223          	sw	a2,1092(ra)

000019bc <inst_303>:
    19bc:	55555537          	lui	a0,0x55555
    19c0:	55450513          	addi	a0,a0,1364 # 55555554 <_end+0x55551a24>
    19c4:	00200593          	li	a1,2
    19c8:	00b52633          	slt	a2,a0,a1
    19cc:	44c0a423          	sw	a2,1096(ra)

000019d0 <inst_304>:
    19d0:	55555537          	lui	a0,0x55555
    19d4:	55450513          	addi	a0,a0,1364 # 55555554 <_end+0x55551a24>
    19d8:	555555b7          	lui	a1,0x55555
    19dc:	55458593          	addi	a1,a1,1364 # 55555554 <_end+0x55551a24>
    19e0:	00b52633          	slt	a2,a0,a1
    19e4:	44c0a623          	sw	a2,1100(ra)

000019e8 <inst_305>:
    19e8:	55555537          	lui	a0,0x55555
    19ec:	55450513          	addi	a0,a0,1364 # 55555554 <_end+0x55551a24>
    19f0:	00000593          	li	a1,0
    19f4:	00b52633          	slt	a2,a0,a1
    19f8:	44c0a823          	sw	a2,1104(ra)

000019fc <inst_306>:
    19fc:	55555537          	lui	a0,0x55555
    1a00:	55450513          	addi	a0,a0,1364 # 55555554 <_end+0x55551a24>
    1a04:	00400593          	li	a1,4
    1a08:	00b52633          	slt	a2,a0,a1
    1a0c:	44c0aa23          	sw	a2,1108(ra)

00001a10 <inst_307>:
    1a10:	55555537          	lui	a0,0x55555
    1a14:	55450513          	addi	a0,a0,1364 # 55555554 <_end+0x55551a24>
    1a18:	333335b7          	lui	a1,0x33333
    1a1c:	33258593          	addi	a1,a1,818 # 33333332 <_end+0x3332f802>
    1a20:	00b52633          	slt	a2,a0,a1
    1a24:	44c0ac23          	sw	a2,1112(ra)

00001a28 <inst_308>:
    1a28:	55555537          	lui	a0,0x55555
    1a2c:	55450513          	addi	a0,a0,1364 # 55555554 <_end+0x55551a24>
    1a30:	666665b7          	lui	a1,0x66666
    1a34:	66558593          	addi	a1,a1,1637 # 66666665 <_end+0x66662b35>
    1a38:	00b52633          	slt	a2,a0,a1
    1a3c:	44c0ae23          	sw	a2,1116(ra)

00001a40 <inst_309>:
    1a40:	55555537          	lui	a0,0x55555
    1a44:	55450513          	addi	a0,a0,1364 # 55555554 <_end+0x55551a24>
    1a48:	0000b5b7          	lui	a1,0xb
    1a4c:	50358593          	addi	a1,a1,1283 # b503 <_end+0x79d3>
    1a50:	00b52633          	slt	a2,a0,a1
    1a54:	46c0a023          	sw	a2,1120(ra)

00001a58 <inst_310>:
    1a58:	55555537          	lui	a0,0x55555
    1a5c:	55450513          	addi	a0,a0,1364 # 55555554 <_end+0x55551a24>
    1a60:	555555b7          	lui	a1,0x55555
    1a64:	55658593          	addi	a1,a1,1366 # 55555556 <_end+0x55551a26>
    1a68:	00b52633          	slt	a2,a0,a1
    1a6c:	46c0a223          	sw	a2,1124(ra)

00001a70 <inst_311>:
    1a70:	55555537          	lui	a0,0x55555
    1a74:	55450513          	addi	a0,a0,1364 # 55555554 <_end+0x55551a24>
    1a78:	aaaab5b7          	lui	a1,0xaaaab
    1a7c:	aab58593          	addi	a1,a1,-1365 # aaaaaaab <_end+0xaaaa6f7b>
    1a80:	00b52633          	slt	a2,a0,a1
    1a84:	46c0a423          	sw	a2,1128(ra)

00001a88 <inst_312>:
    1a88:	55555537          	lui	a0,0x55555
    1a8c:	55450513          	addi	a0,a0,1364 # 55555554 <_end+0x55551a24>
    1a90:	00600593          	li	a1,6
    1a94:	00b52633          	slt	a2,a0,a1
    1a98:	46c0a623          	sw	a2,1132(ra)

00001a9c <inst_313>:
    1a9c:	55555537          	lui	a0,0x55555
    1aa0:	55450513          	addi	a0,a0,1364 # 55555554 <_end+0x55551a24>
    1aa4:	333335b7          	lui	a1,0x33333
    1aa8:	33458593          	addi	a1,a1,820 # 33333334 <_end+0x3332f804>
    1aac:	00b52633          	slt	a2,a0,a1
    1ab0:	46c0a823          	sw	a2,1136(ra)

00001ab4 <inst_314>:
    1ab4:	55555537          	lui	a0,0x55555
    1ab8:	55450513          	addi	a0,a0,1364 # 55555554 <_end+0x55551a24>
    1abc:	666665b7          	lui	a1,0x66666
    1ac0:	66758593          	addi	a1,a1,1639 # 66666667 <_end+0x66662b37>
    1ac4:	00b52633          	slt	a2,a0,a1
    1ac8:	46c0aa23          	sw	a2,1140(ra)

00001acc <inst_315>:
    1acc:	55555537          	lui	a0,0x55555
    1ad0:	55450513          	addi	a0,a0,1364 # 55555554 <_end+0x55551a24>
    1ad4:	ffff55b7          	lui	a1,0xffff5
    1ad8:	afd58593          	addi	a1,a1,-1283 # ffff4afd <_end+0xffff0fcd>
    1adc:	00b52633          	slt	a2,a0,a1
    1ae0:	46c0ac23          	sw	a2,1144(ra)

00001ae4 <inst_316>:
    1ae4:	55555537          	lui	a0,0x55555
    1ae8:	55450513          	addi	a0,a0,1364 # 55555554 <_end+0x55551a24>
    1aec:	0000b5b7          	lui	a1,0xb
    1af0:	50558593          	addi	a1,a1,1285 # b505 <_end+0x79d5>
    1af4:	00b52633          	slt	a2,a0,a1
    1af8:	46c0ae23          	sw	a2,1148(ra)

00001afc <inst_317>:
    1afc:	00000513          	li	a0,0
    1b00:	00300593          	li	a1,3
    1b04:	00b52633          	slt	a2,a0,a1
    1b08:	48c0a023          	sw	a2,1152(ra)

00001b0c <inst_318>:
    1b0c:	00000513          	li	a0,0
    1b10:	555555b7          	lui	a1,0x55555
    1b14:	55558593          	addi	a1,a1,1365 # 55555555 <_end+0x55551a25>
    1b18:	00b52633          	slt	a2,a0,a1
    1b1c:	48c0a223          	sw	a2,1156(ra)

00001b20 <inst_319>:
    1b20:	00000513          	li	a0,0
    1b24:	aaaab5b7          	lui	a1,0xaaaab
    1b28:	aaa58593          	addi	a1,a1,-1366 # aaaaaaaa <_end+0xaaaa6f7a>
    1b2c:	00b52633          	slt	a2,a0,a1
    1b30:	48c0a423          	sw	a2,1160(ra)

00001b34 <inst_320>:
    1b34:	00000513          	li	a0,0
    1b38:	00500593          	li	a1,5
    1b3c:	00b52633          	slt	a2,a0,a1
    1b40:	48c0a623          	sw	a2,1164(ra)

00001b44 <inst_321>:
    1b44:	00000513          	li	a0,0
    1b48:	333335b7          	lui	a1,0x33333
    1b4c:	33358593          	addi	a1,a1,819 # 33333333 <_end+0x3332f803>
    1b50:	00b52633          	slt	a2,a0,a1
    1b54:	48c0a823          	sw	a2,1168(ra)

00001b58 <inst_322>:
    1b58:	00000513          	li	a0,0
    1b5c:	666665b7          	lui	a1,0x66666
    1b60:	66658593          	addi	a1,a1,1638 # 66666666 <_end+0x66662b36>
    1b64:	00b52633          	slt	a2,a0,a1
    1b68:	48c0aa23          	sw	a2,1172(ra)

00001b6c <inst_323>:
    1b6c:	00000513          	li	a0,0
    1b70:	ffff55b7          	lui	a1,0xffff5
    1b74:	afc58593          	addi	a1,a1,-1284 # ffff4afc <_end+0xffff0fcc>
    1b78:	00b52633          	slt	a2,a0,a1
    1b7c:	48c0ac23          	sw	a2,1176(ra)

00001b80 <inst_324>:
    1b80:	00000513          	li	a0,0
    1b84:	0000b5b7          	lui	a1,0xb
    1b88:	50458593          	addi	a1,a1,1284 # b504 <_end+0x79d4>
    1b8c:	00b52633          	slt	a2,a0,a1
    1b90:	48c0ae23          	sw	a2,1180(ra)

00001b94 <inst_325>:
    1b94:	aaaab537          	lui	a0,0xaaaab
    1b98:	aab50513          	addi	a0,a0,-1365 # aaaaaaab <_end+0xaaaa6f7b>
    1b9c:	aaaab5b7          	lui	a1,0xaaaab
    1ba0:	aab58593          	addi	a1,a1,-1365 # aaaaaaab <_end+0xaaaa6f7b>
    1ba4:	00b52633          	slt	a2,a0,a1
    1ba8:	4ac0a023          	sw	a2,1184(ra)

00001bac <inst_326>:
    1bac:	aaaab537          	lui	a0,0xaaaab
    1bb0:	aab50513          	addi	a0,a0,-1365 # aaaaaaab <_end+0xaaaa6f7b>
    1bb4:	00600593          	li	a1,6
    1bb8:	00b52633          	slt	a2,a0,a1
    1bbc:	4ac0a223          	sw	a2,1188(ra)

00001bc0 <inst_327>:
    1bc0:	aaaab537          	lui	a0,0xaaaab
    1bc4:	aab50513          	addi	a0,a0,-1365 # aaaaaaab <_end+0xaaaa6f7b>
    1bc8:	333335b7          	lui	a1,0x33333
    1bcc:	33458593          	addi	a1,a1,820 # 33333334 <_end+0x3332f804>
    1bd0:	00b52633          	slt	a2,a0,a1
    1bd4:	4ac0a423          	sw	a2,1192(ra)

00001bd8 <inst_328>:
    1bd8:	aaaab537          	lui	a0,0xaaaab
    1bdc:	aab50513          	addi	a0,a0,-1365 # aaaaaaab <_end+0xaaaa6f7b>
    1be0:	666665b7          	lui	a1,0x66666
    1be4:	66758593          	addi	a1,a1,1639 # 66666667 <_end+0x66662b37>
    1be8:	00b52633          	slt	a2,a0,a1
    1bec:	4ac0a623          	sw	a2,1196(ra)

00001bf0 <inst_329>:
    1bf0:	aaaab537          	lui	a0,0xaaaab
    1bf4:	aab50513          	addi	a0,a0,-1365 # aaaaaaab <_end+0xaaaa6f7b>
    1bf8:	ffff55b7          	lui	a1,0xffff5
    1bfc:	afd58593          	addi	a1,a1,-1283 # ffff4afd <_end+0xffff0fcd>
    1c00:	00b52633          	slt	a2,a0,a1
    1c04:	4ac0a823          	sw	a2,1200(ra)

00001c08 <inst_330>:
    1c08:	aaaab537          	lui	a0,0xaaaab
    1c0c:	aab50513          	addi	a0,a0,-1365 # aaaaaaab <_end+0xaaaa6f7b>
    1c10:	0000b5b7          	lui	a1,0xb
    1c14:	50558593          	addi	a1,a1,1285 # b505 <_end+0x79d5>
    1c18:	00b52633          	slt	a2,a0,a1
    1c1c:	4ac0aa23          	sw	a2,1204(ra)

00001c20 <inst_331>:
    1c20:	00600513          	li	a0,6
    1c24:	00300593          	li	a1,3
    1c28:	00b52633          	slt	a2,a0,a1
    1c2c:	4ac0ac23          	sw	a2,1208(ra)

00001c30 <inst_332>:
    1c30:	00600513          	li	a0,6
    1c34:	555555b7          	lui	a1,0x55555
    1c38:	55558593          	addi	a1,a1,1365 # 55555555 <_end+0x55551a25>
    1c3c:	00b52633          	slt	a2,a0,a1
    1c40:	4ac0ae23          	sw	a2,1212(ra)

00001c44 <inst_333>:
    1c44:	00600513          	li	a0,6
    1c48:	aaaab5b7          	lui	a1,0xaaaab
    1c4c:	aaa58593          	addi	a1,a1,-1366 # aaaaaaaa <_end+0xaaaa6f7a>
    1c50:	00b52633          	slt	a2,a0,a1
    1c54:	4cc0a023          	sw	a2,1216(ra)

00001c58 <inst_334>:
    1c58:	00600513          	li	a0,6
    1c5c:	00500593          	li	a1,5
    1c60:	00b52633          	slt	a2,a0,a1
    1c64:	4cc0a223          	sw	a2,1220(ra)

00001c68 <inst_335>:
    1c68:	00600513          	li	a0,6
    1c6c:	333335b7          	lui	a1,0x33333
    1c70:	33358593          	addi	a1,a1,819 # 33333333 <_end+0x3332f803>
    1c74:	00b52633          	slt	a2,a0,a1
    1c78:	4cc0a423          	sw	a2,1224(ra)

00001c7c <inst_336>:
    1c7c:	00600513          	li	a0,6
    1c80:	666665b7          	lui	a1,0x66666
    1c84:	66658593          	addi	a1,a1,1638 # 66666666 <_end+0x66662b36>
    1c88:	00b52633          	slt	a2,a0,a1
    1c8c:	4cc0a623          	sw	a2,1228(ra)

00001c90 <inst_337>:
    1c90:	00600513          	li	a0,6
    1c94:	ffff55b7          	lui	a1,0xffff5
    1c98:	afc58593          	addi	a1,a1,-1284 # ffff4afc <_end+0xffff0fcc>
    1c9c:	00b52633          	slt	a2,a0,a1
    1ca0:	4cc0a823          	sw	a2,1232(ra)

00001ca4 <inst_338>:
    1ca4:	00600513          	li	a0,6
    1ca8:	0000b5b7          	lui	a1,0xb
    1cac:	50458593          	addi	a1,a1,1284 # b504 <_end+0x79d4>
    1cb0:	00b52633          	slt	a2,a0,a1
    1cb4:	4cc0aa23          	sw	a2,1236(ra)

00001cb8 <inst_339>:
    1cb8:	00600513          	li	a0,6
    1cbc:	00200593          	li	a1,2
    1cc0:	00b52633          	slt	a2,a0,a1
    1cc4:	4cc0ac23          	sw	a2,1240(ra)

00001cc8 <inst_340>:
    1cc8:	00600513          	li	a0,6
    1ccc:	555555b7          	lui	a1,0x55555
    1cd0:	55458593          	addi	a1,a1,1364 # 55555554 <_end+0x55551a24>
    1cd4:	00b52633          	slt	a2,a0,a1
    1cd8:	4cc0ae23          	sw	a2,1244(ra)

00001cdc <inst_341>:
    1cdc:	00600513          	li	a0,6
    1ce0:	00000593          	li	a1,0
    1ce4:	00b52633          	slt	a2,a0,a1
    1ce8:	4ec0a023          	sw	a2,1248(ra)

00001cec <inst_342>:
    1cec:	00600513          	li	a0,6
    1cf0:	00400593          	li	a1,4
    1cf4:	00b52633          	slt	a2,a0,a1
    1cf8:	4ec0a223          	sw	a2,1252(ra)

00001cfc <inst_343>:
    1cfc:	00600513          	li	a0,6
    1d00:	333335b7          	lui	a1,0x33333
    1d04:	33258593          	addi	a1,a1,818 # 33333332 <_end+0x3332f802>
    1d08:	00b52633          	slt	a2,a0,a1
    1d0c:	4ec0a423          	sw	a2,1256(ra)

00001d10 <inst_344>:
    1d10:	00600513          	li	a0,6
    1d14:	666665b7          	lui	a1,0x66666
    1d18:	66558593          	addi	a1,a1,1637 # 66666665 <_end+0x66662b35>
    1d1c:	00b52633          	slt	a2,a0,a1
    1d20:	4ec0a623          	sw	a2,1260(ra)

00001d24 <inst_345>:
    1d24:	00600513          	li	a0,6
    1d28:	0000b5b7          	lui	a1,0xb
    1d2c:	50358593          	addi	a1,a1,1283 # b503 <_end+0x79d3>
    1d30:	00b52633          	slt	a2,a0,a1
    1d34:	4ec0a823          	sw	a2,1264(ra)

00001d38 <inst_346>:
    1d38:	00600513          	li	a0,6
    1d3c:	555555b7          	lui	a1,0x55555
    1d40:	55658593          	addi	a1,a1,1366 # 55555556 <_end+0x55551a26>
    1d44:	00b52633          	slt	a2,a0,a1
    1d48:	4ec0aa23          	sw	a2,1268(ra)

00001d4c <inst_347>:
    1d4c:	00600513          	li	a0,6
    1d50:	aaaab5b7          	lui	a1,0xaaaab
    1d54:	aab58593          	addi	a1,a1,-1365 # aaaaaaab <_end+0xaaaa6f7b>
    1d58:	00b52633          	slt	a2,a0,a1
    1d5c:	4ec0ac23          	sw	a2,1272(ra)

00001d60 <inst_348>:
    1d60:	00600513          	li	a0,6
    1d64:	00600593          	li	a1,6
    1d68:	00b52633          	slt	a2,a0,a1
    1d6c:	4ec0ae23          	sw	a2,1276(ra)

00001d70 <inst_349>:
    1d70:	00600513          	li	a0,6
    1d74:	333335b7          	lui	a1,0x33333
    1d78:	33458593          	addi	a1,a1,820 # 33333334 <_end+0x3332f804>
    1d7c:	00b52633          	slt	a2,a0,a1
    1d80:	50c0a023          	sw	a2,1280(ra)

00001d84 <inst_350>:
    1d84:	00600513          	li	a0,6
    1d88:	666665b7          	lui	a1,0x66666
    1d8c:	66758593          	addi	a1,a1,1639 # 66666667 <_end+0x66662b37>
    1d90:	00b52633          	slt	a2,a0,a1
    1d94:	50c0a223          	sw	a2,1284(ra)

00001d98 <inst_351>:
    1d98:	00600513          	li	a0,6
    1d9c:	ffff55b7          	lui	a1,0xffff5
    1da0:	afd58593          	addi	a1,a1,-1283 # ffff4afd <_end+0xffff0fcd>
    1da4:	00b52633          	slt	a2,a0,a1
    1da8:	50c0a423          	sw	a2,1288(ra)

00001dac <inst_352>:
    1dac:	00600513          	li	a0,6
    1db0:	0000b5b7          	lui	a1,0xb
    1db4:	50558593          	addi	a1,a1,1285 # b505 <_end+0x79d5>
    1db8:	00b52633          	slt	a2,a0,a1
    1dbc:	50c0a623          	sw	a2,1292(ra)

00001dc0 <inst_353>:
    1dc0:	33333537          	lui	a0,0x33333
    1dc4:	33450513          	addi	a0,a0,820 # 33333334 <_end+0x3332f804>
    1dc8:	00300593          	li	a1,3
    1dcc:	00b52633          	slt	a2,a0,a1
    1dd0:	50c0a823          	sw	a2,1296(ra)

00001dd4 <inst_354>:
    1dd4:	33333537          	lui	a0,0x33333
    1dd8:	33450513          	addi	a0,a0,820 # 33333334 <_end+0x3332f804>
    1ddc:	555555b7          	lui	a1,0x55555
    1de0:	55558593          	addi	a1,a1,1365 # 55555555 <_end+0x55551a25>
    1de4:	00b52633          	slt	a2,a0,a1
    1de8:	50c0aa23          	sw	a2,1300(ra)

00001dec <inst_355>:
    1dec:	33333537          	lui	a0,0x33333
    1df0:	33450513          	addi	a0,a0,820 # 33333334 <_end+0x3332f804>
    1df4:	aaaab5b7          	lui	a1,0xaaaab
    1df8:	aaa58593          	addi	a1,a1,-1366 # aaaaaaaa <_end+0xaaaa6f7a>
    1dfc:	00b52633          	slt	a2,a0,a1
    1e00:	50c0ac23          	sw	a2,1304(ra)

00001e04 <inst_356>:
    1e04:	33333537          	lui	a0,0x33333
    1e08:	33450513          	addi	a0,a0,820 # 33333334 <_end+0x3332f804>
    1e0c:	00500593          	li	a1,5
    1e10:	00b52633          	slt	a2,a0,a1
    1e14:	50c0ae23          	sw	a2,1308(ra)

00001e18 <inst_357>:
    1e18:	33333537          	lui	a0,0x33333
    1e1c:	33450513          	addi	a0,a0,820 # 33333334 <_end+0x3332f804>
    1e20:	333335b7          	lui	a1,0x33333
    1e24:	33358593          	addi	a1,a1,819 # 33333333 <_end+0x3332f803>
    1e28:	00b52633          	slt	a2,a0,a1
    1e2c:	52c0a023          	sw	a2,1312(ra)

00001e30 <inst_358>:
    1e30:	33333537          	lui	a0,0x33333
    1e34:	33450513          	addi	a0,a0,820 # 33333334 <_end+0x3332f804>
    1e38:	666665b7          	lui	a1,0x66666
    1e3c:	66658593          	addi	a1,a1,1638 # 66666666 <_end+0x66662b36>
    1e40:	00b52633          	slt	a2,a0,a1
    1e44:	52c0a223          	sw	a2,1316(ra)

00001e48 <inst_359>:
    1e48:	33333537          	lui	a0,0x33333
    1e4c:	33450513          	addi	a0,a0,820 # 33333334 <_end+0x3332f804>
    1e50:	ffff55b7          	lui	a1,0xffff5
    1e54:	afc58593          	addi	a1,a1,-1284 # ffff4afc <_end+0xffff0fcc>
    1e58:	00b52633          	slt	a2,a0,a1
    1e5c:	52c0a423          	sw	a2,1320(ra)

00001e60 <inst_360>:
    1e60:	33333537          	lui	a0,0x33333
    1e64:	33450513          	addi	a0,a0,820 # 33333334 <_end+0x3332f804>
    1e68:	0000b5b7          	lui	a1,0xb
    1e6c:	50458593          	addi	a1,a1,1284 # b504 <_end+0x79d4>
    1e70:	00b52633          	slt	a2,a0,a1
    1e74:	52c0a623          	sw	a2,1324(ra)

00001e78 <inst_361>:
    1e78:	33333537          	lui	a0,0x33333
    1e7c:	33450513          	addi	a0,a0,820 # 33333334 <_end+0x3332f804>
    1e80:	00200593          	li	a1,2
    1e84:	00b52633          	slt	a2,a0,a1
    1e88:	52c0a823          	sw	a2,1328(ra)

00001e8c <inst_362>:
    1e8c:	33333537          	lui	a0,0x33333
    1e90:	33450513          	addi	a0,a0,820 # 33333334 <_end+0x3332f804>
    1e94:	555555b7          	lui	a1,0x55555
    1e98:	55458593          	addi	a1,a1,1364 # 55555554 <_end+0x55551a24>
    1e9c:	00b52633          	slt	a2,a0,a1
    1ea0:	52c0aa23          	sw	a2,1332(ra)

00001ea4 <inst_363>:
    1ea4:	33333537          	lui	a0,0x33333
    1ea8:	33450513          	addi	a0,a0,820 # 33333334 <_end+0x3332f804>
    1eac:	00000593          	li	a1,0
    1eb0:	00b52633          	slt	a2,a0,a1
    1eb4:	52c0ac23          	sw	a2,1336(ra)

00001eb8 <inst_364>:
    1eb8:	33333537          	lui	a0,0x33333
    1ebc:	33450513          	addi	a0,a0,820 # 33333334 <_end+0x3332f804>
    1ec0:	00400593          	li	a1,4
    1ec4:	00b52633          	slt	a2,a0,a1
    1ec8:	52c0ae23          	sw	a2,1340(ra)

00001ecc <inst_365>:
    1ecc:	33333537          	lui	a0,0x33333
    1ed0:	33450513          	addi	a0,a0,820 # 33333334 <_end+0x3332f804>
    1ed4:	333335b7          	lui	a1,0x33333
    1ed8:	33258593          	addi	a1,a1,818 # 33333332 <_end+0x3332f802>
    1edc:	00b52633          	slt	a2,a0,a1
    1ee0:	54c0a023          	sw	a2,1344(ra)

00001ee4 <inst_366>:
    1ee4:	33333537          	lui	a0,0x33333
    1ee8:	33450513          	addi	a0,a0,820 # 33333334 <_end+0x3332f804>
    1eec:	666665b7          	lui	a1,0x66666
    1ef0:	66558593          	addi	a1,a1,1637 # 66666665 <_end+0x66662b35>
    1ef4:	00b52633          	slt	a2,a0,a1
    1ef8:	54c0a223          	sw	a2,1348(ra)

00001efc <inst_367>:
    1efc:	33333537          	lui	a0,0x33333
    1f00:	33450513          	addi	a0,a0,820 # 33333334 <_end+0x3332f804>
    1f04:	0000b5b7          	lui	a1,0xb
    1f08:	50358593          	addi	a1,a1,1283 # b503 <_end+0x79d3>
    1f0c:	00b52633          	slt	a2,a0,a1
    1f10:	54c0a423          	sw	a2,1352(ra)

00001f14 <inst_368>:
    1f14:	33333537          	lui	a0,0x33333
    1f18:	33450513          	addi	a0,a0,820 # 33333334 <_end+0x3332f804>
    1f1c:	555555b7          	lui	a1,0x55555
    1f20:	55658593          	addi	a1,a1,1366 # 55555556 <_end+0x55551a26>
    1f24:	00b52633          	slt	a2,a0,a1
    1f28:	54c0a623          	sw	a2,1356(ra)

00001f2c <inst_369>:
    1f2c:	33333537          	lui	a0,0x33333
    1f30:	33450513          	addi	a0,a0,820 # 33333334 <_end+0x3332f804>
    1f34:	aaaab5b7          	lui	a1,0xaaaab
    1f38:	aab58593          	addi	a1,a1,-1365 # aaaaaaab <_end+0xaaaa6f7b>
    1f3c:	00b52633          	slt	a2,a0,a1
    1f40:	54c0a823          	sw	a2,1360(ra)

00001f44 <inst_370>:
    1f44:	33333537          	lui	a0,0x33333
    1f48:	33450513          	addi	a0,a0,820 # 33333334 <_end+0x3332f804>
    1f4c:	00600593          	li	a1,6
    1f50:	00b52633          	slt	a2,a0,a1
    1f54:	54c0aa23          	sw	a2,1364(ra)

00001f58 <inst_371>:
    1f58:	33333537          	lui	a0,0x33333
    1f5c:	33450513          	addi	a0,a0,820 # 33333334 <_end+0x3332f804>
    1f60:	333335b7          	lui	a1,0x33333
    1f64:	33458593          	addi	a1,a1,820 # 33333334 <_end+0x3332f804>
    1f68:	00b52633          	slt	a2,a0,a1
    1f6c:	54c0ac23          	sw	a2,1368(ra)

00001f70 <inst_372>:
    1f70:	33333537          	lui	a0,0x33333
    1f74:	33450513          	addi	a0,a0,820 # 33333334 <_end+0x3332f804>
    1f78:	666665b7          	lui	a1,0x66666
    1f7c:	66758593          	addi	a1,a1,1639 # 66666667 <_end+0x66662b37>
    1f80:	00b52633          	slt	a2,a0,a1
    1f84:	54c0ae23          	sw	a2,1372(ra)

00001f88 <inst_373>:
    1f88:	33333537          	lui	a0,0x33333
    1f8c:	33450513          	addi	a0,a0,820 # 33333334 <_end+0x3332f804>
    1f90:	ffff55b7          	lui	a1,0xffff5
    1f94:	afd58593          	addi	a1,a1,-1283 # ffff4afd <_end+0xffff0fcd>
    1f98:	00b52633          	slt	a2,a0,a1
    1f9c:	56c0a023          	sw	a2,1376(ra)

00001fa0 <inst_374>:
    1fa0:	33333537          	lui	a0,0x33333
    1fa4:	33450513          	addi	a0,a0,820 # 33333334 <_end+0x3332f804>
    1fa8:	0000b5b7          	lui	a1,0xb
    1fac:	50558593          	addi	a1,a1,1285 # b505 <_end+0x79d5>
    1fb0:	00b52633          	slt	a2,a0,a1
    1fb4:	56c0a223          	sw	a2,1380(ra)

00001fb8 <inst_375>:
    1fb8:	66666537          	lui	a0,0x66666
    1fbc:	66750513          	addi	a0,a0,1639 # 66666667 <_end+0x66662b37>
    1fc0:	00300593          	li	a1,3
    1fc4:	00b52633          	slt	a2,a0,a1
    1fc8:	56c0a423          	sw	a2,1384(ra)

00001fcc <inst_376>:
    1fcc:	66666537          	lui	a0,0x66666
    1fd0:	66750513          	addi	a0,a0,1639 # 66666667 <_end+0x66662b37>
    1fd4:	555555b7          	lui	a1,0x55555
    1fd8:	55558593          	addi	a1,a1,1365 # 55555555 <_end+0x55551a25>
    1fdc:	00b52633          	slt	a2,a0,a1
    1fe0:	56c0a623          	sw	a2,1388(ra)

00001fe4 <inst_377>:
    1fe4:	66666537          	lui	a0,0x66666
    1fe8:	66750513          	addi	a0,a0,1639 # 66666667 <_end+0x66662b37>
    1fec:	aaaab5b7          	lui	a1,0xaaaab
    1ff0:	aaa58593          	addi	a1,a1,-1366 # aaaaaaaa <_end+0xaaaa6f7a>
    1ff4:	00b52633          	slt	a2,a0,a1
    1ff8:	56c0a823          	sw	a2,1392(ra)

00001ffc <inst_378>:
    1ffc:	66666537          	lui	a0,0x66666
    2000:	66750513          	addi	a0,a0,1639 # 66666667 <_end+0x66662b37>
    2004:	00500593          	li	a1,5
    2008:	00b52633          	slt	a2,a0,a1
    200c:	56c0aa23          	sw	a2,1396(ra)

00002010 <inst_379>:
    2010:	66666537          	lui	a0,0x66666
    2014:	66750513          	addi	a0,a0,1639 # 66666667 <_end+0x66662b37>
    2018:	333335b7          	lui	a1,0x33333
    201c:	33358593          	addi	a1,a1,819 # 33333333 <_end+0x3332f803>
    2020:	00b52633          	slt	a2,a0,a1
    2024:	56c0ac23          	sw	a2,1400(ra)

00002028 <inst_380>:
    2028:	66666537          	lui	a0,0x66666
    202c:	66750513          	addi	a0,a0,1639 # 66666667 <_end+0x66662b37>
    2030:	666665b7          	lui	a1,0x66666
    2034:	66658593          	addi	a1,a1,1638 # 66666666 <_end+0x66662b36>
    2038:	00b52633          	slt	a2,a0,a1
    203c:	56c0ae23          	sw	a2,1404(ra)

00002040 <inst_381>:
    2040:	66666537          	lui	a0,0x66666
    2044:	66750513          	addi	a0,a0,1639 # 66666667 <_end+0x66662b37>
    2048:	ffff55b7          	lui	a1,0xffff5
    204c:	afc58593          	addi	a1,a1,-1284 # ffff4afc <_end+0xffff0fcc>
    2050:	00b52633          	slt	a2,a0,a1
    2054:	58c0a023          	sw	a2,1408(ra)

00002058 <inst_382>:
    2058:	66666537          	lui	a0,0x66666
    205c:	66750513          	addi	a0,a0,1639 # 66666667 <_end+0x66662b37>
    2060:	0000b5b7          	lui	a1,0xb
    2064:	50458593          	addi	a1,a1,1284 # b504 <_end+0x79d4>
    2068:	00b52633          	slt	a2,a0,a1
    206c:	58c0a223          	sw	a2,1412(ra)

00002070 <inst_383>:
    2070:	66666537          	lui	a0,0x66666
    2074:	66750513          	addi	a0,a0,1639 # 66666667 <_end+0x66662b37>
    2078:	00200593          	li	a1,2
    207c:	00b52633          	slt	a2,a0,a1
    2080:	58c0a423          	sw	a2,1416(ra)

00002084 <inst_384>:
    2084:	66666537          	lui	a0,0x66666
    2088:	66750513          	addi	a0,a0,1639 # 66666667 <_end+0x66662b37>
    208c:	555555b7          	lui	a1,0x55555
    2090:	55458593          	addi	a1,a1,1364 # 55555554 <_end+0x55551a24>
    2094:	00b52633          	slt	a2,a0,a1
    2098:	58c0a623          	sw	a2,1420(ra)

0000209c <inst_385>:
    209c:	66666537          	lui	a0,0x66666
    20a0:	66750513          	addi	a0,a0,1639 # 66666667 <_end+0x66662b37>
    20a4:	00000593          	li	a1,0
    20a8:	00b52633          	slt	a2,a0,a1
    20ac:	58c0a823          	sw	a2,1424(ra)

000020b0 <inst_386>:
    20b0:	66666537          	lui	a0,0x66666
    20b4:	66750513          	addi	a0,a0,1639 # 66666667 <_end+0x66662b37>
    20b8:	00400593          	li	a1,4
    20bc:	00b52633          	slt	a2,a0,a1
    20c0:	58c0aa23          	sw	a2,1428(ra)

000020c4 <inst_387>:
    20c4:	66666537          	lui	a0,0x66666
    20c8:	66750513          	addi	a0,a0,1639 # 66666667 <_end+0x66662b37>
    20cc:	333335b7          	lui	a1,0x33333
    20d0:	33258593          	addi	a1,a1,818 # 33333332 <_end+0x3332f802>
    20d4:	00b52633          	slt	a2,a0,a1
    20d8:	58c0ac23          	sw	a2,1432(ra)

000020dc <inst_388>:
    20dc:	66666537          	lui	a0,0x66666
    20e0:	66750513          	addi	a0,a0,1639 # 66666667 <_end+0x66662b37>
    20e4:	666665b7          	lui	a1,0x66666
    20e8:	66558593          	addi	a1,a1,1637 # 66666665 <_end+0x66662b35>
    20ec:	00b52633          	slt	a2,a0,a1
    20f0:	58c0ae23          	sw	a2,1436(ra)

000020f4 <inst_389>:
    20f4:	66666537          	lui	a0,0x66666
    20f8:	66750513          	addi	a0,a0,1639 # 66666667 <_end+0x66662b37>
    20fc:	0000b5b7          	lui	a1,0xb
    2100:	50358593          	addi	a1,a1,1283 # b503 <_end+0x79d3>
    2104:	00b52633          	slt	a2,a0,a1
    2108:	5ac0a023          	sw	a2,1440(ra)

0000210c <inst_390>:
    210c:	66666537          	lui	a0,0x66666
    2110:	66750513          	addi	a0,a0,1639 # 66666667 <_end+0x66662b37>
    2114:	555555b7          	lui	a1,0x55555
    2118:	55658593          	addi	a1,a1,1366 # 55555556 <_end+0x55551a26>
    211c:	00b52633          	slt	a2,a0,a1
    2120:	5ac0a223          	sw	a2,1444(ra)

00002124 <inst_391>:
    2124:	66666537          	lui	a0,0x66666
    2128:	66750513          	addi	a0,a0,1639 # 66666667 <_end+0x66662b37>
    212c:	aaaab5b7          	lui	a1,0xaaaab
    2130:	aab58593          	addi	a1,a1,-1365 # aaaaaaab <_end+0xaaaa6f7b>
    2134:	00b52633          	slt	a2,a0,a1
    2138:	5ac0a423          	sw	a2,1448(ra)

0000213c <inst_392>:
    213c:	66666537          	lui	a0,0x66666
    2140:	66750513          	addi	a0,a0,1639 # 66666667 <_end+0x66662b37>
    2144:	00600593          	li	a1,6
    2148:	00b52633          	slt	a2,a0,a1
    214c:	5ac0a623          	sw	a2,1452(ra)

00002150 <inst_393>:
    2150:	66666537          	lui	a0,0x66666
    2154:	66750513          	addi	a0,a0,1639 # 66666667 <_end+0x66662b37>
    2158:	333335b7          	lui	a1,0x33333
    215c:	33458593          	addi	a1,a1,820 # 33333334 <_end+0x3332f804>
    2160:	00b52633          	slt	a2,a0,a1
    2164:	5ac0a823          	sw	a2,1456(ra)

00002168 <inst_394>:
    2168:	66666537          	lui	a0,0x66666
    216c:	66750513          	addi	a0,a0,1639 # 66666667 <_end+0x66662b37>
    2170:	ffff55b7          	lui	a1,0xffff5
    2174:	afd58593          	addi	a1,a1,-1283 # ffff4afd <_end+0xffff0fcd>
    2178:	00b52633          	slt	a2,a0,a1
    217c:	5ac0aa23          	sw	a2,1460(ra)

00002180 <inst_395>:
    2180:	66666537          	lui	a0,0x66666
    2184:	66750513          	addi	a0,a0,1639 # 66666667 <_end+0x66662b37>
    2188:	0000b5b7          	lui	a1,0xb
    218c:	50558593          	addi	a1,a1,1285 # b505 <_end+0x79d5>
    2190:	00b52633          	slt	a2,a0,a1
    2194:	5ac0ac23          	sw	a2,1464(ra)

00002198 <inst_396>:
    2198:	ffff5537          	lui	a0,0xffff5
    219c:	afd50513          	addi	a0,a0,-1283 # ffff4afd <_end+0xffff0fcd>
    21a0:	00300593          	li	a1,3
    21a4:	00b52633          	slt	a2,a0,a1
    21a8:	5ac0ae23          	sw	a2,1468(ra)

000021ac <inst_397>:
    21ac:	ffff5537          	lui	a0,0xffff5
    21b0:	afd50513          	addi	a0,a0,-1283 # ffff4afd <_end+0xffff0fcd>
    21b4:	555555b7          	lui	a1,0x55555
    21b8:	55558593          	addi	a1,a1,1365 # 55555555 <_end+0x55551a25>
    21bc:	00b52633          	slt	a2,a0,a1
    21c0:	5cc0a023          	sw	a2,1472(ra)

000021c4 <inst_398>:
    21c4:	ffff5537          	lui	a0,0xffff5
    21c8:	afd50513          	addi	a0,a0,-1283 # ffff4afd <_end+0xffff0fcd>
    21cc:	aaaab5b7          	lui	a1,0xaaaab
    21d0:	aaa58593          	addi	a1,a1,-1366 # aaaaaaaa <_end+0xaaaa6f7a>
    21d4:	00b52633          	slt	a2,a0,a1
    21d8:	5cc0a223          	sw	a2,1476(ra)

000021dc <inst_399>:
    21dc:	ffff5537          	lui	a0,0xffff5
    21e0:	afd50513          	addi	a0,a0,-1283 # ffff4afd <_end+0xffff0fcd>
    21e4:	00500593          	li	a1,5
    21e8:	00b52633          	slt	a2,a0,a1
    21ec:	5cc0a423          	sw	a2,1480(ra)

000021f0 <inst_400>:
    21f0:	ffff5537          	lui	a0,0xffff5
    21f4:	afd50513          	addi	a0,a0,-1283 # ffff4afd <_end+0xffff0fcd>
    21f8:	333335b7          	lui	a1,0x33333
    21fc:	33358593          	addi	a1,a1,819 # 33333333 <_end+0x3332f803>
    2200:	00b52633          	slt	a2,a0,a1
    2204:	5cc0a623          	sw	a2,1484(ra)

00002208 <inst_401>:
    2208:	ffff5537          	lui	a0,0xffff5
    220c:	afd50513          	addi	a0,a0,-1283 # ffff4afd <_end+0xffff0fcd>
    2210:	666665b7          	lui	a1,0x66666
    2214:	66658593          	addi	a1,a1,1638 # 66666666 <_end+0x66662b36>
    2218:	00b52633          	slt	a2,a0,a1
    221c:	5cc0a823          	sw	a2,1488(ra)

00002220 <inst_402>:
    2220:	ffff5537          	lui	a0,0xffff5
    2224:	afd50513          	addi	a0,a0,-1283 # ffff4afd <_end+0xffff0fcd>
    2228:	ffff55b7          	lui	a1,0xffff5
    222c:	afc58593          	addi	a1,a1,-1284 # ffff4afc <_end+0xffff0fcc>
    2230:	00b52633          	slt	a2,a0,a1
    2234:	5cc0aa23          	sw	a2,1492(ra)

00002238 <inst_403>:
    2238:	ffff5537          	lui	a0,0xffff5
    223c:	afd50513          	addi	a0,a0,-1283 # ffff4afd <_end+0xffff0fcd>
    2240:	0000b5b7          	lui	a1,0xb
    2244:	50458593          	addi	a1,a1,1284 # b504 <_end+0x79d4>
    2248:	00b52633          	slt	a2,a0,a1
    224c:	5cc0ac23          	sw	a2,1496(ra)

00002250 <inst_404>:
    2250:	ffff5537          	lui	a0,0xffff5
    2254:	afd50513          	addi	a0,a0,-1283 # ffff4afd <_end+0xffff0fcd>
    2258:	00200593          	li	a1,2
    225c:	00b52633          	slt	a2,a0,a1
    2260:	5cc0ae23          	sw	a2,1500(ra)

00002264 <inst_405>:
    2264:	ffff5537          	lui	a0,0xffff5
    2268:	afd50513          	addi	a0,a0,-1283 # ffff4afd <_end+0xffff0fcd>
    226c:	555555b7          	lui	a1,0x55555
    2270:	55458593          	addi	a1,a1,1364 # 55555554 <_end+0x55551a24>
    2274:	00b52633          	slt	a2,a0,a1
    2278:	5ec0a023          	sw	a2,1504(ra)

0000227c <inst_406>:
    227c:	ffff5537          	lui	a0,0xffff5
    2280:	afd50513          	addi	a0,a0,-1283 # ffff4afd <_end+0xffff0fcd>
    2284:	00000593          	li	a1,0
    2288:	00b52633          	slt	a2,a0,a1
    228c:	5ec0a223          	sw	a2,1508(ra)

00002290 <inst_407>:
    2290:	ffff5537          	lui	a0,0xffff5
    2294:	afd50513          	addi	a0,a0,-1283 # ffff4afd <_end+0xffff0fcd>
    2298:	00400593          	li	a1,4
    229c:	00b52633          	slt	a2,a0,a1
    22a0:	5ec0a423          	sw	a2,1512(ra)

000022a4 <inst_408>:
    22a4:	ffff5537          	lui	a0,0xffff5
    22a8:	afd50513          	addi	a0,a0,-1283 # ffff4afd <_end+0xffff0fcd>
    22ac:	333335b7          	lui	a1,0x33333
    22b0:	33258593          	addi	a1,a1,818 # 33333332 <_end+0x3332f802>
    22b4:	00b52633          	slt	a2,a0,a1
    22b8:	5ec0a623          	sw	a2,1516(ra)

000022bc <inst_409>:
    22bc:	ffff5537          	lui	a0,0xffff5
    22c0:	afd50513          	addi	a0,a0,-1283 # ffff4afd <_end+0xffff0fcd>
    22c4:	666665b7          	lui	a1,0x66666
    22c8:	66558593          	addi	a1,a1,1637 # 66666665 <_end+0x66662b35>
    22cc:	00b52633          	slt	a2,a0,a1
    22d0:	5ec0a823          	sw	a2,1520(ra)

000022d4 <inst_410>:
    22d4:	ffff5537          	lui	a0,0xffff5
    22d8:	afd50513          	addi	a0,a0,-1283 # ffff4afd <_end+0xffff0fcd>
    22dc:	0000b5b7          	lui	a1,0xb
    22e0:	50358593          	addi	a1,a1,1283 # b503 <_end+0x79d3>
    22e4:	00b52633          	slt	a2,a0,a1
    22e8:	5ec0aa23          	sw	a2,1524(ra)

000022ec <inst_411>:
    22ec:	ffff5537          	lui	a0,0xffff5
    22f0:	afd50513          	addi	a0,a0,-1283 # ffff4afd <_end+0xffff0fcd>
    22f4:	555555b7          	lui	a1,0x55555
    22f8:	55658593          	addi	a1,a1,1366 # 55555556 <_end+0x55551a26>
    22fc:	00b52633          	slt	a2,a0,a1
    2300:	5ec0ac23          	sw	a2,1528(ra)

00002304 <inst_412>:
    2304:	ffff5537          	lui	a0,0xffff5
    2308:	afd50513          	addi	a0,a0,-1283 # ffff4afd <_end+0xffff0fcd>
    230c:	aaaab5b7          	lui	a1,0xaaaab
    2310:	aab58593          	addi	a1,a1,-1365 # aaaaaaab <_end+0xaaaa6f7b>
    2314:	00b52633          	slt	a2,a0,a1
    2318:	5ec0ae23          	sw	a2,1532(ra)

0000231c <inst_413>:
    231c:	ffff5537          	lui	a0,0xffff5
    2320:	afd50513          	addi	a0,a0,-1283 # ffff4afd <_end+0xffff0fcd>
    2324:	00600593          	li	a1,6
    2328:	00b52633          	slt	a2,a0,a1
    232c:	60c0a023          	sw	a2,1536(ra)

00002330 <inst_414>:
    2330:	ffff5537          	lui	a0,0xffff5
    2334:	afd50513          	addi	a0,a0,-1283 # ffff4afd <_end+0xffff0fcd>
    2338:	333335b7          	lui	a1,0x33333
    233c:	33458593          	addi	a1,a1,820 # 33333334 <_end+0x3332f804>
    2340:	00b52633          	slt	a2,a0,a1
    2344:	60c0a223          	sw	a2,1540(ra)

00002348 <inst_415>:
    2348:	ffff5537          	lui	a0,0xffff5
    234c:	afd50513          	addi	a0,a0,-1283 # ffff4afd <_end+0xffff0fcd>
    2350:	666665b7          	lui	a1,0x66666
    2354:	66758593          	addi	a1,a1,1639 # 66666667 <_end+0x66662b37>
    2358:	00b52633          	slt	a2,a0,a1
    235c:	60c0a423          	sw	a2,1544(ra)

00002360 <inst_416>:
    2360:	ffff5537          	lui	a0,0xffff5
    2364:	afd50513          	addi	a0,a0,-1283 # ffff4afd <_end+0xffff0fcd>
    2368:	ffff55b7          	lui	a1,0xffff5
    236c:	afd58593          	addi	a1,a1,-1283 # ffff4afd <_end+0xffff0fcd>
    2370:	00b52633          	slt	a2,a0,a1
    2374:	60c0a623          	sw	a2,1548(ra)

00002378 <inst_417>:
    2378:	ffff5537          	lui	a0,0xffff5
    237c:	afd50513          	addi	a0,a0,-1283 # ffff4afd <_end+0xffff0fcd>
    2380:	0000b5b7          	lui	a1,0xb
    2384:	50558593          	addi	a1,a1,1285 # b505 <_end+0x79d5>
    2388:	00b52633          	slt	a2,a0,a1
    238c:	60c0a823          	sw	a2,1552(ra)

00002390 <inst_418>:
    2390:	0000b537          	lui	a0,0xb
    2394:	50550513          	addi	a0,a0,1285 # b505 <_end+0x79d5>
    2398:	00300593          	li	a1,3
    239c:	00b52633          	slt	a2,a0,a1
    23a0:	60c0aa23          	sw	a2,1556(ra)

000023a4 <inst_419>:
    23a4:	0000b537          	lui	a0,0xb
    23a8:	50550513          	addi	a0,a0,1285 # b505 <_end+0x79d5>
    23ac:	555555b7          	lui	a1,0x55555
    23b0:	55558593          	addi	a1,a1,1365 # 55555555 <_end+0x55551a25>
    23b4:	00b52633          	slt	a2,a0,a1
    23b8:	60c0ac23          	sw	a2,1560(ra)

000023bc <inst_420>:
    23bc:	0000b537          	lui	a0,0xb
    23c0:	50550513          	addi	a0,a0,1285 # b505 <_end+0x79d5>
    23c4:	aaaab5b7          	lui	a1,0xaaaab
    23c8:	aaa58593          	addi	a1,a1,-1366 # aaaaaaaa <_end+0xaaaa6f7a>
    23cc:	00b52633          	slt	a2,a0,a1
    23d0:	60c0ae23          	sw	a2,1564(ra)

000023d4 <inst_421>:
    23d4:	0000b537          	lui	a0,0xb
    23d8:	50550513          	addi	a0,a0,1285 # b505 <_end+0x79d5>
    23dc:	00500593          	li	a1,5
    23e0:	00b52633          	slt	a2,a0,a1
    23e4:	62c0a023          	sw	a2,1568(ra)

000023e8 <inst_422>:
    23e8:	0000b537          	lui	a0,0xb
    23ec:	50550513          	addi	a0,a0,1285 # b505 <_end+0x79d5>
    23f0:	333335b7          	lui	a1,0x33333
    23f4:	33358593          	addi	a1,a1,819 # 33333333 <_end+0x3332f803>
    23f8:	00b52633          	slt	a2,a0,a1
    23fc:	62c0a223          	sw	a2,1572(ra)

00002400 <inst_423>:
    2400:	0000b537          	lui	a0,0xb
    2404:	50550513          	addi	a0,a0,1285 # b505 <_end+0x79d5>
    2408:	666665b7          	lui	a1,0x66666
    240c:	66658593          	addi	a1,a1,1638 # 66666666 <_end+0x66662b36>
    2410:	00b52633          	slt	a2,a0,a1
    2414:	62c0a423          	sw	a2,1576(ra)

00002418 <inst_424>:
    2418:	0000b537          	lui	a0,0xb
    241c:	50550513          	addi	a0,a0,1285 # b505 <_end+0x79d5>
    2420:	ffff55b7          	lui	a1,0xffff5
    2424:	afc58593          	addi	a1,a1,-1284 # ffff4afc <_end+0xffff0fcc>
    2428:	00b52633          	slt	a2,a0,a1
    242c:	62c0a623          	sw	a2,1580(ra)

00002430 <inst_425>:
    2430:	0000b537          	lui	a0,0xb
    2434:	50550513          	addi	a0,a0,1285 # b505 <_end+0x79d5>
    2438:	0000b5b7          	lui	a1,0xb
    243c:	50458593          	addi	a1,a1,1284 # b504 <_end+0x79d4>
    2440:	00b52633          	slt	a2,a0,a1
    2444:	62c0a823          	sw	a2,1584(ra)

00002448 <inst_426>:
    2448:	0000b537          	lui	a0,0xb
    244c:	50550513          	addi	a0,a0,1285 # b505 <_end+0x79d5>
    2450:	00200593          	li	a1,2
    2454:	00b52633          	slt	a2,a0,a1
    2458:	62c0aa23          	sw	a2,1588(ra)

0000245c <inst_427>:
    245c:	0000b537          	lui	a0,0xb
    2460:	50550513          	addi	a0,a0,1285 # b505 <_end+0x79d5>
    2464:	555555b7          	lui	a1,0x55555
    2468:	55458593          	addi	a1,a1,1364 # 55555554 <_end+0x55551a24>
    246c:	00b52633          	slt	a2,a0,a1
    2470:	62c0ac23          	sw	a2,1592(ra)

00002474 <inst_428>:
    2474:	0000b537          	lui	a0,0xb
    2478:	50550513          	addi	a0,a0,1285 # b505 <_end+0x79d5>
    247c:	00000593          	li	a1,0
    2480:	00b52633          	slt	a2,a0,a1
    2484:	62c0ae23          	sw	a2,1596(ra)

00002488 <inst_429>:
    2488:	0000b537          	lui	a0,0xb
    248c:	50550513          	addi	a0,a0,1285 # b505 <_end+0x79d5>
    2490:	00400593          	li	a1,4
    2494:	00b52633          	slt	a2,a0,a1
    2498:	64c0a023          	sw	a2,1600(ra)

0000249c <inst_430>:
    249c:	0000b537          	lui	a0,0xb
    24a0:	50550513          	addi	a0,a0,1285 # b505 <_end+0x79d5>
    24a4:	333335b7          	lui	a1,0x33333
    24a8:	33258593          	addi	a1,a1,818 # 33333332 <_end+0x3332f802>
    24ac:	00b52633          	slt	a2,a0,a1
    24b0:	64c0a223          	sw	a2,1604(ra)

000024b4 <inst_431>:
    24b4:	0000b537          	lui	a0,0xb
    24b8:	50550513          	addi	a0,a0,1285 # b505 <_end+0x79d5>
    24bc:	666665b7          	lui	a1,0x66666
    24c0:	66558593          	addi	a1,a1,1637 # 66666665 <_end+0x66662b35>
    24c4:	00b52633          	slt	a2,a0,a1
    24c8:	64c0a423          	sw	a2,1608(ra)

000024cc <inst_432>:
    24cc:	0000b537          	lui	a0,0xb
    24d0:	50550513          	addi	a0,a0,1285 # b505 <_end+0x79d5>
    24d4:	0000b5b7          	lui	a1,0xb
    24d8:	50358593          	addi	a1,a1,1283 # b503 <_end+0x79d3>
    24dc:	00b52633          	slt	a2,a0,a1
    24e0:	64c0a623          	sw	a2,1612(ra)

000024e4 <inst_433>:
    24e4:	0000b537          	lui	a0,0xb
    24e8:	50550513          	addi	a0,a0,1285 # b505 <_end+0x79d5>
    24ec:	555555b7          	lui	a1,0x55555
    24f0:	55658593          	addi	a1,a1,1366 # 55555556 <_end+0x55551a26>
    24f4:	00b52633          	slt	a2,a0,a1
    24f8:	64c0a823          	sw	a2,1616(ra)

000024fc <inst_434>:
    24fc:	0000b537          	lui	a0,0xb
    2500:	50550513          	addi	a0,a0,1285 # b505 <_end+0x79d5>
    2504:	aaaab5b7          	lui	a1,0xaaaab
    2508:	aab58593          	addi	a1,a1,-1365 # aaaaaaab <_end+0xaaaa6f7b>
    250c:	00b52633          	slt	a2,a0,a1
    2510:	64c0aa23          	sw	a2,1620(ra)

00002514 <inst_435>:
    2514:	0000b537          	lui	a0,0xb
    2518:	50550513          	addi	a0,a0,1285 # b505 <_end+0x79d5>
    251c:	00600593          	li	a1,6
    2520:	00b52633          	slt	a2,a0,a1
    2524:	64c0ac23          	sw	a2,1624(ra)

00002528 <inst_436>:
    2528:	0000b537          	lui	a0,0xb
    252c:	50550513          	addi	a0,a0,1285 # b505 <_end+0x79d5>
    2530:	333335b7          	lui	a1,0x33333
    2534:	33458593          	addi	a1,a1,820 # 33333334 <_end+0x3332f804>
    2538:	00b52633          	slt	a2,a0,a1
    253c:	64c0ae23          	sw	a2,1628(ra)

00002540 <inst_437>:
    2540:	0000b537          	lui	a0,0xb
    2544:	50550513          	addi	a0,a0,1285 # b505 <_end+0x79d5>
    2548:	666665b7          	lui	a1,0x66666
    254c:	66758593          	addi	a1,a1,1639 # 66666667 <_end+0x66662b37>
    2550:	00b52633          	slt	a2,a0,a1
    2554:	66c0a023          	sw	a2,1632(ra)

00002558 <inst_438>:
    2558:	0000b537          	lui	a0,0xb
    255c:	50550513          	addi	a0,a0,1285 # b505 <_end+0x79d5>
    2560:	ffff55b7          	lui	a1,0xffff5
    2564:	afd58593          	addi	a1,a1,-1283 # ffff4afd <_end+0xffff0fcd>
    2568:	00b52633          	slt	a2,a0,a1
    256c:	66c0a223          	sw	a2,1636(ra)

00002570 <inst_439>:
    2570:	0000b537          	lui	a0,0xb
    2574:	50550513          	addi	a0,a0,1285 # b505 <_end+0x79d5>
    2578:	0000b5b7          	lui	a1,0xb
    257c:	50558593          	addi	a1,a1,1285 # b505 <_end+0x79d5>
    2580:	00b52633          	slt	a2,a0,a1
    2584:	66c0a423          	sw	a2,1640(ra)

00002588 <inst_440>:
    2588:	00000513          	li	a0,0
    258c:	00200593          	li	a1,2
    2590:	00b52633          	slt	a2,a0,a1
    2594:	66c0a623          	sw	a2,1644(ra)

00002598 <inst_441>:
    2598:	00000513          	li	a0,0
    259c:	555555b7          	lui	a1,0x55555
    25a0:	55458593          	addi	a1,a1,1364 # 55555554 <_end+0x55551a24>
    25a4:	00b52633          	slt	a2,a0,a1
    25a8:	66c0a823          	sw	a2,1648(ra)

000025ac <inst_442>:
    25ac:	00000513          	li	a0,0
    25b0:	00000593          	li	a1,0
    25b4:	00b52633          	slt	a2,a0,a1
    25b8:	66c0aa23          	sw	a2,1652(ra)

000025bc <inst_443>:
    25bc:	00000513          	li	a0,0
    25c0:	00400593          	li	a1,4
    25c4:	00b52633          	slt	a2,a0,a1
    25c8:	66c0ac23          	sw	a2,1656(ra)

000025cc <inst_444>:
    25cc:	00000513          	li	a0,0
    25d0:	333335b7          	lui	a1,0x33333
    25d4:	33258593          	addi	a1,a1,818 # 33333332 <_end+0x3332f802>
    25d8:	00b52633          	slt	a2,a0,a1
    25dc:	66c0ae23          	sw	a2,1660(ra)

000025e0 <inst_445>:
    25e0:	00000513          	li	a0,0
    25e4:	666665b7          	lui	a1,0x66666
    25e8:	66558593          	addi	a1,a1,1637 # 66666665 <_end+0x66662b35>
    25ec:	00b52633          	slt	a2,a0,a1
    25f0:	68c0a023          	sw	a2,1664(ra)

000025f4 <inst_446>:
    25f4:	00000513          	li	a0,0
    25f8:	0000b5b7          	lui	a1,0xb
    25fc:	50358593          	addi	a1,a1,1283 # b503 <_end+0x79d3>
    2600:	00b52633          	slt	a2,a0,a1
    2604:	68c0a223          	sw	a2,1668(ra)

00002608 <inst_447>:
    2608:	00000513          	li	a0,0
    260c:	555555b7          	lui	a1,0x55555
    2610:	55658593          	addi	a1,a1,1366 # 55555556 <_end+0x55551a26>
    2614:	00b52633          	slt	a2,a0,a1
    2618:	68c0a423          	sw	a2,1672(ra)

0000261c <inst_448>:
    261c:	00000513          	li	a0,0
    2620:	aaaab5b7          	lui	a1,0xaaaab
    2624:	aab58593          	addi	a1,a1,-1365 # aaaaaaab <_end+0xaaaa6f7b>
    2628:	00b52633          	slt	a2,a0,a1
    262c:	68c0a623          	sw	a2,1676(ra)

00002630 <inst_449>:
    2630:	00000513          	li	a0,0
    2634:	00600593          	li	a1,6
    2638:	00b52633          	slt	a2,a0,a1
    263c:	68c0a823          	sw	a2,1680(ra)

00002640 <inst_450>:
    2640:	00000513          	li	a0,0
    2644:	333335b7          	lui	a1,0x33333
    2648:	33458593          	addi	a1,a1,820 # 33333334 <_end+0x3332f804>
    264c:	00b52633          	slt	a2,a0,a1
    2650:	68c0aa23          	sw	a2,1684(ra)

00002654 <inst_451>:
    2654:	00000513          	li	a0,0
    2658:	666665b7          	lui	a1,0x66666
    265c:	66758593          	addi	a1,a1,1639 # 66666667 <_end+0x66662b37>
    2660:	00b52633          	slt	a2,a0,a1
    2664:	68c0ac23          	sw	a2,1688(ra)

00002668 <inst_452>:
    2668:	00000513          	li	a0,0
    266c:	ffff55b7          	lui	a1,0xffff5
    2670:	afd58593          	addi	a1,a1,-1283 # ffff4afd <_end+0xffff0fcd>
    2674:	00b52633          	slt	a2,a0,a1
    2678:	68c0ae23          	sw	a2,1692(ra)

0000267c <inst_453>:
    267c:	00000513          	li	a0,0
    2680:	0000b5b7          	lui	a1,0xb
    2684:	50558593          	addi	a1,a1,1285 # b505 <_end+0x79d5>
    2688:	00b52633          	slt	a2,a0,a1
    268c:	6ac0a023          	sw	a2,1696(ra)

00002690 <inst_454>:
    2690:	00400513          	li	a0,4
    2694:	00300593          	li	a1,3
    2698:	00b52633          	slt	a2,a0,a1
    269c:	6ac0a223          	sw	a2,1700(ra)

000026a0 <inst_455>:
    26a0:	00400513          	li	a0,4
    26a4:	555555b7          	lui	a1,0x55555
    26a8:	55558593          	addi	a1,a1,1365 # 55555555 <_end+0x55551a25>
    26ac:	00b52633          	slt	a2,a0,a1
    26b0:	6ac0a423          	sw	a2,1704(ra)

000026b4 <inst_456>:
    26b4:	00400513          	li	a0,4
    26b8:	aaaab5b7          	lui	a1,0xaaaab
    26bc:	aaa58593          	addi	a1,a1,-1366 # aaaaaaaa <_end+0xaaaa6f7a>
    26c0:	00b52633          	slt	a2,a0,a1
    26c4:	6ac0a623          	sw	a2,1708(ra)

000026c8 <inst_457>:
    26c8:	00400513          	li	a0,4
    26cc:	00500593          	li	a1,5
    26d0:	00b52633          	slt	a2,a0,a1
    26d4:	6ac0a823          	sw	a2,1712(ra)

000026d8 <inst_458>:
    26d8:	00400513          	li	a0,4
    26dc:	333335b7          	lui	a1,0x33333
    26e0:	33358593          	addi	a1,a1,819 # 33333333 <_end+0x3332f803>
    26e4:	00b52633          	slt	a2,a0,a1
    26e8:	6ac0aa23          	sw	a2,1716(ra)

000026ec <inst_459>:
    26ec:	00400513          	li	a0,4
    26f0:	666665b7          	lui	a1,0x66666
    26f4:	66658593          	addi	a1,a1,1638 # 66666666 <_end+0x66662b36>
    26f8:	00b52633          	slt	a2,a0,a1
    26fc:	6ac0ac23          	sw	a2,1720(ra)

00002700 <inst_460>:
    2700:	00400513          	li	a0,4
    2704:	ffff55b7          	lui	a1,0xffff5
    2708:	afc58593          	addi	a1,a1,-1284 # ffff4afc <_end+0xffff0fcc>
    270c:	00b52633          	slt	a2,a0,a1
    2710:	6ac0ae23          	sw	a2,1724(ra)

00002714 <inst_461>:
    2714:	00400513          	li	a0,4
    2718:	0000b5b7          	lui	a1,0xb
    271c:	50458593          	addi	a1,a1,1284 # b504 <_end+0x79d4>
    2720:	00b52633          	slt	a2,a0,a1
    2724:	6cc0a023          	sw	a2,1728(ra)

00002728 <inst_462>:
    2728:	00400513          	li	a0,4
    272c:	00200593          	li	a1,2
    2730:	00b52633          	slt	a2,a0,a1
    2734:	6cc0a223          	sw	a2,1732(ra)

00002738 <inst_463>:
    2738:	00400513          	li	a0,4
    273c:	555555b7          	lui	a1,0x55555
    2740:	55458593          	addi	a1,a1,1364 # 55555554 <_end+0x55551a24>
    2744:	00b52633          	slt	a2,a0,a1
    2748:	6cc0a423          	sw	a2,1736(ra)

0000274c <inst_464>:
    274c:	00400513          	li	a0,4
    2750:	00000593          	li	a1,0
    2754:	00b52633          	slt	a2,a0,a1
    2758:	6cc0a623          	sw	a2,1740(ra)

0000275c <inst_465>:
    275c:	00400513          	li	a0,4
    2760:	00400593          	li	a1,4
    2764:	00b52633          	slt	a2,a0,a1
    2768:	6cc0a823          	sw	a2,1744(ra)

0000276c <inst_466>:
    276c:	00400513          	li	a0,4
    2770:	333335b7          	lui	a1,0x33333
    2774:	33258593          	addi	a1,a1,818 # 33333332 <_end+0x3332f802>
    2778:	00b52633          	slt	a2,a0,a1
    277c:	6cc0aa23          	sw	a2,1748(ra)

00002780 <inst_467>:
    2780:	00400513          	li	a0,4
    2784:	666665b7          	lui	a1,0x66666
    2788:	66558593          	addi	a1,a1,1637 # 66666665 <_end+0x66662b35>
    278c:	00b52633          	slt	a2,a0,a1
    2790:	6cc0ac23          	sw	a2,1752(ra)

00002794 <inst_468>:
    2794:	00400513          	li	a0,4
    2798:	0000b5b7          	lui	a1,0xb
    279c:	50358593          	addi	a1,a1,1283 # b503 <_end+0x79d3>
    27a0:	00b52633          	slt	a2,a0,a1
    27a4:	6cc0ae23          	sw	a2,1756(ra)

000027a8 <inst_469>:
    27a8:	00400513          	li	a0,4
    27ac:	555555b7          	lui	a1,0x55555
    27b0:	55658593          	addi	a1,a1,1366 # 55555556 <_end+0x55551a26>
    27b4:	00b52633          	slt	a2,a0,a1
    27b8:	6ec0a023          	sw	a2,1760(ra)

000027bc <inst_470>:
    27bc:	00400513          	li	a0,4
    27c0:	aaaab5b7          	lui	a1,0xaaaab
    27c4:	aab58593          	addi	a1,a1,-1365 # aaaaaaab <_end+0xaaaa6f7b>
    27c8:	00b52633          	slt	a2,a0,a1
    27cc:	6ec0a223          	sw	a2,1764(ra)

000027d0 <inst_471>:
    27d0:	00400513          	li	a0,4
    27d4:	00600593          	li	a1,6
    27d8:	00b52633          	slt	a2,a0,a1
    27dc:	6ec0a423          	sw	a2,1768(ra)

000027e0 <inst_472>:
    27e0:	00400513          	li	a0,4
    27e4:	333335b7          	lui	a1,0x33333
    27e8:	33458593          	addi	a1,a1,820 # 33333334 <_end+0x3332f804>
    27ec:	00b52633          	slt	a2,a0,a1
    27f0:	6ec0a623          	sw	a2,1772(ra)

000027f4 <inst_473>:
    27f4:	00400513          	li	a0,4
    27f8:	666665b7          	lui	a1,0x66666
    27fc:	66758593          	addi	a1,a1,1639 # 66666667 <_end+0x66662b37>
    2800:	00b52633          	slt	a2,a0,a1
    2804:	6ec0a823          	sw	a2,1776(ra)

00002808 <inst_474>:
    2808:	00400513          	li	a0,4
    280c:	ffff55b7          	lui	a1,0xffff5
    2810:	afd58593          	addi	a1,a1,-1283 # ffff4afd <_end+0xffff0fcd>
    2814:	00b52633          	slt	a2,a0,a1
    2818:	6ec0aa23          	sw	a2,1780(ra)

0000281c <inst_475>:
    281c:	00400513          	li	a0,4
    2820:	0000b5b7          	lui	a1,0xb
    2824:	50558593          	addi	a1,a1,1285 # b505 <_end+0x79d5>
    2828:	00b52633          	slt	a2,a0,a1
    282c:	6ec0ac23          	sw	a2,1784(ra)

00002830 <inst_476>:
    2830:	33333537          	lui	a0,0x33333
    2834:	33250513          	addi	a0,a0,818 # 33333332 <_end+0x3332f802>
    2838:	00300593          	li	a1,3
    283c:	00b52633          	slt	a2,a0,a1
    2840:	6ec0ae23          	sw	a2,1788(ra)

00002844 <inst_477>:
    2844:	33333537          	lui	a0,0x33333
    2848:	33250513          	addi	a0,a0,818 # 33333332 <_end+0x3332f802>
    284c:	555555b7          	lui	a1,0x55555
    2850:	55558593          	addi	a1,a1,1365 # 55555555 <_end+0x55551a25>
    2854:	00b52633          	slt	a2,a0,a1
    2858:	70c0a023          	sw	a2,1792(ra)

0000285c <inst_478>:
    285c:	33333537          	lui	a0,0x33333
    2860:	33250513          	addi	a0,a0,818 # 33333332 <_end+0x3332f802>
    2864:	aaaab5b7          	lui	a1,0xaaaab
    2868:	aaa58593          	addi	a1,a1,-1366 # aaaaaaaa <_end+0xaaaa6f7a>
    286c:	00b52633          	slt	a2,a0,a1
    2870:	70c0a223          	sw	a2,1796(ra)

00002874 <inst_479>:
    2874:	33333537          	lui	a0,0x33333
    2878:	33250513          	addi	a0,a0,818 # 33333332 <_end+0x3332f802>
    287c:	00500593          	li	a1,5
    2880:	00b52633          	slt	a2,a0,a1
    2884:	70c0a423          	sw	a2,1800(ra)

00002888 <inst_480>:
    2888:	33333537          	lui	a0,0x33333
    288c:	33250513          	addi	a0,a0,818 # 33333332 <_end+0x3332f802>
    2890:	333335b7          	lui	a1,0x33333
    2894:	33358593          	addi	a1,a1,819 # 33333333 <_end+0x3332f803>
    2898:	00b52633          	slt	a2,a0,a1
    289c:	70c0a623          	sw	a2,1804(ra)

000028a0 <inst_481>:
    28a0:	33333537          	lui	a0,0x33333
    28a4:	33250513          	addi	a0,a0,818 # 33333332 <_end+0x3332f802>
    28a8:	666665b7          	lui	a1,0x66666
    28ac:	66658593          	addi	a1,a1,1638 # 66666666 <_end+0x66662b36>
    28b0:	00b52633          	slt	a2,a0,a1
    28b4:	70c0a823          	sw	a2,1808(ra)

000028b8 <inst_482>:
    28b8:	33333537          	lui	a0,0x33333
    28bc:	33250513          	addi	a0,a0,818 # 33333332 <_end+0x3332f802>
    28c0:	ffff55b7          	lui	a1,0xffff5
    28c4:	afc58593          	addi	a1,a1,-1284 # ffff4afc <_end+0xffff0fcc>
    28c8:	00b52633          	slt	a2,a0,a1
    28cc:	70c0aa23          	sw	a2,1812(ra)

000028d0 <inst_483>:
    28d0:	33333537          	lui	a0,0x33333
    28d4:	33250513          	addi	a0,a0,818 # 33333332 <_end+0x3332f802>
    28d8:	0000b5b7          	lui	a1,0xb
    28dc:	50458593          	addi	a1,a1,1284 # b504 <_end+0x79d4>
    28e0:	00b52633          	slt	a2,a0,a1
    28e4:	70c0ac23          	sw	a2,1816(ra)

000028e8 <inst_484>:
    28e8:	33333537          	lui	a0,0x33333
    28ec:	33250513          	addi	a0,a0,818 # 33333332 <_end+0x3332f802>
    28f0:	00200593          	li	a1,2
    28f4:	00b52633          	slt	a2,a0,a1
    28f8:	70c0ae23          	sw	a2,1820(ra)

000028fc <inst_485>:
    28fc:	33333537          	lui	a0,0x33333
    2900:	33250513          	addi	a0,a0,818 # 33333332 <_end+0x3332f802>
    2904:	555555b7          	lui	a1,0x55555
    2908:	55458593          	addi	a1,a1,1364 # 55555554 <_end+0x55551a24>
    290c:	00b52633          	slt	a2,a0,a1
    2910:	72c0a023          	sw	a2,1824(ra)

00002914 <inst_486>:
    2914:	33333537          	lui	a0,0x33333
    2918:	33250513          	addi	a0,a0,818 # 33333332 <_end+0x3332f802>
    291c:	00000593          	li	a1,0
    2920:	00b52633          	slt	a2,a0,a1
    2924:	72c0a223          	sw	a2,1828(ra)

00002928 <inst_487>:
    2928:	33333537          	lui	a0,0x33333
    292c:	33250513          	addi	a0,a0,818 # 33333332 <_end+0x3332f802>
    2930:	00400593          	li	a1,4
    2934:	00b52633          	slt	a2,a0,a1
    2938:	72c0a423          	sw	a2,1832(ra)

0000293c <inst_488>:
    293c:	33333537          	lui	a0,0x33333
    2940:	33250513          	addi	a0,a0,818 # 33333332 <_end+0x3332f802>
    2944:	333335b7          	lui	a1,0x33333
    2948:	33258593          	addi	a1,a1,818 # 33333332 <_end+0x3332f802>
    294c:	00b52633          	slt	a2,a0,a1
    2950:	72c0a623          	sw	a2,1836(ra)

00002954 <inst_489>:
    2954:	33333537          	lui	a0,0x33333
    2958:	33250513          	addi	a0,a0,818 # 33333332 <_end+0x3332f802>
    295c:	666665b7          	lui	a1,0x66666
    2960:	66558593          	addi	a1,a1,1637 # 66666665 <_end+0x66662b35>
    2964:	00b52633          	slt	a2,a0,a1
    2968:	72c0a823          	sw	a2,1840(ra)

0000296c <inst_490>:
    296c:	33333537          	lui	a0,0x33333
    2970:	33250513          	addi	a0,a0,818 # 33333332 <_end+0x3332f802>
    2974:	0000b5b7          	lui	a1,0xb
    2978:	50358593          	addi	a1,a1,1283 # b503 <_end+0x79d3>
    297c:	00b52633          	slt	a2,a0,a1
    2980:	72c0aa23          	sw	a2,1844(ra)

00002984 <inst_491>:
    2984:	33333537          	lui	a0,0x33333
    2988:	33250513          	addi	a0,a0,818 # 33333332 <_end+0x3332f802>
    298c:	555555b7          	lui	a1,0x55555
    2990:	55658593          	addi	a1,a1,1366 # 55555556 <_end+0x55551a26>
    2994:	00b52633          	slt	a2,a0,a1
    2998:	72c0ac23          	sw	a2,1848(ra)

0000299c <inst_492>:
    299c:	33333537          	lui	a0,0x33333
    29a0:	33250513          	addi	a0,a0,818 # 33333332 <_end+0x3332f802>
    29a4:	aaaab5b7          	lui	a1,0xaaaab
    29a8:	aab58593          	addi	a1,a1,-1365 # aaaaaaab <_end+0xaaaa6f7b>
    29ac:	00b52633          	slt	a2,a0,a1
    29b0:	72c0ae23          	sw	a2,1852(ra)

000029b4 <inst_493>:
    29b4:	33333537          	lui	a0,0x33333
    29b8:	33250513          	addi	a0,a0,818 # 33333332 <_end+0x3332f802>
    29bc:	00600593          	li	a1,6
    29c0:	00b52633          	slt	a2,a0,a1
    29c4:	74c0a023          	sw	a2,1856(ra)

000029c8 <inst_494>:
    29c8:	33333537          	lui	a0,0x33333
    29cc:	33250513          	addi	a0,a0,818 # 33333332 <_end+0x3332f802>
    29d0:	333335b7          	lui	a1,0x33333
    29d4:	33458593          	addi	a1,a1,820 # 33333334 <_end+0x3332f804>
    29d8:	00b52633          	slt	a2,a0,a1
    29dc:	74c0a223          	sw	a2,1860(ra)

000029e0 <inst_495>:
    29e0:	33333537          	lui	a0,0x33333
    29e4:	33250513          	addi	a0,a0,818 # 33333332 <_end+0x3332f802>
    29e8:	666665b7          	lui	a1,0x66666
    29ec:	66758593          	addi	a1,a1,1639 # 66666667 <_end+0x66662b37>
    29f0:	00b52633          	slt	a2,a0,a1
    29f4:	74c0a423          	sw	a2,1864(ra)

000029f8 <inst_496>:
    29f8:	33333537          	lui	a0,0x33333
    29fc:	33250513          	addi	a0,a0,818 # 33333332 <_end+0x3332f802>
    2a00:	ffff55b7          	lui	a1,0xffff5
    2a04:	afd58593          	addi	a1,a1,-1283 # ffff4afd <_end+0xffff0fcd>
    2a08:	00b52633          	slt	a2,a0,a1
    2a0c:	74c0a623          	sw	a2,1868(ra)

00002a10 <inst_497>:
    2a10:	33333537          	lui	a0,0x33333
    2a14:	33250513          	addi	a0,a0,818 # 33333332 <_end+0x3332f802>
    2a18:	0000b5b7          	lui	a1,0xb
    2a1c:	50558593          	addi	a1,a1,1285 # b505 <_end+0x79d5>
    2a20:	00b52633          	slt	a2,a0,a1
    2a24:	74c0a823          	sw	a2,1872(ra)

00002a28 <inst_498>:
    2a28:	66666537          	lui	a0,0x66666
    2a2c:	66550513          	addi	a0,a0,1637 # 66666665 <_end+0x66662b35>
    2a30:	00300593          	li	a1,3
    2a34:	00b52633          	slt	a2,a0,a1
    2a38:	74c0aa23          	sw	a2,1876(ra)

00002a3c <inst_499>:
    2a3c:	66666537          	lui	a0,0x66666
    2a40:	66550513          	addi	a0,a0,1637 # 66666665 <_end+0x66662b35>
    2a44:	555555b7          	lui	a1,0x55555
    2a48:	55558593          	addi	a1,a1,1365 # 55555555 <_end+0x55551a25>
    2a4c:	00b52633          	slt	a2,a0,a1
    2a50:	74c0ac23          	sw	a2,1880(ra)

00002a54 <inst_500>:
    2a54:	66666537          	lui	a0,0x66666
    2a58:	66550513          	addi	a0,a0,1637 # 66666665 <_end+0x66662b35>
    2a5c:	aaaab5b7          	lui	a1,0xaaaab
    2a60:	aaa58593          	addi	a1,a1,-1366 # aaaaaaaa <_end+0xaaaa6f7a>
    2a64:	00b52633          	slt	a2,a0,a1
    2a68:	74c0ae23          	sw	a2,1884(ra)

00002a6c <inst_501>:
    2a6c:	66666537          	lui	a0,0x66666
    2a70:	66550513          	addi	a0,a0,1637 # 66666665 <_end+0x66662b35>
    2a74:	00500593          	li	a1,5
    2a78:	00b52633          	slt	a2,a0,a1
    2a7c:	76c0a023          	sw	a2,1888(ra)

00002a80 <inst_502>:
    2a80:	66666537          	lui	a0,0x66666
    2a84:	66550513          	addi	a0,a0,1637 # 66666665 <_end+0x66662b35>
    2a88:	333335b7          	lui	a1,0x33333
    2a8c:	33358593          	addi	a1,a1,819 # 33333333 <_end+0x3332f803>
    2a90:	00b52633          	slt	a2,a0,a1
    2a94:	76c0a223          	sw	a2,1892(ra)

00002a98 <inst_503>:
    2a98:	66666537          	lui	a0,0x66666
    2a9c:	66550513          	addi	a0,a0,1637 # 66666665 <_end+0x66662b35>
    2aa0:	666665b7          	lui	a1,0x66666
    2aa4:	66658593          	addi	a1,a1,1638 # 66666666 <_end+0x66662b36>
    2aa8:	00b52633          	slt	a2,a0,a1
    2aac:	76c0a423          	sw	a2,1896(ra)

00002ab0 <inst_504>:
    2ab0:	66666537          	lui	a0,0x66666
    2ab4:	66550513          	addi	a0,a0,1637 # 66666665 <_end+0x66662b35>
    2ab8:	ffff55b7          	lui	a1,0xffff5
    2abc:	afc58593          	addi	a1,a1,-1284 # ffff4afc <_end+0xffff0fcc>
    2ac0:	00b52633          	slt	a2,a0,a1
    2ac4:	76c0a623          	sw	a2,1900(ra)

00002ac8 <inst_505>:
    2ac8:	66666537          	lui	a0,0x66666
    2acc:	66550513          	addi	a0,a0,1637 # 66666665 <_end+0x66662b35>
    2ad0:	0000b5b7          	lui	a1,0xb
    2ad4:	50458593          	addi	a1,a1,1284 # b504 <_end+0x79d4>
    2ad8:	00b52633          	slt	a2,a0,a1
    2adc:	76c0a823          	sw	a2,1904(ra)

00002ae0 <inst_506>:
    2ae0:	66666537          	lui	a0,0x66666
    2ae4:	66550513          	addi	a0,a0,1637 # 66666665 <_end+0x66662b35>
    2ae8:	00200593          	li	a1,2
    2aec:	00b52633          	slt	a2,a0,a1
    2af0:	76c0aa23          	sw	a2,1908(ra)

00002af4 <inst_507>:
    2af4:	66666537          	lui	a0,0x66666
    2af8:	66550513          	addi	a0,a0,1637 # 66666665 <_end+0x66662b35>
    2afc:	555555b7          	lui	a1,0x55555
    2b00:	55458593          	addi	a1,a1,1364 # 55555554 <_end+0x55551a24>
    2b04:	00b52633          	slt	a2,a0,a1
    2b08:	76c0ac23          	sw	a2,1912(ra)

00002b0c <inst_508>:
    2b0c:	66666537          	lui	a0,0x66666
    2b10:	66550513          	addi	a0,a0,1637 # 66666665 <_end+0x66662b35>
    2b14:	00000593          	li	a1,0
    2b18:	00b52633          	slt	a2,a0,a1
    2b1c:	76c0ae23          	sw	a2,1916(ra)

00002b20 <inst_509>:
    2b20:	66666537          	lui	a0,0x66666
    2b24:	66550513          	addi	a0,a0,1637 # 66666665 <_end+0x66662b35>
    2b28:	00400593          	li	a1,4
    2b2c:	00b52633          	slt	a2,a0,a1
    2b30:	78c0a023          	sw	a2,1920(ra)

00002b34 <inst_510>:
    2b34:	66666537          	lui	a0,0x66666
    2b38:	66550513          	addi	a0,a0,1637 # 66666665 <_end+0x66662b35>
    2b3c:	333335b7          	lui	a1,0x33333
    2b40:	33258593          	addi	a1,a1,818 # 33333332 <_end+0x3332f802>
    2b44:	00b52633          	slt	a2,a0,a1
    2b48:	78c0a223          	sw	a2,1924(ra)

00002b4c <inst_511>:
    2b4c:	66666537          	lui	a0,0x66666
    2b50:	66550513          	addi	a0,a0,1637 # 66666665 <_end+0x66662b35>
    2b54:	666665b7          	lui	a1,0x66666
    2b58:	66558593          	addi	a1,a1,1637 # 66666665 <_end+0x66662b35>
    2b5c:	00b52633          	slt	a2,a0,a1
    2b60:	78c0a423          	sw	a2,1928(ra)

00002b64 <inst_512>:
    2b64:	66666537          	lui	a0,0x66666
    2b68:	66550513          	addi	a0,a0,1637 # 66666665 <_end+0x66662b35>
    2b6c:	0000b5b7          	lui	a1,0xb
    2b70:	50358593          	addi	a1,a1,1283 # b503 <_end+0x79d3>
    2b74:	00b52633          	slt	a2,a0,a1
    2b78:	78c0a623          	sw	a2,1932(ra)

00002b7c <inst_513>:
    2b7c:	66666537          	lui	a0,0x66666
    2b80:	66550513          	addi	a0,a0,1637 # 66666665 <_end+0x66662b35>
    2b84:	555555b7          	lui	a1,0x55555
    2b88:	55658593          	addi	a1,a1,1366 # 55555556 <_end+0x55551a26>
    2b8c:	00b52633          	slt	a2,a0,a1
    2b90:	78c0a823          	sw	a2,1936(ra)

00002b94 <inst_514>:
    2b94:	66666537          	lui	a0,0x66666
    2b98:	66550513          	addi	a0,a0,1637 # 66666665 <_end+0x66662b35>
    2b9c:	aaaab5b7          	lui	a1,0xaaaab
    2ba0:	aab58593          	addi	a1,a1,-1365 # aaaaaaab <_end+0xaaaa6f7b>
    2ba4:	00b52633          	slt	a2,a0,a1
    2ba8:	78c0aa23          	sw	a2,1940(ra)

00002bac <inst_515>:
    2bac:	66666537          	lui	a0,0x66666
    2bb0:	66550513          	addi	a0,a0,1637 # 66666665 <_end+0x66662b35>
    2bb4:	00600593          	li	a1,6
    2bb8:	00b52633          	slt	a2,a0,a1
    2bbc:	78c0ac23          	sw	a2,1944(ra)

00002bc0 <inst_516>:
    2bc0:	66666537          	lui	a0,0x66666
    2bc4:	66550513          	addi	a0,a0,1637 # 66666665 <_end+0x66662b35>
    2bc8:	333335b7          	lui	a1,0x33333
    2bcc:	33458593          	addi	a1,a1,820 # 33333334 <_end+0x3332f804>
    2bd0:	00b52633          	slt	a2,a0,a1
    2bd4:	78c0ae23          	sw	a2,1948(ra)

00002bd8 <inst_517>:
    2bd8:	66666537          	lui	a0,0x66666
    2bdc:	66550513          	addi	a0,a0,1637 # 66666665 <_end+0x66662b35>
    2be0:	666665b7          	lui	a1,0x66666
    2be4:	66758593          	addi	a1,a1,1639 # 66666667 <_end+0x66662b37>
    2be8:	00b52633          	slt	a2,a0,a1
    2bec:	7ac0a023          	sw	a2,1952(ra)

00002bf0 <inst_518>:
    2bf0:	66666537          	lui	a0,0x66666
    2bf4:	66550513          	addi	a0,a0,1637 # 66666665 <_end+0x66662b35>
    2bf8:	ffff55b7          	lui	a1,0xffff5
    2bfc:	afd58593          	addi	a1,a1,-1283 # ffff4afd <_end+0xffff0fcd>
    2c00:	00b52633          	slt	a2,a0,a1
    2c04:	7ac0a223          	sw	a2,1956(ra)

00002c08 <inst_519>:
    2c08:	66666537          	lui	a0,0x66666
    2c0c:	66550513          	addi	a0,a0,1637 # 66666665 <_end+0x66662b35>
    2c10:	0000b5b7          	lui	a1,0xb
    2c14:	50558593          	addi	a1,a1,1285 # b505 <_end+0x79d5>
    2c18:	00b52633          	slt	a2,a0,a1
    2c1c:	7ac0a423          	sw	a2,1960(ra)

00002c20 <inst_520>:
    2c20:	0000b537          	lui	a0,0xb
    2c24:	50350513          	addi	a0,a0,1283 # b503 <_end+0x79d3>
    2c28:	00300593          	li	a1,3
    2c2c:	00b52633          	slt	a2,a0,a1
    2c30:	7ac0a623          	sw	a2,1964(ra)

00002c34 <inst_521>:
    2c34:	0000b537          	lui	a0,0xb
    2c38:	50350513          	addi	a0,a0,1283 # b503 <_end+0x79d3>
    2c3c:	555555b7          	lui	a1,0x55555
    2c40:	55558593          	addi	a1,a1,1365 # 55555555 <_end+0x55551a25>
    2c44:	00b52633          	slt	a2,a0,a1
    2c48:	7ac0a823          	sw	a2,1968(ra)

00002c4c <inst_522>:
    2c4c:	0000b537          	lui	a0,0xb
    2c50:	50350513          	addi	a0,a0,1283 # b503 <_end+0x79d3>
    2c54:	aaaab5b7          	lui	a1,0xaaaab
    2c58:	aaa58593          	addi	a1,a1,-1366 # aaaaaaaa <_end+0xaaaa6f7a>
    2c5c:	00b52633          	slt	a2,a0,a1
    2c60:	7ac0aa23          	sw	a2,1972(ra)

00002c64 <inst_523>:
    2c64:	0000b537          	lui	a0,0xb
    2c68:	50350513          	addi	a0,a0,1283 # b503 <_end+0x79d3>
    2c6c:	00500593          	li	a1,5
    2c70:	00b52633          	slt	a2,a0,a1
    2c74:	7ac0ac23          	sw	a2,1976(ra)

00002c78 <inst_524>:
    2c78:	0000b537          	lui	a0,0xb
    2c7c:	50350513          	addi	a0,a0,1283 # b503 <_end+0x79d3>
    2c80:	333335b7          	lui	a1,0x33333
    2c84:	33358593          	addi	a1,a1,819 # 33333333 <_end+0x3332f803>
    2c88:	00b52633          	slt	a2,a0,a1
    2c8c:	7ac0ae23          	sw	a2,1980(ra)

00002c90 <inst_525>:
    2c90:	0000b537          	lui	a0,0xb
    2c94:	50350513          	addi	a0,a0,1283 # b503 <_end+0x79d3>
    2c98:	666665b7          	lui	a1,0x66666
    2c9c:	66658593          	addi	a1,a1,1638 # 66666666 <_end+0x66662b36>
    2ca0:	00b52633          	slt	a2,a0,a1
    2ca4:	7cc0a023          	sw	a2,1984(ra)

00002ca8 <inst_526>:
    2ca8:	0000b537          	lui	a0,0xb
    2cac:	50350513          	addi	a0,a0,1283 # b503 <_end+0x79d3>
    2cb0:	ffff55b7          	lui	a1,0xffff5
    2cb4:	afc58593          	addi	a1,a1,-1284 # ffff4afc <_end+0xffff0fcc>
    2cb8:	00b52633          	slt	a2,a0,a1
    2cbc:	7cc0a223          	sw	a2,1988(ra)

00002cc0 <inst_527>:
    2cc0:	0000b537          	lui	a0,0xb
    2cc4:	50350513          	addi	a0,a0,1283 # b503 <_end+0x79d3>
    2cc8:	0000b5b7          	lui	a1,0xb
    2ccc:	50458593          	addi	a1,a1,1284 # b504 <_end+0x79d4>
    2cd0:	00b52633          	slt	a2,a0,a1
    2cd4:	7cc0a423          	sw	a2,1992(ra)

00002cd8 <inst_528>:
    2cd8:	0000b537          	lui	a0,0xb
    2cdc:	50350513          	addi	a0,a0,1283 # b503 <_end+0x79d3>
    2ce0:	00200593          	li	a1,2
    2ce4:	00b52633          	slt	a2,a0,a1
    2ce8:	7cc0a623          	sw	a2,1996(ra)

00002cec <inst_529>:
    2cec:	0000b537          	lui	a0,0xb
    2cf0:	50350513          	addi	a0,a0,1283 # b503 <_end+0x79d3>
    2cf4:	555555b7          	lui	a1,0x55555
    2cf8:	55458593          	addi	a1,a1,1364 # 55555554 <_end+0x55551a24>
    2cfc:	00b52633          	slt	a2,a0,a1
    2d00:	7cc0a823          	sw	a2,2000(ra)

00002d04 <inst_530>:
    2d04:	0000b537          	lui	a0,0xb
    2d08:	50350513          	addi	a0,a0,1283 # b503 <_end+0x79d3>
    2d0c:	00000593          	li	a1,0
    2d10:	00b52633          	slt	a2,a0,a1
    2d14:	7cc0aa23          	sw	a2,2004(ra)

00002d18 <inst_531>:
    2d18:	0000b537          	lui	a0,0xb
    2d1c:	50350513          	addi	a0,a0,1283 # b503 <_end+0x79d3>
    2d20:	00400593          	li	a1,4
    2d24:	00b52633          	slt	a2,a0,a1
    2d28:	7cc0ac23          	sw	a2,2008(ra)

00002d2c <inst_532>:
    2d2c:	0000b537          	lui	a0,0xb
    2d30:	50350513          	addi	a0,a0,1283 # b503 <_end+0x79d3>
    2d34:	333335b7          	lui	a1,0x33333
    2d38:	33258593          	addi	a1,a1,818 # 33333332 <_end+0x3332f802>
    2d3c:	00b52633          	slt	a2,a0,a1
    2d40:	7cc0ae23          	sw	a2,2012(ra)

00002d44 <inst_533>:
    2d44:	0000b537          	lui	a0,0xb
    2d48:	50350513          	addi	a0,a0,1283 # b503 <_end+0x79d3>
    2d4c:	666665b7          	lui	a1,0x66666
    2d50:	66558593          	addi	a1,a1,1637 # 66666665 <_end+0x66662b35>
    2d54:	00b52633          	slt	a2,a0,a1
    2d58:	7ec0a023          	sw	a2,2016(ra)

00002d5c <inst_534>:
    2d5c:	0000b537          	lui	a0,0xb
    2d60:	50350513          	addi	a0,a0,1283 # b503 <_end+0x79d3>
    2d64:	0000b5b7          	lui	a1,0xb
    2d68:	50358593          	addi	a1,a1,1283 # b503 <_end+0x79d3>
    2d6c:	00b52633          	slt	a2,a0,a1
    2d70:	7ec0a223          	sw	a2,2020(ra)

00002d74 <inst_535>:
    2d74:	0000b537          	lui	a0,0xb
    2d78:	50350513          	addi	a0,a0,1283 # b503 <_end+0x79d3>
    2d7c:	555555b7          	lui	a1,0x55555
    2d80:	55658593          	addi	a1,a1,1366 # 55555556 <_end+0x55551a26>
    2d84:	00b52633          	slt	a2,a0,a1
    2d88:	7ec0a423          	sw	a2,2024(ra)

00002d8c <inst_536>:
    2d8c:	0000b537          	lui	a0,0xb
    2d90:	50350513          	addi	a0,a0,1283 # b503 <_end+0x79d3>
    2d94:	aaaab5b7          	lui	a1,0xaaaab
    2d98:	aab58593          	addi	a1,a1,-1365 # aaaaaaab <_end+0xaaaa6f7b>
    2d9c:	00b52633          	slt	a2,a0,a1
    2da0:	7ec0a623          	sw	a2,2028(ra)

00002da4 <inst_537>:
    2da4:	0000b537          	lui	a0,0xb
    2da8:	50350513          	addi	a0,a0,1283 # b503 <_end+0x79d3>
    2dac:	00600593          	li	a1,6
    2db0:	00b52633          	slt	a2,a0,a1
    2db4:	7ec0a823          	sw	a2,2032(ra)

00002db8 <inst_538>:
    2db8:	0000b537          	lui	a0,0xb
    2dbc:	50350513          	addi	a0,a0,1283 # b503 <_end+0x79d3>
    2dc0:	333335b7          	lui	a1,0x33333
    2dc4:	33458593          	addi	a1,a1,820 # 33333334 <_end+0x3332f804>
    2dc8:	00b52633          	slt	a2,a0,a1
    2dcc:	7ec0aa23          	sw	a2,2036(ra)

00002dd0 <inst_539>:
    2dd0:	0000b537          	lui	a0,0xb
    2dd4:	50350513          	addi	a0,a0,1283 # b503 <_end+0x79d3>
    2dd8:	666665b7          	lui	a1,0x66666
    2ddc:	66758593          	addi	a1,a1,1639 # 66666667 <_end+0x66662b37>
    2de0:	00b52633          	slt	a2,a0,a1
    2de4:	7ec0ac23          	sw	a2,2040(ra)

00002de8 <inst_540>:
    2de8:	0000b537          	lui	a0,0xb
    2dec:	50350513          	addi	a0,a0,1283 # b503 <_end+0x79d3>
    2df0:	ffff55b7          	lui	a1,0xffff5
    2df4:	afd58593          	addi	a1,a1,-1283 # ffff4afd <_end+0xffff0fcd>
    2df8:	00b52633          	slt	a2,a0,a1
    2dfc:	7ec0ae23          	sw	a2,2044(ra)
    2e00:	00001097          	auipc	ra,0x1
    2e04:	c8408093          	addi	ra,ra,-892 # 3a84 <signature_x1_1>

00002e08 <inst_541>:
    2e08:	0000b537          	lui	a0,0xb
    2e0c:	50350513          	addi	a0,a0,1283 # b503 <_end+0x79d3>
    2e10:	0000b5b7          	lui	a1,0xb
    2e14:	50558593          	addi	a1,a1,1285 # b505 <_end+0x79d5>
    2e18:	00b52633          	slt	a2,a0,a1
    2e1c:	00c0a023          	sw	a2,0(ra)

00002e20 <inst_542>:
    2e20:	55555537          	lui	a0,0x55555
    2e24:	55650513          	addi	a0,a0,1366 # 55555556 <_end+0x55551a26>
    2e28:	00300593          	li	a1,3
    2e2c:	00b52633          	slt	a2,a0,a1
    2e30:	00c0a223          	sw	a2,4(ra)

00002e34 <inst_543>:
    2e34:	55555537          	lui	a0,0x55555
    2e38:	55650513          	addi	a0,a0,1366 # 55555556 <_end+0x55551a26>
    2e3c:	555555b7          	lui	a1,0x55555
    2e40:	55558593          	addi	a1,a1,1365 # 55555555 <_end+0x55551a25>
    2e44:	00b52633          	slt	a2,a0,a1
    2e48:	00c0a423          	sw	a2,8(ra)

00002e4c <inst_544>:
    2e4c:	55555537          	lui	a0,0x55555
    2e50:	55650513          	addi	a0,a0,1366 # 55555556 <_end+0x55551a26>
    2e54:	aaaab5b7          	lui	a1,0xaaaab
    2e58:	aaa58593          	addi	a1,a1,-1366 # aaaaaaaa <_end+0xaaaa6f7a>
    2e5c:	00b52633          	slt	a2,a0,a1
    2e60:	00c0a623          	sw	a2,12(ra)

00002e64 <inst_545>:
    2e64:	55555537          	lui	a0,0x55555
    2e68:	55650513          	addi	a0,a0,1366 # 55555556 <_end+0x55551a26>
    2e6c:	00500593          	li	a1,5
    2e70:	00b52633          	slt	a2,a0,a1
    2e74:	00c0a823          	sw	a2,16(ra)

00002e78 <inst_546>:
    2e78:	55555537          	lui	a0,0x55555
    2e7c:	55650513          	addi	a0,a0,1366 # 55555556 <_end+0x55551a26>
    2e80:	333335b7          	lui	a1,0x33333
    2e84:	33358593          	addi	a1,a1,819 # 33333333 <_end+0x3332f803>
    2e88:	00b52633          	slt	a2,a0,a1
    2e8c:	00c0aa23          	sw	a2,20(ra)

00002e90 <inst_547>:
    2e90:	55555537          	lui	a0,0x55555
    2e94:	55650513          	addi	a0,a0,1366 # 55555556 <_end+0x55551a26>
    2e98:	666665b7          	lui	a1,0x66666
    2e9c:	66658593          	addi	a1,a1,1638 # 66666666 <_end+0x66662b36>
    2ea0:	00b52633          	slt	a2,a0,a1
    2ea4:	00c0ac23          	sw	a2,24(ra)

00002ea8 <inst_548>:
    2ea8:	55555537          	lui	a0,0x55555
    2eac:	55650513          	addi	a0,a0,1366 # 55555556 <_end+0x55551a26>
    2eb0:	ffff55b7          	lui	a1,0xffff5
    2eb4:	afc58593          	addi	a1,a1,-1284 # ffff4afc <_end+0xffff0fcc>
    2eb8:	00b52633          	slt	a2,a0,a1
    2ebc:	00c0ae23          	sw	a2,28(ra)

00002ec0 <inst_549>:
    2ec0:	55555537          	lui	a0,0x55555
    2ec4:	55650513          	addi	a0,a0,1366 # 55555556 <_end+0x55551a26>
    2ec8:	0000b5b7          	lui	a1,0xb
    2ecc:	50458593          	addi	a1,a1,1284 # b504 <_end+0x79d4>
    2ed0:	00b52633          	slt	a2,a0,a1
    2ed4:	02c0a023          	sw	a2,32(ra)

00002ed8 <inst_550>:
    2ed8:	55555537          	lui	a0,0x55555
    2edc:	55650513          	addi	a0,a0,1366 # 55555556 <_end+0x55551a26>
    2ee0:	00200593          	li	a1,2
    2ee4:	00b52633          	slt	a2,a0,a1
    2ee8:	02c0a223          	sw	a2,36(ra)

00002eec <inst_551>:
    2eec:	55555537          	lui	a0,0x55555
    2ef0:	55650513          	addi	a0,a0,1366 # 55555556 <_end+0x55551a26>
    2ef4:	555555b7          	lui	a1,0x55555
    2ef8:	55458593          	addi	a1,a1,1364 # 55555554 <_end+0x55551a24>
    2efc:	00b52633          	slt	a2,a0,a1
    2f00:	02c0a423          	sw	a2,40(ra)

00002f04 <inst_552>:
    2f04:	55555537          	lui	a0,0x55555
    2f08:	55650513          	addi	a0,a0,1366 # 55555556 <_end+0x55551a26>
    2f0c:	00000593          	li	a1,0
    2f10:	00b52633          	slt	a2,a0,a1
    2f14:	02c0a623          	sw	a2,44(ra)

00002f18 <inst_553>:
    2f18:	55555537          	lui	a0,0x55555
    2f1c:	55650513          	addi	a0,a0,1366 # 55555556 <_end+0x55551a26>
    2f20:	00400593          	li	a1,4
    2f24:	00b52633          	slt	a2,a0,a1
    2f28:	02c0a823          	sw	a2,48(ra)

00002f2c <inst_554>:
    2f2c:	55555537          	lui	a0,0x55555
    2f30:	55650513          	addi	a0,a0,1366 # 55555556 <_end+0x55551a26>
    2f34:	333335b7          	lui	a1,0x33333
    2f38:	33258593          	addi	a1,a1,818 # 33333332 <_end+0x3332f802>
    2f3c:	00b52633          	slt	a2,a0,a1
    2f40:	02c0aa23          	sw	a2,52(ra)

00002f44 <inst_555>:
    2f44:	55555537          	lui	a0,0x55555
    2f48:	55650513          	addi	a0,a0,1366 # 55555556 <_end+0x55551a26>
    2f4c:	666665b7          	lui	a1,0x66666
    2f50:	66558593          	addi	a1,a1,1637 # 66666665 <_end+0x66662b35>
    2f54:	00b52633          	slt	a2,a0,a1
    2f58:	02c0ac23          	sw	a2,56(ra)

00002f5c <inst_556>:
    2f5c:	55555537          	lui	a0,0x55555
    2f60:	55650513          	addi	a0,a0,1366 # 55555556 <_end+0x55551a26>
    2f64:	0000b5b7          	lui	a1,0xb
    2f68:	50358593          	addi	a1,a1,1283 # b503 <_end+0x79d3>
    2f6c:	00b52633          	slt	a2,a0,a1
    2f70:	02c0ae23          	sw	a2,60(ra)

00002f74 <inst_557>:
    2f74:	55555537          	lui	a0,0x55555
    2f78:	55650513          	addi	a0,a0,1366 # 55555556 <_end+0x55551a26>
    2f7c:	555555b7          	lui	a1,0x55555
    2f80:	55658593          	addi	a1,a1,1366 # 55555556 <_end+0x55551a26>
    2f84:	00b52633          	slt	a2,a0,a1
    2f88:	04c0a023          	sw	a2,64(ra)

00002f8c <inst_558>:
    2f8c:	55555537          	lui	a0,0x55555
    2f90:	55650513          	addi	a0,a0,1366 # 55555556 <_end+0x55551a26>
    2f94:	aaaab5b7          	lui	a1,0xaaaab
    2f98:	aab58593          	addi	a1,a1,-1365 # aaaaaaab <_end+0xaaaa6f7b>
    2f9c:	00b52633          	slt	a2,a0,a1
    2fa0:	04c0a223          	sw	a2,68(ra)

00002fa4 <inst_559>:
    2fa4:	55555537          	lui	a0,0x55555
    2fa8:	55650513          	addi	a0,a0,1366 # 55555556 <_end+0x55551a26>
    2fac:	00600593          	li	a1,6
    2fb0:	00b52633          	slt	a2,a0,a1
    2fb4:	04c0a423          	sw	a2,72(ra)

00002fb8 <inst_560>:
    2fb8:	55555537          	lui	a0,0x55555
    2fbc:	55650513          	addi	a0,a0,1366 # 55555556 <_end+0x55551a26>
    2fc0:	333335b7          	lui	a1,0x33333
    2fc4:	33458593          	addi	a1,a1,820 # 33333334 <_end+0x3332f804>
    2fc8:	00b52633          	slt	a2,a0,a1
    2fcc:	04c0a623          	sw	a2,76(ra)

00002fd0 <inst_561>:
    2fd0:	55555537          	lui	a0,0x55555
    2fd4:	55650513          	addi	a0,a0,1366 # 55555556 <_end+0x55551a26>
    2fd8:	666665b7          	lui	a1,0x66666
    2fdc:	66758593          	addi	a1,a1,1639 # 66666667 <_end+0x66662b37>
    2fe0:	00b52633          	slt	a2,a0,a1
    2fe4:	04c0a823          	sw	a2,80(ra)

00002fe8 <inst_562>:
    2fe8:	55555537          	lui	a0,0x55555
    2fec:	55650513          	addi	a0,a0,1366 # 55555556 <_end+0x55551a26>
    2ff0:	ffff55b7          	lui	a1,0xffff5
    2ff4:	afd58593          	addi	a1,a1,-1283 # ffff4afd <_end+0xffff0fcd>
    2ff8:	00b52633          	slt	a2,a0,a1
    2ffc:	04c0aa23          	sw	a2,84(ra)

00003000 <inst_563>:
    3000:	55555537          	lui	a0,0x55555
    3004:	55650513          	addi	a0,a0,1366 # 55555556 <_end+0x55551a26>
    3008:	0000b5b7          	lui	a1,0xb
    300c:	50558593          	addi	a1,a1,1285 # b505 <_end+0x79d5>
    3010:	00b52633          	slt	a2,a0,a1
    3014:	04c0ac23          	sw	a2,88(ra)

00003018 <inst_564>:
    3018:	aaaab537          	lui	a0,0xaaaab
    301c:	aab50513          	addi	a0,a0,-1365 # aaaaaaab <_end+0xaaaa6f7b>
    3020:	00300593          	li	a1,3
    3024:	00b52633          	slt	a2,a0,a1
    3028:	04c0ae23          	sw	a2,92(ra)

0000302c <inst_565>:
    302c:	aaaab537          	lui	a0,0xaaaab
    3030:	aab50513          	addi	a0,a0,-1365 # aaaaaaab <_end+0xaaaa6f7b>
    3034:	555555b7          	lui	a1,0x55555
    3038:	55558593          	addi	a1,a1,1365 # 55555555 <_end+0x55551a25>
    303c:	00b52633          	slt	a2,a0,a1
    3040:	06c0a023          	sw	a2,96(ra)

00003044 <inst_566>:
    3044:	aaaab537          	lui	a0,0xaaaab
    3048:	aab50513          	addi	a0,a0,-1365 # aaaaaaab <_end+0xaaaa6f7b>
    304c:	aaaab5b7          	lui	a1,0xaaaab
    3050:	aaa58593          	addi	a1,a1,-1366 # aaaaaaaa <_end+0xaaaa6f7a>
    3054:	00b52633          	slt	a2,a0,a1
    3058:	06c0a223          	sw	a2,100(ra)

0000305c <inst_567>:
    305c:	aaaab537          	lui	a0,0xaaaab
    3060:	aab50513          	addi	a0,a0,-1365 # aaaaaaab <_end+0xaaaa6f7b>
    3064:	00500593          	li	a1,5
    3068:	00b52633          	slt	a2,a0,a1
    306c:	06c0a423          	sw	a2,104(ra)

00003070 <inst_568>:
    3070:	aaaab537          	lui	a0,0xaaaab
    3074:	aab50513          	addi	a0,a0,-1365 # aaaaaaab <_end+0xaaaa6f7b>
    3078:	333335b7          	lui	a1,0x33333
    307c:	33358593          	addi	a1,a1,819 # 33333333 <_end+0x3332f803>
    3080:	00b52633          	slt	a2,a0,a1
    3084:	06c0a623          	sw	a2,108(ra)

00003088 <inst_569>:
    3088:	aaaab537          	lui	a0,0xaaaab
    308c:	aab50513          	addi	a0,a0,-1365 # aaaaaaab <_end+0xaaaa6f7b>
    3090:	666665b7          	lui	a1,0x66666
    3094:	66658593          	addi	a1,a1,1638 # 66666666 <_end+0x66662b36>
    3098:	00b52633          	slt	a2,a0,a1
    309c:	06c0a823          	sw	a2,112(ra)

000030a0 <inst_570>:
    30a0:	aaaab537          	lui	a0,0xaaaab
    30a4:	aab50513          	addi	a0,a0,-1365 # aaaaaaab <_end+0xaaaa6f7b>
    30a8:	ffff55b7          	lui	a1,0xffff5
    30ac:	afc58593          	addi	a1,a1,-1284 # ffff4afc <_end+0xffff0fcc>
    30b0:	00b52633          	slt	a2,a0,a1
    30b4:	06c0aa23          	sw	a2,116(ra)

000030b8 <inst_571>:
    30b8:	aaaab537          	lui	a0,0xaaaab
    30bc:	aab50513          	addi	a0,a0,-1365 # aaaaaaab <_end+0xaaaa6f7b>
    30c0:	0000b5b7          	lui	a1,0xb
    30c4:	50458593          	addi	a1,a1,1284 # b504 <_end+0x79d4>
    30c8:	00b52633          	slt	a2,a0,a1
    30cc:	06c0ac23          	sw	a2,120(ra)

000030d0 <inst_572>:
    30d0:	aaaab537          	lui	a0,0xaaaab
    30d4:	aab50513          	addi	a0,a0,-1365 # aaaaaaab <_end+0xaaaa6f7b>
    30d8:	00200593          	li	a1,2
    30dc:	00b52633          	slt	a2,a0,a1
    30e0:	06c0ae23          	sw	a2,124(ra)

000030e4 <inst_573>:
    30e4:	aaaab537          	lui	a0,0xaaaab
    30e8:	aab50513          	addi	a0,a0,-1365 # aaaaaaab <_end+0xaaaa6f7b>
    30ec:	555555b7          	lui	a1,0x55555
    30f0:	55458593          	addi	a1,a1,1364 # 55555554 <_end+0x55551a24>
    30f4:	00b52633          	slt	a2,a0,a1
    30f8:	08c0a023          	sw	a2,128(ra)

000030fc <inst_574>:
    30fc:	aaaab537          	lui	a0,0xaaaab
    3100:	aab50513          	addi	a0,a0,-1365 # aaaaaaab <_end+0xaaaa6f7b>
    3104:	00000593          	li	a1,0
    3108:	00b52633          	slt	a2,a0,a1
    310c:	08c0a223          	sw	a2,132(ra)

00003110 <inst_575>:
    3110:	aaaab537          	lui	a0,0xaaaab
    3114:	aab50513          	addi	a0,a0,-1365 # aaaaaaab <_end+0xaaaa6f7b>
    3118:	00400593          	li	a1,4
    311c:	00b52633          	slt	a2,a0,a1
    3120:	08c0a423          	sw	a2,136(ra)

00003124 <inst_576>:
    3124:	aaaab537          	lui	a0,0xaaaab
    3128:	aab50513          	addi	a0,a0,-1365 # aaaaaaab <_end+0xaaaa6f7b>
    312c:	333335b7          	lui	a1,0x33333
    3130:	33258593          	addi	a1,a1,818 # 33333332 <_end+0x3332f802>
    3134:	00b52633          	slt	a2,a0,a1
    3138:	08c0a623          	sw	a2,140(ra)

0000313c <inst_577>:
    313c:	aaaab537          	lui	a0,0xaaaab
    3140:	aab50513          	addi	a0,a0,-1365 # aaaaaaab <_end+0xaaaa6f7b>
    3144:	666665b7          	lui	a1,0x66666
    3148:	66558593          	addi	a1,a1,1637 # 66666665 <_end+0x66662b35>
    314c:	00b52633          	slt	a2,a0,a1
    3150:	08c0a823          	sw	a2,144(ra)

00003154 <inst_578>:
    3154:	aaaab537          	lui	a0,0xaaaab
    3158:	aab50513          	addi	a0,a0,-1365 # aaaaaaab <_end+0xaaaa6f7b>
    315c:	0000b5b7          	lui	a1,0xb
    3160:	50358593          	addi	a1,a1,1283 # b503 <_end+0x79d3>
    3164:	00b52633          	slt	a2,a0,a1
    3168:	08c0aa23          	sw	a2,148(ra)

0000316c <inst_579>:
    316c:	aaaab537          	lui	a0,0xaaaab
    3170:	aab50513          	addi	a0,a0,-1365 # aaaaaaab <_end+0xaaaa6f7b>
    3174:	555555b7          	lui	a1,0x55555
    3178:	55658593          	addi	a1,a1,1366 # 55555556 <_end+0x55551a26>
    317c:	00b52633          	slt	a2,a0,a1
    3180:	08c0ac23          	sw	a2,152(ra)

00003184 <inst_580>:
    3184:	ffffc537          	lui	a0,0xffffc
    3188:	fff50513          	addi	a0,a0,-1 # ffffbfff <_end+0xffff84cf>
    318c:	ff700593          	li	a1,-9
    3190:	00b52633          	slt	a2,a0,a1
    3194:	08c0ae23          	sw	a2,156(ra)

00003198 <inst_581>:
    3198:	ffffc537          	lui	a0,0xffffc
    319c:	fff50513          	addi	a0,a0,-1 # ffffbfff <_end+0xffff84cf>
    31a0:	001005b7          	lui	a1,0x100
    31a4:	00b52633          	slt	a2,a0,a1
    31a8:	0ac0a023          	sw	a2,160(ra)

000031ac <inst_582>:
    31ac:	00400513          	li	a0,4
    31b0:	002005b7          	lui	a1,0x200
    31b4:	00b52633          	slt	a2,a0,a1
    31b8:	0ac0a223          	sw	a2,164(ra)

000031bc <inst_583>:
    31bc:	00900513          	li	a0,9
    31c0:	004005b7          	lui	a1,0x400
    31c4:	00b52633          	slt	a2,a0,a1
    31c8:	0ac0a423          	sw	a2,168(ra)
    31cc:	00000013          	nop

000031d0 <rvtest_code_end>:
    31d0:	00000297          	auipc	t0,0x0
    31d4:	04028293          	addi	t0,t0,64 # 3210 <begin_signature>
    31d8:	00004337          	lui	t1,0x4
    31dc:	ff030313          	addi	t1,t1,-16 # 3ff0 <_end+0x4c0>
    31e0:	00532023          	sw	t0,0(t1)
    31e4:	00001297          	auipc	t0,0x1
    31e8:	94c28293          	addi	t0,t0,-1716 # 3b30 <_end>
    31ec:	00004337          	lui	t1,0x4
    31f0:	ff430313          	addi	t1,t1,-12 # 3ff4 <_end+0x4c4>
    31f4:	00532023          	sw	t0,0(t1)

000031f8 <self_loop>:
    31f8:	0000006f          	j	31f8 <self_loop>
