
generated/sltiu-01.elf:     file format elf32-littleriscv


Disassembly of section .text.init:

00000000 <rvtest_entry_point>:
       0:	feedc0b7          	lui	ra,0xfeedc
       4:	ead08093          	addi	ra,ra,-339 # feedbead <_end+0xfeed8a8d>
       8:	ff76e137          	lui	sp,0xff76e
       c:	f5610113          	addi	sp,sp,-170 # ff76df56 <_end+0xff76ab36>
      10:	7fbb71b7          	lui	gp,0x7fbb7
      14:	fab18193          	addi	gp,gp,-85 # 7fbb6fab <_end+0x7fbb3b8b>
      18:	bfddb237          	lui	tp,0xbfddb
      1c:	7d520213          	addi	tp,tp,2005 # bfddb7d5 <_end+0xbfdd83b5>
      20:	00000297          	auipc	t0,0x0
      24:	0d828293          	addi	t0,t0,216 # f8 <rvtest_code_begin>
      28:	00003317          	auipc	t1,0x3
      2c:	8f830313          	addi	t1,t1,-1800 # 2920 <rvtest_data_begin>
      30:	b7fbb3b7          	lui	t2,0xb7fbb
      34:	6fa38393          	addi	t2,t2,1786 # b7fbb6fa <_end+0xb7fb82da>
      38:	5bfde437          	lui	s0,0x5bfde
      3c:	b7d40413          	addi	s0,s0,-1155 # 5bfddb7d <_end+0x5bfda75d>
      40:	adfef4b7          	lui	s1,0xadfef
      44:	dbe48493          	addi	s1,s1,-578 # adfeedbe <_end+0xadfeb99e>
      48:	56ff7537          	lui	a0,0x56ff7
      4c:	6df50513          	addi	a0,a0,1759 # 56ff76df <_end+0x56ff42bf>
      50:	ab7fc5b7          	lui	a1,0xab7fc
      54:	b6f58593          	addi	a1,a1,-1169 # ab7fbb6f <_end+0xab7f874f>
      58:	d5bfe637          	lui	a2,0xd5bfe
      5c:	db760613          	addi	a2,a2,-585 # d5bfddb7 <_end+0xd5bfa997>
      60:	eadff6b7          	lui	a3,0xeadff
      64:	edb68693          	addi	a3,a3,-293 # eadfeedb <_end+0xeadfbabb>
      68:	f56ff737          	lui	a4,0xf56ff
      6c:	76d70713          	addi	a4,a4,1901 # f56ff76d <_end+0xf56fc34d>
      70:	fab807b7          	lui	a5,0xfab80
      74:	bb678793          	addi	a5,a5,-1098 # fab7fbb6 <_end+0xfab7c796>
      78:	7d5c0837          	lui	a6,0x7d5c0
      7c:	ddb80813          	addi	a6,a6,-549 # 7d5bfddb <_end+0x7d5bc9bb>
      80:	beae08b7          	lui	a7,0xbeae0
      84:	eed88893          	addi	a7,a7,-275 # beadfeed <_end+0xbeadcacd>
      88:	df570937          	lui	s2,0xdf570
      8c:	f7690913          	addi	s2,s2,-138 # df56ff76 <_end+0xdf56cb56>
      90:	6fab89b7          	lui	s3,0x6fab8
      94:	fbb98993          	addi	s3,s3,-69 # 6fab7fbb <_end+0x6fab4b9b>
      98:	b7d5ca37          	lui	s4,0xb7d5c
      9c:	fdda0a13          	addi	s4,s4,-35 # b7d5bfdd <_end+0xb7d58bbd>
      a0:	dbeaeab7          	lui	s5,0xdbeae
      a4:	feea8a93          	addi	s5,s5,-18 # dbeadfee <_end+0xdbeaabce>
      a8:	6df57b37          	lui	s6,0x6df57
      ac:	ff7b0b13          	addi	s6,s6,-9 # 6df56ff7 <_end+0x6df53bd7>
      b0:	b6fabbb7          	lui	s7,0xb6fab
      b4:	7fbb8b93          	addi	s7,s7,2043 # b6fab7fb <_end+0xb6fa83db>
      b8:	db7d6c37          	lui	s8,0xdb7d6
      bc:	bfdc0c13          	addi	s8,s8,-1027 # db7d5bfd <_end+0xdb7d27dd>
      c0:	edbebcb7          	lui	s9,0xedbeb
      c4:	dfec8c93          	addi	s9,s9,-514 # edbeadfe <_end+0xedbe79de>
      c8:	76df5d37          	lui	s10,0x76df5
      cc:	6ffd0d13          	addi	s10,s10,1791 # 76df56ff <_end+0x76df22df>
      d0:	bb6fbdb7          	lui	s11,0xbb6fb
      d4:	b7fd8d93          	addi	s11,s11,-1153 # bb6fab7f <_end+0xbb6f775f>
      d8:	ddb7de37          	lui	t3,0xddb7d
      dc:	5bfe0e13          	addi	t3,t3,1471 # ddb7d5bf <_end+0xddb7a19f>
      e0:	eedbfeb7          	lui	t4,0xeedbf
      e4:	adfe8e93          	addi	t4,t4,-1313 # eedbeadf <_end+0xeedbb6bf>
      e8:	f76dff37          	lui	t5,0xf76df
      ec:	56ff0f13          	addi	t5,t5,1391 # f76df56f <_end+0xf76dc14f>
      f0:	fbb70fb7          	lui	t6,0xfbb70
      f4:	ab7f8f93          	addi	t6,t6,-1353 # fbb6fab7 <_end+0xfbb6c697>

000000f8 <rvtest_code_begin>:
      f8:	00003397          	auipc	t2,0x3
      fc:	83838393          	addi	t2,t2,-1992 # 2930 <begin_signature>

00000100 <inst_0>:
     100:	40000b93          	li	s7,1024
     104:	000bbe13          	sltiu	t3,s7,0
     108:	01c3a023          	sw	t3,0(t2)

0000010c <inst_1>:
     10c:	00001137          	lui	sp,0x1
     110:	80010113          	addi	sp,sp,-2048 # 800 <inst_131>
     114:	fff13113          	sltiu	sp,sp,-1
     118:	0023a223          	sw	sp,4(t2)

0000011c <inst_2>:
     11c:	00400193          	li	gp,4
     120:	0011bc93          	seqz	s9,gp
     124:	0193a423          	sw	s9,8(t2)

00000128 <inst_3>:
     128:	00000993          	li	s3,0
     12c:	0069b593          	sltiu	a1,s3,6
     130:	00b3a623          	sw	a1,12(t2)

00000134 <inst_4>:
     134:	fff00713          	li	a4,-1
     138:	02c73793          	sltiu	a5,a4,44
     13c:	00f3a823          	sw	a5,16(t2)

00000140 <inst_5>:
     140:	00100693          	li	a3,1
     144:	0006b213          	sltiu	tp,a3,0
     148:	0043aa23          	sw	tp,20(t2)

0000014c <inst_6>:
     14c:	00d00d13          	li	s10,13
     150:	00dd3193          	sltiu	gp,s10,13
     154:	0033ac23          	sw	gp,24(t2)

00000158 <inst_7>:
     158:	aaaaba37          	lui	s4,0xaaaab
     15c:	aaaa0a13          	addi	s4,s4,-1366 # aaaaaaaa <_end+0xaaaa768a>
     160:	002a3e93          	sltiu	t4,s4,2
     164:	01d3ae23          	sw	t4,28(t2)

00000168 <inst_8>:
     168:	80000db7          	lui	s11,0x80000
     16c:	fffd8d93          	addi	s11,s11,-1 # 7fffffff <_end+0x7fffcbdf>
     170:	004db813          	sltiu	a6,s11,4
     174:	0303a023          	sw	a6,32(t2)

00000178 <inst_9>:
     178:	ff0008b7          	lui	a7,0xff000
     17c:	fff88893          	addi	a7,a7,-1 # feffffff <_end+0xfeffcbdf>
     180:	0088ba13          	sltiu	s4,a7,8
     184:	0343a223          	sw	s4,36(t2)

00000188 <inst_10>:
     188:	00001fb7          	lui	t6,0x1
     18c:	800f8f93          	addi	t6,t6,-2048 # 800 <inst_131>
     190:	010fb413          	sltiu	s0,t6,16
     194:	0283a423          	sw	s0,40(t2)

00000198 <inst_11>:
     198:	00c00c13          	li	s8,12
     19c:	020c3b93          	sltiu	s7,s8,32
     1a0:	0373a623          	sw	s7,44(t2)

000001a4 <inst_12>:
     1a4:	55555cb7          	lui	s9,0x55555
     1a8:	555c8c93          	addi	s9,s9,1365 # 55555555 <_end+0x55552135>
     1ac:	040cbd13          	sltiu	s10,s9,64
     1b0:	03a3a823          	sw	s10,48(t2)

000001b4 <inst_13>:
     1b4:	00080b37          	lui	s6,0x80
     1b8:	080b3313          	sltiu	t1,s6,128
     1bc:	0263aa23          	sw	t1,52(t2)

000001c0 <inst_14>:
     1c0:	ff700613          	li	a2,-9
     1c4:	10063293          	sltiu	t0,a2,256
     1c8:	0253ac23          	sw	t0,56(t2)

000001cc <inst_15>:
     1cc:	800004b7          	lui	s1,0x80000
     1d0:	2004b093          	sltiu	ra,s1,512
     1d4:	0213ae23          	sw	ra,60(t2)

000001d8 <inst_16>:
     1d8:	fffc0e37          	lui	t3,0xfffc0
     1dc:	fffe0e13          	addi	t3,t3,-1 # fffbffff <_end+0xfffbcbdf>
     1e0:	400e3513          	sltiu	a0,t3,1024
     1e4:	04a3a023          	sw	a0,64(t2)

000001e8 <inst_17>:
     1e8:	00000a93          	li	s5,0
     1ec:	800abf93          	sltiu	t6,s5,-2048
     1f0:	05f3a223          	sw	t6,68(t2)
     1f4:	00002117          	auipc	sp,0x2
     1f8:	78410113          	addi	sp,sp,1924 # 2978 <signature_x2_0>

000001fc <inst_18>:
     1fc:	00000013          	nop
     200:	ffe03a93          	sltiu	s5,zero,-2
     204:	01512023          	sw	s5,0(sp)

00000208 <inst_19>:
     208:	01200593          	li	a1,18
     20c:	ffd5b713          	sltiu	a4,a1,-3
     210:	00e12223          	sw	a4,4(sp)

00000214 <inst_20>:
     214:	00600f13          	li	t5,6
     218:	ffbf3693          	sltiu	a3,t5,-5
     21c:	00d12423          	sw	a3,8(sp)

00000220 <inst_21>:
     220:	40000eb7          	lui	t4,0x40000
     224:	ff7eb893          	sltiu	a7,t4,-9
     228:	01112623          	sw	a7,12(sp)

0000022c <inst_22>:
     22c:	fbf00413          	li	s0,-65
     230:	fef43c13          	sltiu	s8,s0,-17
     234:	01812823          	sw	s8,16(sp)

00000238 <inst_23>:
     238:	00500093          	li	ra,5
     23c:	fdf0bd93          	sltiu	s11,ra,-33
     240:	01b12a23          	sw	s11,20(sp)

00000244 <inst_24>:
     244:	00300393          	li	t2,3
     248:	fbf3bf13          	sltiu	t5,t2,-65
     24c:	01e12c23          	sw	t5,24(sp)

00000250 <inst_25>:
     250:	000402b7          	lui	t0,0x40
     254:	f7f2bb13          	sltiu	s6,t0,-129
     258:	01612e23          	sw	s6,28(sp)

0000025c <inst_26>:
     25c:	00e00793          	li	a5,14
     260:	eff7b013          	sltiu	zero,a5,-257
     264:	02012023          	sw	zero,32(sp)

00000268 <inst_27>:
     268:	00300313          	li	t1,3
     26c:	dff33393          	sltiu	t2,t1,-513
     270:	02712223          	sw	t2,36(sp)

00000274 <inst_28>:
     274:	80000937          	lui	s2,0x80000
     278:	fff90913          	addi	s2,s2,-1 # 7fffffff <_end+0x7fffcbdf>
     27c:	bff93613          	sltiu	a2,s2,-1025
     280:	02c12423          	sw	a2,40(sp)

00000284 <inst_29>:
     284:	01000837          	lui	a6,0x1000
     288:	7ff83913          	sltiu	s2,a6,2047
     28c:	03212623          	sw	s2,44(sp)

00000290 <inst_30>:
     290:	fc000237          	lui	tp,0xfc000
     294:	fff20213          	addi	tp,tp,-1 # fbffffff <_end+0xfbffcbdf>
     298:	55523493          	sltiu	s1,tp,1365
     29c:	02912823          	sw	s1,48(sp)

000002a0 <inst_31>:
     2a0:	fffff537          	lui	a0,0xfffff
     2a4:	7ff50513          	addi	a0,a0,2047 # fffff7ff <_end+0xffffc3df>
     2a8:	aaa53993          	sltiu	s3,a0,-1366
     2ac:	03312a23          	sw	s3,52(sp)

000002b0 <inst_32>:
     2b0:	00200513          	li	a0,2
     2b4:	02053593          	sltiu	a1,a0,32
     2b8:	02b12c23          	sw	a1,56(sp)

000002bc <inst_33>:
     2bc:	00800513          	li	a0,8
     2c0:	08053593          	sltiu	a1,a0,128
     2c4:	02b12e23          	sw	a1,60(sp)

000002c8 <inst_34>:
     2c8:	02000513          	li	a0,32
     2cc:	80053593          	sltiu	a1,a0,-2048
     2d0:	04b12023          	sw	a1,64(sp)

000002d4 <inst_35>:
     2d4:	04000513          	li	a0,64
     2d8:	00253593          	sltiu	a1,a0,2
     2dc:	04b12223          	sw	a1,68(sp)

000002e0 <inst_36>:
     2e0:	08000513          	li	a0,128
     2e4:	ff753593          	sltiu	a1,a0,-9
     2e8:	04b12423          	sw	a1,72(sp)

000002ec <inst_37>:
     2ec:	10000513          	li	a0,256
     2f0:	fdf53593          	sltiu	a1,a0,-33
     2f4:	04b12623          	sw	a1,76(sp)

000002f8 <inst_38>:
     2f8:	20000513          	li	a0,512
     2fc:	ff753593          	sltiu	a1,a0,-9
     300:	04b12823          	sw	a1,80(sp)

00000304 <inst_39>:
     304:	00001537          	lui	a0,0x1
     308:	02e53593          	sltiu	a1,a0,46
     30c:	04b12a23          	sw	a1,84(sp)

00000310 <inst_40>:
     310:	00002537          	lui	a0,0x2
     314:	02e53593          	sltiu	a1,a0,46
     318:	04b12c23          	sw	a1,88(sp)

0000031c <inst_41>:
     31c:	00004537          	lui	a0,0x4
     320:	00753593          	sltiu	a1,a0,7
     324:	04b12e23          	sw	a1,92(sp)

00000328 <inst_42>:
     328:	00008537          	lui	a0,0x8
     32c:	00253593          	sltiu	a1,a0,2
     330:	06b12023          	sw	a1,96(sp)

00000334 <inst_43>:
     334:	00010537          	lui	a0,0x10
     338:	00553593          	sltiu	a1,a0,5
     33c:	06b12223          	sw	a1,100(sp)

00000340 <inst_44>:
     340:	00020537          	lui	a0,0x20
     344:	02e53593          	sltiu	a1,a0,46
     348:	06b12423          	sw	a1,104(sp)

0000034c <inst_45>:
     34c:	00100537          	lui	a0,0x100
     350:	01053593          	sltiu	a1,a0,16
     354:	06b12623          	sw	a1,108(sp)

00000358 <inst_46>:
     358:	00200537          	lui	a0,0x200
     35c:	00553593          	sltiu	a1,a0,5
     360:	06b12823          	sw	a1,112(sp)

00000364 <inst_47>:
     364:	00400537          	lui	a0,0x400
     368:	fdf53593          	sltiu	a1,a0,-33
     36c:	06b12a23          	sw	a1,116(sp)

00000370 <inst_48>:
     370:	00800537          	lui	a0,0x800
     374:	80053593          	sltiu	a1,a0,-2048
     378:	06b12c23          	sw	a1,120(sp)

0000037c <inst_49>:
     37c:	02000537          	lui	a0,0x2000
     380:	00853593          	sltiu	a1,a0,8
     384:	06b12e23          	sw	a1,124(sp)

00000388 <inst_50>:
     388:	04000537          	lui	a0,0x4000
     38c:	80053593          	sltiu	a1,a0,-2048
     390:	08b12023          	sw	a1,128(sp)

00000394 <inst_51>:
     394:	08000537          	lui	a0,0x8000
     398:	00c53593          	sltiu	a1,a0,12
     39c:	08b12223          	sw	a1,132(sp)

000003a0 <inst_52>:
     3a0:	10000537          	lui	a0,0x10000
     3a4:	fbf53593          	sltiu	a1,a0,-65
     3a8:	08b12423          	sw	a1,136(sp)

000003ac <inst_53>:
     3ac:	20000537          	lui	a0,0x20000
     3b0:	01053593          	sltiu	a1,a0,16
     3b4:	08b12623          	sw	a1,140(sp)

000003b8 <inst_54>:
     3b8:	ffe00513          	li	a0,-2
     3bc:	fef53593          	sltiu	a1,a0,-17
     3c0:	08b12823          	sw	a1,144(sp)

000003c4 <inst_55>:
     3c4:	ffd00513          	li	a0,-3
     3c8:	fff53593          	sltiu	a1,a0,-1
     3cc:	08b12a23          	sw	a1,148(sp)

000003d0 <inst_56>:
     3d0:	ffb00513          	li	a0,-5
     3d4:	02053593          	sltiu	a1,a0,32
     3d8:	08b12c23          	sw	a1,152(sp)

000003dc <inst_57>:
     3dc:	fef00513          	li	a0,-17
     3e0:	fff53593          	sltiu	a1,a0,-1
     3e4:	08b12e23          	sw	a1,156(sp)

000003e8 <inst_58>:
     3e8:	fdf00513          	li	a0,-33
     3ec:	eff53593          	sltiu	a1,a0,-257
     3f0:	0ab12023          	sw	a1,160(sp)

000003f4 <inst_59>:
     3f4:	f7f00513          	li	a0,-129
     3f8:	01053593          	sltiu	a1,a0,16
     3fc:	0ab12223          	sw	a1,164(sp)

00000400 <inst_60>:
     400:	eff00513          	li	a0,-257
     404:	00453593          	sltiu	a1,a0,4
     408:	0ab12423          	sw	a1,168(sp)

0000040c <inst_61>:
     40c:	dff00513          	li	a0,-513
     410:	02d53593          	sltiu	a1,a0,45
     414:	0ab12623          	sw	a1,172(sp)

00000418 <inst_62>:
     418:	bff00513          	li	a0,-1025
     41c:	00f53593          	sltiu	a1,a0,15
     420:	0ab12823          	sw	a1,176(sp)

00000424 <inst_63>:
     424:	fffff537          	lui	a0,0xfffff
     428:	fff50513          	addi	a0,a0,-1 # ffffefff <_end+0xffffbbdf>
     42c:	02e53593          	sltiu	a1,a0,46
     430:	0ab12a23          	sw	a1,180(sp)

00000434 <inst_64>:
     434:	ffffe537          	lui	a0,0xffffe
     438:	fff50513          	addi	a0,a0,-1 # ffffdfff <_end+0xffffabdf>
     43c:	00d53593          	sltiu	a1,a0,13
     440:	0ab12c23          	sw	a1,184(sp)

00000444 <inst_65>:
     444:	ffffc537          	lui	a0,0xffffc
     448:	fff50513          	addi	a0,a0,-1 # ffffbfff <_end+0xffff8bdf>
     44c:	33353593          	sltiu	a1,a0,819
     450:	0ab12e23          	sw	a1,188(sp)

00000454 <inst_66>:
     454:	ffff8537          	lui	a0,0xffff8
     458:	fff50513          	addi	a0,a0,-1 # ffff7fff <_end+0xffff4bdf>
     45c:	00153593          	seqz	a1,a0
     460:	0cb12023          	sw	a1,192(sp)

00000464 <inst_67>:
     464:	ffff0537          	lui	a0,0xffff0
     468:	fff50513          	addi	a0,a0,-1 # fffeffff <_end+0xfffecbdf>
     46c:	04053593          	sltiu	a1,a0,64
     470:	0cb12223          	sw	a1,196(sp)

00000474 <inst_68>:
     474:	fffe0537          	lui	a0,0xfffe0
     478:	fff50513          	addi	a0,a0,-1 # fffdffff <_end+0xfffdcbdf>
     47c:	00553593          	sltiu	a1,a0,5
     480:	0cb12423          	sw	a1,200(sp)

00000484 <inst_69>:
     484:	fff80537          	lui	a0,0xfff80
     488:	fff50513          	addi	a0,a0,-1 # fff7ffff <_end+0xfff7cbdf>
     48c:	00453593          	sltiu	a1,a0,4
     490:	0cb12623          	sw	a1,204(sp)

00000494 <inst_70>:
     494:	fff00537          	lui	a0,0xfff00
     498:	fff50513          	addi	a0,a0,-1 # ffefffff <_end+0xffefcbdf>
     49c:	55553593          	sltiu	a1,a0,1365
     4a0:	0cb12823          	sw	a1,208(sp)

000004a4 <inst_71>:
     4a4:	ffe00537          	lui	a0,0xffe00
     4a8:	fff50513          	addi	a0,a0,-1 # ffdfffff <_end+0xffdfcbdf>
     4ac:	00253593          	sltiu	a1,a0,2
     4b0:	0cb12a23          	sw	a1,212(sp)

000004b4 <inst_72>:
     4b4:	ffc00537          	lui	a0,0xffc00
     4b8:	fff50513          	addi	a0,a0,-1 # ffbfffff <_end+0xffbfcbdf>
     4bc:	55653593          	sltiu	a1,a0,1366
     4c0:	0cb12c23          	sw	a1,216(sp)

000004c4 <inst_73>:
     4c4:	ff800537          	lui	a0,0xff800
     4c8:	fff50513          	addi	a0,a0,-1 # ff7fffff <_end+0xff7fcbdf>
     4cc:	ffe53593          	sltiu	a1,a0,-2
     4d0:	0cb12e23          	sw	a1,220(sp)

000004d4 <inst_74>:
     4d4:	fe000537          	lui	a0,0xfe000
     4d8:	fff50513          	addi	a0,a0,-1 # fdffffff <_end+0xfdffcbdf>
     4dc:	00d53593          	sltiu	a1,a0,13
     4e0:	0eb12023          	sw	a1,224(sp)

000004e4 <inst_75>:
     4e4:	f8000537          	lui	a0,0xf8000
     4e8:	fff50513          	addi	a0,a0,-1 # f7ffffff <_end+0xf7ffcbdf>
     4ec:	80053593          	sltiu	a1,a0,-2048
     4f0:	0eb12223          	sw	a1,228(sp)

000004f4 <inst_76>:
     4f4:	f0000537          	lui	a0,0xf0000
     4f8:	fff50513          	addi	a0,a0,-1 # efffffff <_end+0xefffcbdf>
     4fc:	00653593          	sltiu	a1,a0,6
     500:	0eb12423          	sw	a1,232(sp)

00000504 <inst_77>:
     504:	e0000537          	lui	a0,0xe0000
     508:	fff50513          	addi	a0,a0,-1 # dfffffff <_end+0xdfffcbdf>
     50c:	04053593          	sltiu	a1,a0,64
     510:	0eb12623          	sw	a1,236(sp)

00000514 <inst_78>:
     514:	c0000537          	lui	a0,0xc0000
     518:	fff50513          	addi	a0,a0,-1 # bfffffff <_end+0xbfffcbdf>
     51c:	00653593          	sltiu	a1,a0,6
     520:	0eb12823          	sw	a1,240(sp)

00000524 <inst_79>:
     524:	00300513          	li	a0,3
     528:	00353593          	sltiu	a1,a0,3
     52c:	0eb12a23          	sw	a1,244(sp)

00000530 <inst_80>:
     530:	00300513          	li	a0,3
     534:	55553593          	sltiu	a1,a0,1365
     538:	0eb12c23          	sw	a1,248(sp)

0000053c <inst_81>:
     53c:	00300513          	li	a0,3
     540:	aaa53593          	sltiu	a1,a0,-1366
     544:	0eb12e23          	sw	a1,252(sp)

00000548 <inst_82>:
     548:	00300513          	li	a0,3
     54c:	00553593          	sltiu	a1,a0,5
     550:	10b12023          	sw	a1,256(sp)

00000554 <inst_83>:
     554:	00300513          	li	a0,3
     558:	33353593          	sltiu	a1,a0,819
     55c:	10b12223          	sw	a1,260(sp)

00000560 <inst_84>:
     560:	00300513          	li	a0,3
     564:	66653593          	sltiu	a1,a0,1638
     568:	10b12423          	sw	a1,264(sp)

0000056c <inst_85>:
     56c:	00300513          	li	a0,3
     570:	02d53593          	sltiu	a1,a0,45
     574:	10b12623          	sw	a1,268(sp)

00000578 <inst_86>:
     578:	00300513          	li	a0,3
     57c:	00053593          	sltiu	a1,a0,0
     580:	10b12823          	sw	a1,272(sp)

00000584 <inst_87>:
     584:	00300513          	li	a0,3
     588:	03f53593          	sltiu	a1,a0,63
     58c:	10b12a23          	sw	a1,276(sp)

00000590 <inst_88>:
     590:	00300513          	li	a0,3
     594:	00253593          	sltiu	a1,a0,2
     598:	10b12c23          	sw	a1,280(sp)

0000059c <inst_89>:
     59c:	00300513          	li	a0,3
     5a0:	55453593          	sltiu	a1,a0,1364
     5a4:	10b12e23          	sw	a1,284(sp)

000005a8 <inst_90>:
     5a8:	00300513          	li	a0,3
     5ac:	aa953593          	sltiu	a1,a0,-1367
     5b0:	12b12023          	sw	a1,288(sp)

000005b4 <inst_91>:
     5b4:	00300513          	li	a0,3
     5b8:	00453593          	sltiu	a1,a0,4
     5bc:	12b12223          	sw	a1,292(sp)

000005c0 <inst_92>:
     5c0:	00300513          	li	a0,3
     5c4:	33253593          	sltiu	a1,a0,818
     5c8:	12b12423          	sw	a1,296(sp)

000005cc <inst_93>:
     5cc:	00300513          	li	a0,3
     5d0:	66553593          	sltiu	a1,a0,1637
     5d4:	12b12623          	sw	a1,300(sp)

000005d8 <inst_94>:
     5d8:	00300513          	li	a0,3
     5dc:	02c53593          	sltiu	a1,a0,44
     5e0:	12b12823          	sw	a1,304(sp)

000005e4 <inst_95>:
     5e4:	00300513          	li	a0,3
     5e8:	03e53593          	sltiu	a1,a0,62
     5ec:	12b12a23          	sw	a1,308(sp)

000005f0 <inst_96>:
     5f0:	00300513          	li	a0,3
     5f4:	55653593          	sltiu	a1,a0,1366
     5f8:	12b12c23          	sw	a1,312(sp)

000005fc <inst_97>:
     5fc:	00300513          	li	a0,3
     600:	aab53593          	sltiu	a1,a0,-1365
     604:	12b12e23          	sw	a1,316(sp)

00000608 <inst_98>:
     608:	00300513          	li	a0,3
     60c:	00653593          	sltiu	a1,a0,6
     610:	14b12023          	sw	a1,320(sp)

00000614 <inst_99>:
     614:	00300513          	li	a0,3
     618:	33453593          	sltiu	a1,a0,820
     61c:	14b12223          	sw	a1,324(sp)

00000620 <inst_100>:
     620:	00300513          	li	a0,3
     624:	66753593          	sltiu	a1,a0,1639
     628:	14b12423          	sw	a1,328(sp)

0000062c <inst_101>:
     62c:	00300513          	li	a0,3
     630:	02e53593          	sltiu	a1,a0,46
     634:	14b12623          	sw	a1,332(sp)

00000638 <inst_102>:
     638:	00300513          	li	a0,3
     63c:	00153593          	seqz	a1,a0
     640:	14b12823          	sw	a1,336(sp)

00000644 <inst_103>:
     644:	00300513          	li	a0,3
     648:	04053593          	sltiu	a1,a0,64
     64c:	14b12a23          	sw	a1,340(sp)

00000650 <inst_104>:
     650:	55555537          	lui	a0,0x55555
     654:	55550513          	addi	a0,a0,1365 # 55555555 <_end+0x55552135>
     658:	00353593          	sltiu	a1,a0,3
     65c:	14b12c23          	sw	a1,344(sp)

00000660 <inst_105>:
     660:	55555537          	lui	a0,0x55555
     664:	55550513          	addi	a0,a0,1365 # 55555555 <_end+0x55552135>
     668:	55553593          	sltiu	a1,a0,1365
     66c:	14b12e23          	sw	a1,348(sp)

00000670 <inst_106>:
     670:	55555537          	lui	a0,0x55555
     674:	55550513          	addi	a0,a0,1365 # 55555555 <_end+0x55552135>
     678:	aaa53593          	sltiu	a1,a0,-1366
     67c:	16b12023          	sw	a1,352(sp)

00000680 <inst_107>:
     680:	55555537          	lui	a0,0x55555
     684:	55550513          	addi	a0,a0,1365 # 55555555 <_end+0x55552135>
     688:	00553593          	sltiu	a1,a0,5
     68c:	16b12223          	sw	a1,356(sp)

00000690 <inst_108>:
     690:	55555537          	lui	a0,0x55555
     694:	55550513          	addi	a0,a0,1365 # 55555555 <_end+0x55552135>
     698:	33353593          	sltiu	a1,a0,819
     69c:	16b12423          	sw	a1,360(sp)

000006a0 <inst_109>:
     6a0:	55555537          	lui	a0,0x55555
     6a4:	55550513          	addi	a0,a0,1365 # 55555555 <_end+0x55552135>
     6a8:	66653593          	sltiu	a1,a0,1638
     6ac:	16b12623          	sw	a1,364(sp)

000006b0 <inst_110>:
     6b0:	55555537          	lui	a0,0x55555
     6b4:	55550513          	addi	a0,a0,1365 # 55555555 <_end+0x55552135>
     6b8:	02d53593          	sltiu	a1,a0,45
     6bc:	16b12823          	sw	a1,368(sp)

000006c0 <inst_111>:
     6c0:	55555537          	lui	a0,0x55555
     6c4:	55550513          	addi	a0,a0,1365 # 55555555 <_end+0x55552135>
     6c8:	00053593          	sltiu	a1,a0,0
     6cc:	16b12a23          	sw	a1,372(sp)

000006d0 <inst_112>:
     6d0:	55555537          	lui	a0,0x55555
     6d4:	55550513          	addi	a0,a0,1365 # 55555555 <_end+0x55552135>
     6d8:	03f53593          	sltiu	a1,a0,63
     6dc:	16b12c23          	sw	a1,376(sp)

000006e0 <inst_113>:
     6e0:	55555537          	lui	a0,0x55555
     6e4:	55550513          	addi	a0,a0,1365 # 55555555 <_end+0x55552135>
     6e8:	00253593          	sltiu	a1,a0,2
     6ec:	16b12e23          	sw	a1,380(sp)

000006f0 <inst_114>:
     6f0:	55555537          	lui	a0,0x55555
     6f4:	55550513          	addi	a0,a0,1365 # 55555555 <_end+0x55552135>
     6f8:	55453593          	sltiu	a1,a0,1364
     6fc:	18b12023          	sw	a1,384(sp)

00000700 <inst_115>:
     700:	55555537          	lui	a0,0x55555
     704:	55550513          	addi	a0,a0,1365 # 55555555 <_end+0x55552135>
     708:	aa953593          	sltiu	a1,a0,-1367
     70c:	18b12223          	sw	a1,388(sp)

00000710 <inst_116>:
     710:	55555537          	lui	a0,0x55555
     714:	55550513          	addi	a0,a0,1365 # 55555555 <_end+0x55552135>
     718:	00453593          	sltiu	a1,a0,4
     71c:	18b12423          	sw	a1,392(sp)

00000720 <inst_117>:
     720:	55555537          	lui	a0,0x55555
     724:	55550513          	addi	a0,a0,1365 # 55555555 <_end+0x55552135>
     728:	33253593          	sltiu	a1,a0,818
     72c:	18b12623          	sw	a1,396(sp)

00000730 <inst_118>:
     730:	55555537          	lui	a0,0x55555
     734:	55550513          	addi	a0,a0,1365 # 55555555 <_end+0x55552135>
     738:	66553593          	sltiu	a1,a0,1637
     73c:	18b12823          	sw	a1,400(sp)

00000740 <inst_119>:
     740:	55555537          	lui	a0,0x55555
     744:	55550513          	addi	a0,a0,1365 # 55555555 <_end+0x55552135>
     748:	02c53593          	sltiu	a1,a0,44
     74c:	18b12a23          	sw	a1,404(sp)

00000750 <inst_120>:
     750:	55555537          	lui	a0,0x55555
     754:	55550513          	addi	a0,a0,1365 # 55555555 <_end+0x55552135>
     758:	03e53593          	sltiu	a1,a0,62
     75c:	18b12c23          	sw	a1,408(sp)

00000760 <inst_121>:
     760:	55555537          	lui	a0,0x55555
     764:	55550513          	addi	a0,a0,1365 # 55555555 <_end+0x55552135>
     768:	55653593          	sltiu	a1,a0,1366
     76c:	18b12e23          	sw	a1,412(sp)

00000770 <inst_122>:
     770:	55555537          	lui	a0,0x55555
     774:	55550513          	addi	a0,a0,1365 # 55555555 <_end+0x55552135>
     778:	aab53593          	sltiu	a1,a0,-1365
     77c:	1ab12023          	sw	a1,416(sp)

00000780 <inst_123>:
     780:	55555537          	lui	a0,0x55555
     784:	55550513          	addi	a0,a0,1365 # 55555555 <_end+0x55552135>
     788:	00653593          	sltiu	a1,a0,6
     78c:	1ab12223          	sw	a1,420(sp)

00000790 <inst_124>:
     790:	55555537          	lui	a0,0x55555
     794:	55550513          	addi	a0,a0,1365 # 55555555 <_end+0x55552135>
     798:	33453593          	sltiu	a1,a0,820
     79c:	1ab12423          	sw	a1,424(sp)

000007a0 <inst_125>:
     7a0:	55555537          	lui	a0,0x55555
     7a4:	55550513          	addi	a0,a0,1365 # 55555555 <_end+0x55552135>
     7a8:	66753593          	sltiu	a1,a0,1639
     7ac:	1ab12623          	sw	a1,428(sp)

000007b0 <inst_126>:
     7b0:	55555537          	lui	a0,0x55555
     7b4:	55550513          	addi	a0,a0,1365 # 55555555 <_end+0x55552135>
     7b8:	02e53593          	sltiu	a1,a0,46
     7bc:	1ab12823          	sw	a1,432(sp)

000007c0 <inst_127>:
     7c0:	55555537          	lui	a0,0x55555
     7c4:	55550513          	addi	a0,a0,1365 # 55555555 <_end+0x55552135>
     7c8:	00153593          	seqz	a1,a0
     7cc:	1ab12a23          	sw	a1,436(sp)

000007d0 <inst_128>:
     7d0:	aaaab537          	lui	a0,0xaaaab
     7d4:	aaa50513          	addi	a0,a0,-1366 # aaaaaaaa <_end+0xaaaa768a>
     7d8:	00353593          	sltiu	a1,a0,3
     7dc:	1ab12c23          	sw	a1,440(sp)

000007e0 <inst_129>:
     7e0:	aaaab537          	lui	a0,0xaaaab
     7e4:	aaa50513          	addi	a0,a0,-1366 # aaaaaaaa <_end+0xaaaa768a>
     7e8:	55553593          	sltiu	a1,a0,1365
     7ec:	1ab12e23          	sw	a1,444(sp)

000007f0 <inst_130>:
     7f0:	aaaab537          	lui	a0,0xaaaab
     7f4:	aaa50513          	addi	a0,a0,-1366 # aaaaaaaa <_end+0xaaaa768a>
     7f8:	aaa53593          	sltiu	a1,a0,-1366
     7fc:	1cb12023          	sw	a1,448(sp)

00000800 <inst_131>:
     800:	aaaab537          	lui	a0,0xaaaab
     804:	aaa50513          	addi	a0,a0,-1366 # aaaaaaaa <_end+0xaaaa768a>
     808:	00553593          	sltiu	a1,a0,5
     80c:	1cb12223          	sw	a1,452(sp)

00000810 <inst_132>:
     810:	aaaab537          	lui	a0,0xaaaab
     814:	aaa50513          	addi	a0,a0,-1366 # aaaaaaaa <_end+0xaaaa768a>
     818:	33353593          	sltiu	a1,a0,819
     81c:	1cb12423          	sw	a1,456(sp)

00000820 <inst_133>:
     820:	aaaab537          	lui	a0,0xaaaab
     824:	aaa50513          	addi	a0,a0,-1366 # aaaaaaaa <_end+0xaaaa768a>
     828:	66653593          	sltiu	a1,a0,1638
     82c:	1cb12623          	sw	a1,460(sp)

00000830 <inst_134>:
     830:	aaaab537          	lui	a0,0xaaaab
     834:	aaa50513          	addi	a0,a0,-1366 # aaaaaaaa <_end+0xaaaa768a>
     838:	02d53593          	sltiu	a1,a0,45
     83c:	1cb12823          	sw	a1,464(sp)

00000840 <inst_135>:
     840:	aaaab537          	lui	a0,0xaaaab
     844:	aaa50513          	addi	a0,a0,-1366 # aaaaaaaa <_end+0xaaaa768a>
     848:	00053593          	sltiu	a1,a0,0
     84c:	1cb12a23          	sw	a1,468(sp)

00000850 <inst_136>:
     850:	aaaab537          	lui	a0,0xaaaab
     854:	aaa50513          	addi	a0,a0,-1366 # aaaaaaaa <_end+0xaaaa768a>
     858:	03f53593          	sltiu	a1,a0,63
     85c:	1cb12c23          	sw	a1,472(sp)

00000860 <inst_137>:
     860:	aaaab537          	lui	a0,0xaaaab
     864:	aaa50513          	addi	a0,a0,-1366 # aaaaaaaa <_end+0xaaaa768a>
     868:	55453593          	sltiu	a1,a0,1364
     86c:	1cb12e23          	sw	a1,476(sp)

00000870 <inst_138>:
     870:	aaaab537          	lui	a0,0xaaaab
     874:	aaa50513          	addi	a0,a0,-1366 # aaaaaaaa <_end+0xaaaa768a>
     878:	aa953593          	sltiu	a1,a0,-1367
     87c:	1eb12023          	sw	a1,480(sp)

00000880 <inst_139>:
     880:	aaaab537          	lui	a0,0xaaaab
     884:	aaa50513          	addi	a0,a0,-1366 # aaaaaaaa <_end+0xaaaa768a>
     888:	00453593          	sltiu	a1,a0,4
     88c:	1eb12223          	sw	a1,484(sp)

00000890 <inst_140>:
     890:	aaaab537          	lui	a0,0xaaaab
     894:	aaa50513          	addi	a0,a0,-1366 # aaaaaaaa <_end+0xaaaa768a>
     898:	33253593          	sltiu	a1,a0,818
     89c:	1eb12423          	sw	a1,488(sp)

000008a0 <inst_141>:
     8a0:	aaaab537          	lui	a0,0xaaaab
     8a4:	aaa50513          	addi	a0,a0,-1366 # aaaaaaaa <_end+0xaaaa768a>
     8a8:	66553593          	sltiu	a1,a0,1637
     8ac:	1eb12623          	sw	a1,492(sp)

000008b0 <inst_142>:
     8b0:	aaaab537          	lui	a0,0xaaaab
     8b4:	aaa50513          	addi	a0,a0,-1366 # aaaaaaaa <_end+0xaaaa768a>
     8b8:	02c53593          	sltiu	a1,a0,44
     8bc:	1eb12823          	sw	a1,496(sp)

000008c0 <inst_143>:
     8c0:	aaaab537          	lui	a0,0xaaaab
     8c4:	aaa50513          	addi	a0,a0,-1366 # aaaaaaaa <_end+0xaaaa768a>
     8c8:	03e53593          	sltiu	a1,a0,62
     8cc:	1eb12a23          	sw	a1,500(sp)

000008d0 <inst_144>:
     8d0:	aaaab537          	lui	a0,0xaaaab
     8d4:	aaa50513          	addi	a0,a0,-1366 # aaaaaaaa <_end+0xaaaa768a>
     8d8:	55653593          	sltiu	a1,a0,1366
     8dc:	1eb12c23          	sw	a1,504(sp)

000008e0 <inst_145>:
     8e0:	aaaab537          	lui	a0,0xaaaab
     8e4:	aaa50513          	addi	a0,a0,-1366 # aaaaaaaa <_end+0xaaaa768a>
     8e8:	aab53593          	sltiu	a1,a0,-1365
     8ec:	1eb12e23          	sw	a1,508(sp)

000008f0 <inst_146>:
     8f0:	aaaab537          	lui	a0,0xaaaab
     8f4:	aaa50513          	addi	a0,a0,-1366 # aaaaaaaa <_end+0xaaaa768a>
     8f8:	00653593          	sltiu	a1,a0,6
     8fc:	20b12023          	sw	a1,512(sp)

00000900 <inst_147>:
     900:	aaaab537          	lui	a0,0xaaaab
     904:	aaa50513          	addi	a0,a0,-1366 # aaaaaaaa <_end+0xaaaa768a>
     908:	33453593          	sltiu	a1,a0,820
     90c:	20b12223          	sw	a1,516(sp)

00000910 <inst_148>:
     910:	aaaab537          	lui	a0,0xaaaab
     914:	aaa50513          	addi	a0,a0,-1366 # aaaaaaaa <_end+0xaaaa768a>
     918:	66753593          	sltiu	a1,a0,1639
     91c:	20b12423          	sw	a1,520(sp)

00000920 <inst_149>:
     920:	aaaab537          	lui	a0,0xaaaab
     924:	aaa50513          	addi	a0,a0,-1366 # aaaaaaaa <_end+0xaaaa768a>
     928:	02e53593          	sltiu	a1,a0,46
     92c:	20b12623          	sw	a1,524(sp)

00000930 <inst_150>:
     930:	aaaab537          	lui	a0,0xaaaab
     934:	aaa50513          	addi	a0,a0,-1366 # aaaaaaaa <_end+0xaaaa768a>
     938:	00153593          	seqz	a1,a0
     93c:	20b12823          	sw	a1,528(sp)

00000940 <inst_151>:
     940:	aaaab537          	lui	a0,0xaaaab
     944:	aaa50513          	addi	a0,a0,-1366 # aaaaaaaa <_end+0xaaaa768a>
     948:	04053593          	sltiu	a1,a0,64
     94c:	20b12a23          	sw	a1,532(sp)

00000950 <inst_152>:
     950:	00500513          	li	a0,5
     954:	00353593          	sltiu	a1,a0,3
     958:	20b12c23          	sw	a1,536(sp)

0000095c <inst_153>:
     95c:	00500513          	li	a0,5
     960:	55553593          	sltiu	a1,a0,1365
     964:	20b12e23          	sw	a1,540(sp)

00000968 <inst_154>:
     968:	00500513          	li	a0,5
     96c:	aaa53593          	sltiu	a1,a0,-1366
     970:	22b12023          	sw	a1,544(sp)

00000974 <inst_155>:
     974:	00500513          	li	a0,5
     978:	00553593          	sltiu	a1,a0,5
     97c:	22b12223          	sw	a1,548(sp)

00000980 <inst_156>:
     980:	00500513          	li	a0,5
     984:	33353593          	sltiu	a1,a0,819
     988:	22b12423          	sw	a1,552(sp)

0000098c <inst_157>:
     98c:	00500513          	li	a0,5
     990:	66653593          	sltiu	a1,a0,1638
     994:	22b12623          	sw	a1,556(sp)

00000998 <inst_158>:
     998:	00500513          	li	a0,5
     99c:	02d53593          	sltiu	a1,a0,45
     9a0:	22b12823          	sw	a1,560(sp)

000009a4 <inst_159>:
     9a4:	00500513          	li	a0,5
     9a8:	00053593          	sltiu	a1,a0,0
     9ac:	22b12a23          	sw	a1,564(sp)

000009b0 <inst_160>:
     9b0:	00500513          	li	a0,5
     9b4:	03f53593          	sltiu	a1,a0,63
     9b8:	22b12c23          	sw	a1,568(sp)

000009bc <inst_161>:
     9bc:	00500513          	li	a0,5
     9c0:	00253593          	sltiu	a1,a0,2
     9c4:	22b12e23          	sw	a1,572(sp)

000009c8 <inst_162>:
     9c8:	00500513          	li	a0,5
     9cc:	55453593          	sltiu	a1,a0,1364
     9d0:	24b12023          	sw	a1,576(sp)

000009d4 <inst_163>:
     9d4:	00500513          	li	a0,5
     9d8:	aa953593          	sltiu	a1,a0,-1367
     9dc:	24b12223          	sw	a1,580(sp)

000009e0 <inst_164>:
     9e0:	00500513          	li	a0,5
     9e4:	00453593          	sltiu	a1,a0,4
     9e8:	24b12423          	sw	a1,584(sp)

000009ec <inst_165>:
     9ec:	00500513          	li	a0,5
     9f0:	33253593          	sltiu	a1,a0,818
     9f4:	24b12623          	sw	a1,588(sp)

000009f8 <inst_166>:
     9f8:	00500513          	li	a0,5
     9fc:	66553593          	sltiu	a1,a0,1637
     a00:	24b12823          	sw	a1,592(sp)

00000a04 <inst_167>:
     a04:	00500513          	li	a0,5
     a08:	02c53593          	sltiu	a1,a0,44
     a0c:	24b12a23          	sw	a1,596(sp)

00000a10 <inst_168>:
     a10:	00500513          	li	a0,5
     a14:	03e53593          	sltiu	a1,a0,62
     a18:	24b12c23          	sw	a1,600(sp)

00000a1c <inst_169>:
     a1c:	00500513          	li	a0,5
     a20:	55653593          	sltiu	a1,a0,1366
     a24:	24b12e23          	sw	a1,604(sp)

00000a28 <inst_170>:
     a28:	00500513          	li	a0,5
     a2c:	aab53593          	sltiu	a1,a0,-1365
     a30:	26b12023          	sw	a1,608(sp)

00000a34 <inst_171>:
     a34:	00500513          	li	a0,5
     a38:	00653593          	sltiu	a1,a0,6
     a3c:	26b12223          	sw	a1,612(sp)

00000a40 <inst_172>:
     a40:	00500513          	li	a0,5
     a44:	33453593          	sltiu	a1,a0,820
     a48:	26b12423          	sw	a1,616(sp)

00000a4c <inst_173>:
     a4c:	00500513          	li	a0,5
     a50:	66753593          	sltiu	a1,a0,1639
     a54:	26b12623          	sw	a1,620(sp)

00000a58 <inst_174>:
     a58:	00500513          	li	a0,5
     a5c:	02e53593          	sltiu	a1,a0,46
     a60:	26b12823          	sw	a1,624(sp)

00000a64 <inst_175>:
     a64:	00500513          	li	a0,5
     a68:	00153593          	seqz	a1,a0
     a6c:	26b12a23          	sw	a1,628(sp)

00000a70 <inst_176>:
     a70:	00500513          	li	a0,5
     a74:	04053593          	sltiu	a1,a0,64
     a78:	26b12c23          	sw	a1,632(sp)

00000a7c <inst_177>:
     a7c:	33333537          	lui	a0,0x33333
     a80:	33350513          	addi	a0,a0,819 # 33333333 <_end+0x3332ff13>
     a84:	00353593          	sltiu	a1,a0,3
     a88:	26b12e23          	sw	a1,636(sp)

00000a8c <inst_178>:
     a8c:	33333537          	lui	a0,0x33333
     a90:	33350513          	addi	a0,a0,819 # 33333333 <_end+0x3332ff13>
     a94:	55553593          	sltiu	a1,a0,1365
     a98:	28b12023          	sw	a1,640(sp)

00000a9c <inst_179>:
     a9c:	33333537          	lui	a0,0x33333
     aa0:	33350513          	addi	a0,a0,819 # 33333333 <_end+0x3332ff13>
     aa4:	aaa53593          	sltiu	a1,a0,-1366
     aa8:	28b12223          	sw	a1,644(sp)

00000aac <inst_180>:
     aac:	33333537          	lui	a0,0x33333
     ab0:	33350513          	addi	a0,a0,819 # 33333333 <_end+0x3332ff13>
     ab4:	00553593          	sltiu	a1,a0,5
     ab8:	28b12423          	sw	a1,648(sp)

00000abc <inst_181>:
     abc:	33333537          	lui	a0,0x33333
     ac0:	33350513          	addi	a0,a0,819 # 33333333 <_end+0x3332ff13>
     ac4:	33353593          	sltiu	a1,a0,819
     ac8:	28b12623          	sw	a1,652(sp)

00000acc <inst_182>:
     acc:	33333537          	lui	a0,0x33333
     ad0:	33350513          	addi	a0,a0,819 # 33333333 <_end+0x3332ff13>
     ad4:	66653593          	sltiu	a1,a0,1638
     ad8:	28b12823          	sw	a1,656(sp)

00000adc <inst_183>:
     adc:	33333537          	lui	a0,0x33333
     ae0:	33350513          	addi	a0,a0,819 # 33333333 <_end+0x3332ff13>
     ae4:	02d53593          	sltiu	a1,a0,45
     ae8:	28b12a23          	sw	a1,660(sp)

00000aec <inst_184>:
     aec:	33333537          	lui	a0,0x33333
     af0:	33350513          	addi	a0,a0,819 # 33333333 <_end+0x3332ff13>
     af4:	00053593          	sltiu	a1,a0,0
     af8:	28b12c23          	sw	a1,664(sp)

00000afc <inst_185>:
     afc:	33333537          	lui	a0,0x33333
     b00:	33350513          	addi	a0,a0,819 # 33333333 <_end+0x3332ff13>
     b04:	03f53593          	sltiu	a1,a0,63
     b08:	28b12e23          	sw	a1,668(sp)

00000b0c <inst_186>:
     b0c:	33333537          	lui	a0,0x33333
     b10:	33350513          	addi	a0,a0,819 # 33333333 <_end+0x3332ff13>
     b14:	00253593          	sltiu	a1,a0,2
     b18:	2ab12023          	sw	a1,672(sp)

00000b1c <inst_187>:
     b1c:	33333537          	lui	a0,0x33333
     b20:	33350513          	addi	a0,a0,819 # 33333333 <_end+0x3332ff13>
     b24:	55453593          	sltiu	a1,a0,1364
     b28:	2ab12223          	sw	a1,676(sp)

00000b2c <inst_188>:
     b2c:	33333537          	lui	a0,0x33333
     b30:	33350513          	addi	a0,a0,819 # 33333333 <_end+0x3332ff13>
     b34:	aa953593          	sltiu	a1,a0,-1367
     b38:	2ab12423          	sw	a1,680(sp)

00000b3c <inst_189>:
     b3c:	33333537          	lui	a0,0x33333
     b40:	33350513          	addi	a0,a0,819 # 33333333 <_end+0x3332ff13>
     b44:	00453593          	sltiu	a1,a0,4
     b48:	2ab12623          	sw	a1,684(sp)

00000b4c <inst_190>:
     b4c:	33333537          	lui	a0,0x33333
     b50:	33350513          	addi	a0,a0,819 # 33333333 <_end+0x3332ff13>
     b54:	33253593          	sltiu	a1,a0,818
     b58:	2ab12823          	sw	a1,688(sp)

00000b5c <inst_191>:
     b5c:	33333537          	lui	a0,0x33333
     b60:	33350513          	addi	a0,a0,819 # 33333333 <_end+0x3332ff13>
     b64:	66553593          	sltiu	a1,a0,1637
     b68:	2ab12a23          	sw	a1,692(sp)

00000b6c <inst_192>:
     b6c:	33333537          	lui	a0,0x33333
     b70:	33350513          	addi	a0,a0,819 # 33333333 <_end+0x3332ff13>
     b74:	02c53593          	sltiu	a1,a0,44
     b78:	2ab12c23          	sw	a1,696(sp)

00000b7c <inst_193>:
     b7c:	33333537          	lui	a0,0x33333
     b80:	33350513          	addi	a0,a0,819 # 33333333 <_end+0x3332ff13>
     b84:	03e53593          	sltiu	a1,a0,62
     b88:	2ab12e23          	sw	a1,700(sp)

00000b8c <inst_194>:
     b8c:	33333537          	lui	a0,0x33333
     b90:	33350513          	addi	a0,a0,819 # 33333333 <_end+0x3332ff13>
     b94:	55653593          	sltiu	a1,a0,1366
     b98:	2cb12023          	sw	a1,704(sp)

00000b9c <inst_195>:
     b9c:	33333537          	lui	a0,0x33333
     ba0:	33350513          	addi	a0,a0,819 # 33333333 <_end+0x3332ff13>
     ba4:	aab53593          	sltiu	a1,a0,-1365
     ba8:	2cb12223          	sw	a1,708(sp)

00000bac <inst_196>:
     bac:	33333537          	lui	a0,0x33333
     bb0:	33350513          	addi	a0,a0,819 # 33333333 <_end+0x3332ff13>
     bb4:	00653593          	sltiu	a1,a0,6
     bb8:	2cb12423          	sw	a1,712(sp)

00000bbc <inst_197>:
     bbc:	33333537          	lui	a0,0x33333
     bc0:	33350513          	addi	a0,a0,819 # 33333333 <_end+0x3332ff13>
     bc4:	33453593          	sltiu	a1,a0,820
     bc8:	2cb12623          	sw	a1,716(sp)

00000bcc <inst_198>:
     bcc:	33333537          	lui	a0,0x33333
     bd0:	33350513          	addi	a0,a0,819 # 33333333 <_end+0x3332ff13>
     bd4:	66753593          	sltiu	a1,a0,1639
     bd8:	2cb12823          	sw	a1,720(sp)

00000bdc <inst_199>:
     bdc:	33333537          	lui	a0,0x33333
     be0:	33350513          	addi	a0,a0,819 # 33333333 <_end+0x3332ff13>
     be4:	02e53593          	sltiu	a1,a0,46
     be8:	2cb12a23          	sw	a1,724(sp)

00000bec <inst_200>:
     bec:	33333537          	lui	a0,0x33333
     bf0:	33350513          	addi	a0,a0,819 # 33333333 <_end+0x3332ff13>
     bf4:	00153593          	seqz	a1,a0
     bf8:	2cb12c23          	sw	a1,728(sp)

00000bfc <inst_201>:
     bfc:	33333537          	lui	a0,0x33333
     c00:	33350513          	addi	a0,a0,819 # 33333333 <_end+0x3332ff13>
     c04:	04053593          	sltiu	a1,a0,64
     c08:	2cb12e23          	sw	a1,732(sp)

00000c0c <inst_202>:
     c0c:	66666537          	lui	a0,0x66666
     c10:	66650513          	addi	a0,a0,1638 # 66666666 <_end+0x66663246>
     c14:	00353593          	sltiu	a1,a0,3
     c18:	2eb12023          	sw	a1,736(sp)

00000c1c <inst_203>:
     c1c:	66666537          	lui	a0,0x66666
     c20:	66650513          	addi	a0,a0,1638 # 66666666 <_end+0x66663246>
     c24:	55553593          	sltiu	a1,a0,1365
     c28:	2eb12223          	sw	a1,740(sp)

00000c2c <inst_204>:
     c2c:	66666537          	lui	a0,0x66666
     c30:	66650513          	addi	a0,a0,1638 # 66666666 <_end+0x66663246>
     c34:	aaa53593          	sltiu	a1,a0,-1366
     c38:	2eb12423          	sw	a1,744(sp)

00000c3c <inst_205>:
     c3c:	66666537          	lui	a0,0x66666
     c40:	66650513          	addi	a0,a0,1638 # 66666666 <_end+0x66663246>
     c44:	00553593          	sltiu	a1,a0,5
     c48:	2eb12623          	sw	a1,748(sp)

00000c4c <inst_206>:
     c4c:	66666537          	lui	a0,0x66666
     c50:	66650513          	addi	a0,a0,1638 # 66666666 <_end+0x66663246>
     c54:	33353593          	sltiu	a1,a0,819
     c58:	2eb12823          	sw	a1,752(sp)

00000c5c <inst_207>:
     c5c:	66666537          	lui	a0,0x66666
     c60:	66650513          	addi	a0,a0,1638 # 66666666 <_end+0x66663246>
     c64:	66653593          	sltiu	a1,a0,1638
     c68:	2eb12a23          	sw	a1,756(sp)

00000c6c <inst_208>:
     c6c:	66666537          	lui	a0,0x66666
     c70:	66650513          	addi	a0,a0,1638 # 66666666 <_end+0x66663246>
     c74:	02d53593          	sltiu	a1,a0,45
     c78:	2eb12c23          	sw	a1,760(sp)

00000c7c <inst_209>:
     c7c:	66666537          	lui	a0,0x66666
     c80:	66650513          	addi	a0,a0,1638 # 66666666 <_end+0x66663246>
     c84:	00053593          	sltiu	a1,a0,0
     c88:	2eb12e23          	sw	a1,764(sp)

00000c8c <inst_210>:
     c8c:	66666537          	lui	a0,0x66666
     c90:	66650513          	addi	a0,a0,1638 # 66666666 <_end+0x66663246>
     c94:	03f53593          	sltiu	a1,a0,63
     c98:	30b12023          	sw	a1,768(sp)

00000c9c <inst_211>:
     c9c:	66666537          	lui	a0,0x66666
     ca0:	66650513          	addi	a0,a0,1638 # 66666666 <_end+0x66663246>
     ca4:	00253593          	sltiu	a1,a0,2
     ca8:	30b12223          	sw	a1,772(sp)

00000cac <inst_212>:
     cac:	66666537          	lui	a0,0x66666
     cb0:	66650513          	addi	a0,a0,1638 # 66666666 <_end+0x66663246>
     cb4:	55453593          	sltiu	a1,a0,1364
     cb8:	30b12423          	sw	a1,776(sp)

00000cbc <inst_213>:
     cbc:	66666537          	lui	a0,0x66666
     cc0:	66650513          	addi	a0,a0,1638 # 66666666 <_end+0x66663246>
     cc4:	aa953593          	sltiu	a1,a0,-1367
     cc8:	30b12623          	sw	a1,780(sp)

00000ccc <inst_214>:
     ccc:	66666537          	lui	a0,0x66666
     cd0:	66650513          	addi	a0,a0,1638 # 66666666 <_end+0x66663246>
     cd4:	00453593          	sltiu	a1,a0,4
     cd8:	30b12823          	sw	a1,784(sp)

00000cdc <inst_215>:
     cdc:	66666537          	lui	a0,0x66666
     ce0:	66650513          	addi	a0,a0,1638 # 66666666 <_end+0x66663246>
     ce4:	33253593          	sltiu	a1,a0,818
     ce8:	30b12a23          	sw	a1,788(sp)

00000cec <inst_216>:
     cec:	66666537          	lui	a0,0x66666
     cf0:	66650513          	addi	a0,a0,1638 # 66666666 <_end+0x66663246>
     cf4:	66553593          	sltiu	a1,a0,1637
     cf8:	30b12c23          	sw	a1,792(sp)

00000cfc <inst_217>:
     cfc:	66666537          	lui	a0,0x66666
     d00:	66650513          	addi	a0,a0,1638 # 66666666 <_end+0x66663246>
     d04:	02c53593          	sltiu	a1,a0,44
     d08:	30b12e23          	sw	a1,796(sp)

00000d0c <inst_218>:
     d0c:	66666537          	lui	a0,0x66666
     d10:	66650513          	addi	a0,a0,1638 # 66666666 <_end+0x66663246>
     d14:	03e53593          	sltiu	a1,a0,62
     d18:	32b12023          	sw	a1,800(sp)

00000d1c <inst_219>:
     d1c:	66666537          	lui	a0,0x66666
     d20:	66650513          	addi	a0,a0,1638 # 66666666 <_end+0x66663246>
     d24:	55653593          	sltiu	a1,a0,1366
     d28:	32b12223          	sw	a1,804(sp)

00000d2c <inst_220>:
     d2c:	66666537          	lui	a0,0x66666
     d30:	66650513          	addi	a0,a0,1638 # 66666666 <_end+0x66663246>
     d34:	aab53593          	sltiu	a1,a0,-1365
     d38:	32b12423          	sw	a1,808(sp)

00000d3c <inst_221>:
     d3c:	66666537          	lui	a0,0x66666
     d40:	66650513          	addi	a0,a0,1638 # 66666666 <_end+0x66663246>
     d44:	00653593          	sltiu	a1,a0,6
     d48:	32b12623          	sw	a1,812(sp)

00000d4c <inst_222>:
     d4c:	66666537          	lui	a0,0x66666
     d50:	66650513          	addi	a0,a0,1638 # 66666666 <_end+0x66663246>
     d54:	33453593          	sltiu	a1,a0,820
     d58:	32b12823          	sw	a1,816(sp)

00000d5c <inst_223>:
     d5c:	66666537          	lui	a0,0x66666
     d60:	66650513          	addi	a0,a0,1638 # 66666666 <_end+0x66663246>
     d64:	66753593          	sltiu	a1,a0,1639
     d68:	32b12a23          	sw	a1,820(sp)

00000d6c <inst_224>:
     d6c:	66666537          	lui	a0,0x66666
     d70:	66650513          	addi	a0,a0,1638 # 66666666 <_end+0x66663246>
     d74:	02e53593          	sltiu	a1,a0,46
     d78:	32b12c23          	sw	a1,824(sp)

00000d7c <inst_225>:
     d7c:	66666537          	lui	a0,0x66666
     d80:	66650513          	addi	a0,a0,1638 # 66666666 <_end+0x66663246>
     d84:	00153593          	seqz	a1,a0
     d88:	32b12e23          	sw	a1,828(sp)

00000d8c <inst_226>:
     d8c:	66666537          	lui	a0,0x66666
     d90:	66650513          	addi	a0,a0,1638 # 66666666 <_end+0x66663246>
     d94:	04053593          	sltiu	a1,a0,64
     d98:	34b12023          	sw	a1,832(sp)

00000d9c <inst_227>:
     d9c:	0000b537          	lui	a0,0xb
     da0:	50450513          	addi	a0,a0,1284 # b504 <_end+0x80e4>
     da4:	00353593          	sltiu	a1,a0,3
     da8:	34b12223          	sw	a1,836(sp)

00000dac <inst_228>:
     dac:	0000b537          	lui	a0,0xb
     db0:	50450513          	addi	a0,a0,1284 # b504 <_end+0x80e4>
     db4:	55553593          	sltiu	a1,a0,1365
     db8:	34b12423          	sw	a1,840(sp)

00000dbc <inst_229>:
     dbc:	0000b537          	lui	a0,0xb
     dc0:	50450513          	addi	a0,a0,1284 # b504 <_end+0x80e4>
     dc4:	aaa53593          	sltiu	a1,a0,-1366
     dc8:	34b12623          	sw	a1,844(sp)

00000dcc <inst_230>:
     dcc:	0000b537          	lui	a0,0xb
     dd0:	50450513          	addi	a0,a0,1284 # b504 <_end+0x80e4>
     dd4:	00553593          	sltiu	a1,a0,5
     dd8:	34b12823          	sw	a1,848(sp)

00000ddc <inst_231>:
     ddc:	0000b537          	lui	a0,0xb
     de0:	50450513          	addi	a0,a0,1284 # b504 <_end+0x80e4>
     de4:	33353593          	sltiu	a1,a0,819
     de8:	34b12a23          	sw	a1,852(sp)

00000dec <inst_232>:
     dec:	0000b537          	lui	a0,0xb
     df0:	50450513          	addi	a0,a0,1284 # b504 <_end+0x80e4>
     df4:	66653593          	sltiu	a1,a0,1638
     df8:	34b12c23          	sw	a1,856(sp)

00000dfc <inst_233>:
     dfc:	0000b537          	lui	a0,0xb
     e00:	50450513          	addi	a0,a0,1284 # b504 <_end+0x80e4>
     e04:	02d53593          	sltiu	a1,a0,45
     e08:	34b12e23          	sw	a1,860(sp)

00000e0c <inst_234>:
     e0c:	0000b537          	lui	a0,0xb
     e10:	50450513          	addi	a0,a0,1284 # b504 <_end+0x80e4>
     e14:	00053593          	sltiu	a1,a0,0
     e18:	36b12023          	sw	a1,864(sp)

00000e1c <inst_235>:
     e1c:	0000b537          	lui	a0,0xb
     e20:	50450513          	addi	a0,a0,1284 # b504 <_end+0x80e4>
     e24:	03f53593          	sltiu	a1,a0,63
     e28:	36b12223          	sw	a1,868(sp)

00000e2c <inst_236>:
     e2c:	0000b537          	lui	a0,0xb
     e30:	50450513          	addi	a0,a0,1284 # b504 <_end+0x80e4>
     e34:	00253593          	sltiu	a1,a0,2
     e38:	36b12423          	sw	a1,872(sp)

00000e3c <inst_237>:
     e3c:	0000b537          	lui	a0,0xb
     e40:	50450513          	addi	a0,a0,1284 # b504 <_end+0x80e4>
     e44:	55453593          	sltiu	a1,a0,1364
     e48:	36b12623          	sw	a1,876(sp)

00000e4c <inst_238>:
     e4c:	0000b537          	lui	a0,0xb
     e50:	50450513          	addi	a0,a0,1284 # b504 <_end+0x80e4>
     e54:	aa953593          	sltiu	a1,a0,-1367
     e58:	36b12823          	sw	a1,880(sp)

00000e5c <inst_239>:
     e5c:	0000b537          	lui	a0,0xb
     e60:	50450513          	addi	a0,a0,1284 # b504 <_end+0x80e4>
     e64:	00453593          	sltiu	a1,a0,4
     e68:	36b12a23          	sw	a1,884(sp)

00000e6c <inst_240>:
     e6c:	0000b537          	lui	a0,0xb
     e70:	50450513          	addi	a0,a0,1284 # b504 <_end+0x80e4>
     e74:	33253593          	sltiu	a1,a0,818
     e78:	36b12c23          	sw	a1,888(sp)

00000e7c <inst_241>:
     e7c:	0000b537          	lui	a0,0xb
     e80:	50450513          	addi	a0,a0,1284 # b504 <_end+0x80e4>
     e84:	66553593          	sltiu	a1,a0,1637
     e88:	36b12e23          	sw	a1,892(sp)

00000e8c <inst_242>:
     e8c:	0000b537          	lui	a0,0xb
     e90:	50450513          	addi	a0,a0,1284 # b504 <_end+0x80e4>
     e94:	02c53593          	sltiu	a1,a0,44
     e98:	38b12023          	sw	a1,896(sp)

00000e9c <inst_243>:
     e9c:	0000b537          	lui	a0,0xb
     ea0:	50450513          	addi	a0,a0,1284 # b504 <_end+0x80e4>
     ea4:	03e53593          	sltiu	a1,a0,62
     ea8:	38b12223          	sw	a1,900(sp)

00000eac <inst_244>:
     eac:	0000b537          	lui	a0,0xb
     eb0:	50450513          	addi	a0,a0,1284 # b504 <_end+0x80e4>
     eb4:	55653593          	sltiu	a1,a0,1366
     eb8:	38b12423          	sw	a1,904(sp)

00000ebc <inst_245>:
     ebc:	0000b537          	lui	a0,0xb
     ec0:	50450513          	addi	a0,a0,1284 # b504 <_end+0x80e4>
     ec4:	aab53593          	sltiu	a1,a0,-1365
     ec8:	38b12623          	sw	a1,908(sp)

00000ecc <inst_246>:
     ecc:	0000b537          	lui	a0,0xb
     ed0:	50450513          	addi	a0,a0,1284 # b504 <_end+0x80e4>
     ed4:	00653593          	sltiu	a1,a0,6
     ed8:	38b12823          	sw	a1,912(sp)

00000edc <inst_247>:
     edc:	0000b537          	lui	a0,0xb
     ee0:	50450513          	addi	a0,a0,1284 # b504 <_end+0x80e4>
     ee4:	33453593          	sltiu	a1,a0,820
     ee8:	38b12a23          	sw	a1,916(sp)

00000eec <inst_248>:
     eec:	0000b537          	lui	a0,0xb
     ef0:	50450513          	addi	a0,a0,1284 # b504 <_end+0x80e4>
     ef4:	66753593          	sltiu	a1,a0,1639
     ef8:	38b12c23          	sw	a1,920(sp)

00000efc <inst_249>:
     efc:	0000b537          	lui	a0,0xb
     f00:	50450513          	addi	a0,a0,1284 # b504 <_end+0x80e4>
     f04:	02e53593          	sltiu	a1,a0,46
     f08:	38b12e23          	sw	a1,924(sp)

00000f0c <inst_250>:
     f0c:	0000b537          	lui	a0,0xb
     f10:	50450513          	addi	a0,a0,1284 # b504 <_end+0x80e4>
     f14:	00153593          	seqz	a1,a0
     f18:	3ab12023          	sw	a1,928(sp)

00000f1c <inst_251>:
     f1c:	0000b537          	lui	a0,0xb
     f20:	50450513          	addi	a0,a0,1284 # b504 <_end+0x80e4>
     f24:	04053593          	sltiu	a1,a0,64
     f28:	3ab12223          	sw	a1,932(sp)

00000f2c <inst_252>:
     f2c:	00000513          	li	a0,0
     f30:	00353593          	sltiu	a1,a0,3
     f34:	3ab12423          	sw	a1,936(sp)

00000f38 <inst_253>:
     f38:	00000513          	li	a0,0
     f3c:	55553593          	sltiu	a1,a0,1365
     f40:	3ab12623          	sw	a1,940(sp)

00000f44 <inst_254>:
     f44:	00000513          	li	a0,0
     f48:	aaa53593          	sltiu	a1,a0,-1366
     f4c:	3ab12823          	sw	a1,944(sp)

00000f50 <inst_255>:
     f50:	00000513          	li	a0,0
     f54:	00553593          	sltiu	a1,a0,5
     f58:	3ab12a23          	sw	a1,948(sp)

00000f5c <inst_256>:
     f5c:	00000513          	li	a0,0
     f60:	33353593          	sltiu	a1,a0,819
     f64:	3ab12c23          	sw	a1,952(sp)

00000f68 <inst_257>:
     f68:	00000513          	li	a0,0
     f6c:	66653593          	sltiu	a1,a0,1638
     f70:	3ab12e23          	sw	a1,956(sp)

00000f74 <inst_258>:
     f74:	00000513          	li	a0,0
     f78:	02d53593          	sltiu	a1,a0,45
     f7c:	3cb12023          	sw	a1,960(sp)

00000f80 <inst_259>:
     f80:	00000513          	li	a0,0
     f84:	00053593          	sltiu	a1,a0,0
     f88:	3cb12223          	sw	a1,964(sp)

00000f8c <inst_260>:
     f8c:	00000513          	li	a0,0
     f90:	03f53593          	sltiu	a1,a0,63
     f94:	3cb12423          	sw	a1,968(sp)

00000f98 <inst_261>:
     f98:	00000513          	li	a0,0
     f9c:	00253593          	sltiu	a1,a0,2
     fa0:	3cb12623          	sw	a1,972(sp)

00000fa4 <inst_262>:
     fa4:	00000513          	li	a0,0
     fa8:	55453593          	sltiu	a1,a0,1364
     fac:	3cb12823          	sw	a1,976(sp)

00000fb0 <inst_263>:
     fb0:	00000513          	li	a0,0
     fb4:	aa953593          	sltiu	a1,a0,-1367
     fb8:	3cb12a23          	sw	a1,980(sp)

00000fbc <inst_264>:
     fbc:	00000513          	li	a0,0
     fc0:	00453593          	sltiu	a1,a0,4
     fc4:	3cb12c23          	sw	a1,984(sp)

00000fc8 <inst_265>:
     fc8:	00000513          	li	a0,0
     fcc:	33253593          	sltiu	a1,a0,818
     fd0:	3cb12e23          	sw	a1,988(sp)

00000fd4 <inst_266>:
     fd4:	00000513          	li	a0,0
     fd8:	66553593          	sltiu	a1,a0,1637
     fdc:	3eb12023          	sw	a1,992(sp)

00000fe0 <inst_267>:
     fe0:	00000513          	li	a0,0
     fe4:	02c53593          	sltiu	a1,a0,44
     fe8:	3eb12223          	sw	a1,996(sp)

00000fec <inst_268>:
     fec:	00000513          	li	a0,0
     ff0:	03e53593          	sltiu	a1,a0,62
     ff4:	3eb12423          	sw	a1,1000(sp)

00000ff8 <inst_269>:
     ff8:	00000513          	li	a0,0
     ffc:	55653593          	sltiu	a1,a0,1366
    1000:	3eb12623          	sw	a1,1004(sp)

00001004 <inst_270>:
    1004:	00000513          	li	a0,0
    1008:	aab53593          	sltiu	a1,a0,-1365
    100c:	3eb12823          	sw	a1,1008(sp)

00001010 <inst_271>:
    1010:	00000513          	li	a0,0
    1014:	33453593          	sltiu	a1,a0,820
    1018:	3eb12a23          	sw	a1,1012(sp)

0000101c <inst_272>:
    101c:	00000513          	li	a0,0
    1020:	66753593          	sltiu	a1,a0,1639
    1024:	3eb12c23          	sw	a1,1016(sp)

00001028 <inst_273>:
    1028:	00000513          	li	a0,0
    102c:	02e53593          	sltiu	a1,a0,46
    1030:	3eb12e23          	sw	a1,1020(sp)

00001034 <inst_274>:
    1034:	00000513          	li	a0,0
    1038:	00153593          	seqz	a1,a0
    103c:	40b12023          	sw	a1,1024(sp)

00001040 <inst_275>:
    1040:	00000513          	li	a0,0
    1044:	04053593          	sltiu	a1,a0,64
    1048:	40b12223          	sw	a1,1028(sp)

0000104c <inst_276>:
    104c:	00010537          	lui	a0,0x10
    1050:	fff50513          	addi	a0,a0,-1 # ffff <_end+0xcbdf>
    1054:	00353593          	sltiu	a1,a0,3
    1058:	40b12423          	sw	a1,1032(sp)

0000105c <inst_277>:
    105c:	00010537          	lui	a0,0x10
    1060:	fff50513          	addi	a0,a0,-1 # ffff <_end+0xcbdf>
    1064:	55553593          	sltiu	a1,a0,1365
    1068:	40b12623          	sw	a1,1036(sp)

0000106c <inst_278>:
    106c:	00010537          	lui	a0,0x10
    1070:	fff50513          	addi	a0,a0,-1 # ffff <_end+0xcbdf>
    1074:	aaa53593          	sltiu	a1,a0,-1366
    1078:	40b12823          	sw	a1,1040(sp)

0000107c <inst_279>:
    107c:	00010537          	lui	a0,0x10
    1080:	fff50513          	addi	a0,a0,-1 # ffff <_end+0xcbdf>
    1084:	00553593          	sltiu	a1,a0,5
    1088:	40b12a23          	sw	a1,1044(sp)

0000108c <inst_280>:
    108c:	00010537          	lui	a0,0x10
    1090:	fff50513          	addi	a0,a0,-1 # ffff <_end+0xcbdf>
    1094:	33353593          	sltiu	a1,a0,819
    1098:	40b12c23          	sw	a1,1048(sp)

0000109c <inst_281>:
    109c:	00010537          	lui	a0,0x10
    10a0:	fff50513          	addi	a0,a0,-1 # ffff <_end+0xcbdf>
    10a4:	66653593          	sltiu	a1,a0,1638
    10a8:	40b12e23          	sw	a1,1052(sp)

000010ac <inst_282>:
    10ac:	00010537          	lui	a0,0x10
    10b0:	fff50513          	addi	a0,a0,-1 # ffff <_end+0xcbdf>
    10b4:	02d53593          	sltiu	a1,a0,45
    10b8:	42b12023          	sw	a1,1056(sp)

000010bc <inst_283>:
    10bc:	00010537          	lui	a0,0x10
    10c0:	fff50513          	addi	a0,a0,-1 # ffff <_end+0xcbdf>
    10c4:	00053593          	sltiu	a1,a0,0
    10c8:	42b12223          	sw	a1,1060(sp)

000010cc <inst_284>:
    10cc:	00010537          	lui	a0,0x10
    10d0:	fff50513          	addi	a0,a0,-1 # ffff <_end+0xcbdf>
    10d4:	03f53593          	sltiu	a1,a0,63
    10d8:	42b12423          	sw	a1,1064(sp)

000010dc <inst_285>:
    10dc:	00010537          	lui	a0,0x10
    10e0:	fff50513          	addi	a0,a0,-1 # ffff <_end+0xcbdf>
    10e4:	00253593          	sltiu	a1,a0,2
    10e8:	42b12623          	sw	a1,1068(sp)

000010ec <inst_286>:
    10ec:	00010537          	lui	a0,0x10
    10f0:	fff50513          	addi	a0,a0,-1 # ffff <_end+0xcbdf>
    10f4:	55453593          	sltiu	a1,a0,1364
    10f8:	42b12823          	sw	a1,1072(sp)

000010fc <inst_287>:
    10fc:	00010537          	lui	a0,0x10
    1100:	fff50513          	addi	a0,a0,-1 # ffff <_end+0xcbdf>
    1104:	aa953593          	sltiu	a1,a0,-1367
    1108:	42b12a23          	sw	a1,1076(sp)

0000110c <inst_288>:
    110c:	00010537          	lui	a0,0x10
    1110:	fff50513          	addi	a0,a0,-1 # ffff <_end+0xcbdf>
    1114:	00453593          	sltiu	a1,a0,4
    1118:	42b12c23          	sw	a1,1080(sp)

0000111c <inst_289>:
    111c:	00010537          	lui	a0,0x10
    1120:	fff50513          	addi	a0,a0,-1 # ffff <_end+0xcbdf>
    1124:	33253593          	sltiu	a1,a0,818
    1128:	42b12e23          	sw	a1,1084(sp)

0000112c <inst_290>:
    112c:	00010537          	lui	a0,0x10
    1130:	fff50513          	addi	a0,a0,-1 # ffff <_end+0xcbdf>
    1134:	66553593          	sltiu	a1,a0,1637
    1138:	44b12023          	sw	a1,1088(sp)

0000113c <inst_291>:
    113c:	00010537          	lui	a0,0x10
    1140:	fff50513          	addi	a0,a0,-1 # ffff <_end+0xcbdf>
    1144:	02c53593          	sltiu	a1,a0,44
    1148:	44b12223          	sw	a1,1092(sp)

0000114c <inst_292>:
    114c:	00010537          	lui	a0,0x10
    1150:	fff50513          	addi	a0,a0,-1 # ffff <_end+0xcbdf>
    1154:	03e53593          	sltiu	a1,a0,62
    1158:	44b12423          	sw	a1,1096(sp)

0000115c <inst_293>:
    115c:	00010537          	lui	a0,0x10
    1160:	fff50513          	addi	a0,a0,-1 # ffff <_end+0xcbdf>
    1164:	55653593          	sltiu	a1,a0,1366
    1168:	44b12623          	sw	a1,1100(sp)

0000116c <inst_294>:
    116c:	00010537          	lui	a0,0x10
    1170:	fff50513          	addi	a0,a0,-1 # ffff <_end+0xcbdf>
    1174:	aab53593          	sltiu	a1,a0,-1365
    1178:	44b12823          	sw	a1,1104(sp)

0000117c <inst_295>:
    117c:	00010537          	lui	a0,0x10
    1180:	fff50513          	addi	a0,a0,-1 # ffff <_end+0xcbdf>
    1184:	00653593          	sltiu	a1,a0,6
    1188:	44b12a23          	sw	a1,1108(sp)

0000118c <inst_296>:
    118c:	00010537          	lui	a0,0x10
    1190:	fff50513          	addi	a0,a0,-1 # ffff <_end+0xcbdf>
    1194:	33453593          	sltiu	a1,a0,820
    1198:	44b12c23          	sw	a1,1112(sp)

0000119c <inst_297>:
    119c:	00010537          	lui	a0,0x10
    11a0:	fff50513          	addi	a0,a0,-1 # ffff <_end+0xcbdf>
    11a4:	66753593          	sltiu	a1,a0,1639
    11a8:	44b12e23          	sw	a1,1116(sp)

000011ac <inst_298>:
    11ac:	00010537          	lui	a0,0x10
    11b0:	fff50513          	addi	a0,a0,-1 # ffff <_end+0xcbdf>
    11b4:	02e53593          	sltiu	a1,a0,46
    11b8:	46b12023          	sw	a1,1120(sp)

000011bc <inst_299>:
    11bc:	00010537          	lui	a0,0x10
    11c0:	fff50513          	addi	a0,a0,-1 # ffff <_end+0xcbdf>
    11c4:	00153593          	seqz	a1,a0
    11c8:	46b12223          	sw	a1,1124(sp)

000011cc <inst_300>:
    11cc:	00010537          	lui	a0,0x10
    11d0:	fff50513          	addi	a0,a0,-1 # ffff <_end+0xcbdf>
    11d4:	04053593          	sltiu	a1,a0,64
    11d8:	46b12423          	sw	a1,1128(sp)

000011dc <inst_301>:
    11dc:	00200513          	li	a0,2
    11e0:	00353593          	sltiu	a1,a0,3
    11e4:	46b12623          	sw	a1,1132(sp)

000011e8 <inst_302>:
    11e8:	00200513          	li	a0,2
    11ec:	55553593          	sltiu	a1,a0,1365
    11f0:	46b12823          	sw	a1,1136(sp)

000011f4 <inst_303>:
    11f4:	00200513          	li	a0,2
    11f8:	aaa53593          	sltiu	a1,a0,-1366
    11fc:	46b12a23          	sw	a1,1140(sp)

00001200 <inst_304>:
    1200:	00200513          	li	a0,2
    1204:	00553593          	sltiu	a1,a0,5
    1208:	46b12c23          	sw	a1,1144(sp)

0000120c <inst_305>:
    120c:	00200513          	li	a0,2
    1210:	33353593          	sltiu	a1,a0,819
    1214:	46b12e23          	sw	a1,1148(sp)

00001218 <inst_306>:
    1218:	00200513          	li	a0,2
    121c:	66653593          	sltiu	a1,a0,1638
    1220:	48b12023          	sw	a1,1152(sp)

00001224 <inst_307>:
    1224:	00200513          	li	a0,2
    1228:	02d53593          	sltiu	a1,a0,45
    122c:	48b12223          	sw	a1,1156(sp)

00001230 <inst_308>:
    1230:	00200513          	li	a0,2
    1234:	00053593          	sltiu	a1,a0,0
    1238:	48b12423          	sw	a1,1160(sp)

0000123c <inst_309>:
    123c:	00200513          	li	a0,2
    1240:	03f53593          	sltiu	a1,a0,63
    1244:	48b12623          	sw	a1,1164(sp)

00001248 <inst_310>:
    1248:	00200513          	li	a0,2
    124c:	00253593          	sltiu	a1,a0,2
    1250:	48b12823          	sw	a1,1168(sp)

00001254 <inst_311>:
    1254:	00200513          	li	a0,2
    1258:	55453593          	sltiu	a1,a0,1364
    125c:	48b12a23          	sw	a1,1172(sp)

00001260 <inst_312>:
    1260:	00200513          	li	a0,2
    1264:	aa953593          	sltiu	a1,a0,-1367
    1268:	48b12c23          	sw	a1,1176(sp)

0000126c <inst_313>:
    126c:	00200513          	li	a0,2
    1270:	00453593          	sltiu	a1,a0,4
    1274:	48b12e23          	sw	a1,1180(sp)

00001278 <inst_314>:
    1278:	00200513          	li	a0,2
    127c:	33253593          	sltiu	a1,a0,818
    1280:	4ab12023          	sw	a1,1184(sp)

00001284 <inst_315>:
    1284:	00200513          	li	a0,2
    1288:	66553593          	sltiu	a1,a0,1637
    128c:	4ab12223          	sw	a1,1188(sp)

00001290 <inst_316>:
    1290:	00200513          	li	a0,2
    1294:	02c53593          	sltiu	a1,a0,44
    1298:	4ab12423          	sw	a1,1192(sp)

0000129c <inst_317>:
    129c:	00200513          	li	a0,2
    12a0:	03e53593          	sltiu	a1,a0,62
    12a4:	4ab12623          	sw	a1,1196(sp)

000012a8 <inst_318>:
    12a8:	00200513          	li	a0,2
    12ac:	55653593          	sltiu	a1,a0,1366
    12b0:	4ab12823          	sw	a1,1200(sp)

000012b4 <inst_319>:
    12b4:	00200513          	li	a0,2
    12b8:	aab53593          	sltiu	a1,a0,-1365
    12bc:	4ab12a23          	sw	a1,1204(sp)

000012c0 <inst_320>:
    12c0:	00200513          	li	a0,2
    12c4:	00653593          	sltiu	a1,a0,6
    12c8:	4ab12c23          	sw	a1,1208(sp)

000012cc <inst_321>:
    12cc:	00200513          	li	a0,2
    12d0:	33453593          	sltiu	a1,a0,820
    12d4:	4ab12e23          	sw	a1,1212(sp)

000012d8 <inst_322>:
    12d8:	00200513          	li	a0,2
    12dc:	66753593          	sltiu	a1,a0,1639
    12e0:	4cb12023          	sw	a1,1216(sp)

000012e4 <inst_323>:
    12e4:	00200513          	li	a0,2
    12e8:	02e53593          	sltiu	a1,a0,46
    12ec:	4cb12223          	sw	a1,1220(sp)

000012f0 <inst_324>:
    12f0:	00200513          	li	a0,2
    12f4:	00153593          	seqz	a1,a0
    12f8:	4cb12423          	sw	a1,1224(sp)

000012fc <inst_325>:
    12fc:	00200513          	li	a0,2
    1300:	04053593          	sltiu	a1,a0,64
    1304:	4cb12623          	sw	a1,1228(sp)

00001308 <inst_326>:
    1308:	55555537          	lui	a0,0x55555
    130c:	55450513          	addi	a0,a0,1364 # 55555554 <_end+0x55552134>
    1310:	00353593          	sltiu	a1,a0,3
    1314:	4cb12823          	sw	a1,1232(sp)

00001318 <inst_327>:
    1318:	55555537          	lui	a0,0x55555
    131c:	55450513          	addi	a0,a0,1364 # 55555554 <_end+0x55552134>
    1320:	55553593          	sltiu	a1,a0,1365
    1324:	4cb12a23          	sw	a1,1236(sp)

00001328 <inst_328>:
    1328:	55555537          	lui	a0,0x55555
    132c:	55450513          	addi	a0,a0,1364 # 55555554 <_end+0x55552134>
    1330:	aaa53593          	sltiu	a1,a0,-1366
    1334:	4cb12c23          	sw	a1,1240(sp)

00001338 <inst_329>:
    1338:	55555537          	lui	a0,0x55555
    133c:	55450513          	addi	a0,a0,1364 # 55555554 <_end+0x55552134>
    1340:	00553593          	sltiu	a1,a0,5
    1344:	4cb12e23          	sw	a1,1244(sp)

00001348 <inst_330>:
    1348:	55555537          	lui	a0,0x55555
    134c:	55450513          	addi	a0,a0,1364 # 55555554 <_end+0x55552134>
    1350:	33353593          	sltiu	a1,a0,819
    1354:	4eb12023          	sw	a1,1248(sp)

00001358 <inst_331>:
    1358:	55555537          	lui	a0,0x55555
    135c:	55450513          	addi	a0,a0,1364 # 55555554 <_end+0x55552134>
    1360:	66653593          	sltiu	a1,a0,1638
    1364:	4eb12223          	sw	a1,1252(sp)

00001368 <inst_332>:
    1368:	55555537          	lui	a0,0x55555
    136c:	55450513          	addi	a0,a0,1364 # 55555554 <_end+0x55552134>
    1370:	02d53593          	sltiu	a1,a0,45
    1374:	4eb12423          	sw	a1,1256(sp)

00001378 <inst_333>:
    1378:	55555537          	lui	a0,0x55555
    137c:	55450513          	addi	a0,a0,1364 # 55555554 <_end+0x55552134>
    1380:	00053593          	sltiu	a1,a0,0
    1384:	4eb12623          	sw	a1,1260(sp)

00001388 <inst_334>:
    1388:	55555537          	lui	a0,0x55555
    138c:	55450513          	addi	a0,a0,1364 # 55555554 <_end+0x55552134>
    1390:	03f53593          	sltiu	a1,a0,63
    1394:	4eb12823          	sw	a1,1264(sp)

00001398 <inst_335>:
    1398:	55555537          	lui	a0,0x55555
    139c:	55450513          	addi	a0,a0,1364 # 55555554 <_end+0x55552134>
    13a0:	00253593          	sltiu	a1,a0,2
    13a4:	4eb12a23          	sw	a1,1268(sp)

000013a8 <inst_336>:
    13a8:	55555537          	lui	a0,0x55555
    13ac:	55450513          	addi	a0,a0,1364 # 55555554 <_end+0x55552134>
    13b0:	55453593          	sltiu	a1,a0,1364
    13b4:	4eb12c23          	sw	a1,1272(sp)

000013b8 <inst_337>:
    13b8:	55555537          	lui	a0,0x55555
    13bc:	55450513          	addi	a0,a0,1364 # 55555554 <_end+0x55552134>
    13c0:	aa953593          	sltiu	a1,a0,-1367
    13c4:	4eb12e23          	sw	a1,1276(sp)

000013c8 <inst_338>:
    13c8:	55555537          	lui	a0,0x55555
    13cc:	55450513          	addi	a0,a0,1364 # 55555554 <_end+0x55552134>
    13d0:	00453593          	sltiu	a1,a0,4
    13d4:	50b12023          	sw	a1,1280(sp)

000013d8 <inst_339>:
    13d8:	55555537          	lui	a0,0x55555
    13dc:	55450513          	addi	a0,a0,1364 # 55555554 <_end+0x55552134>
    13e0:	33253593          	sltiu	a1,a0,818
    13e4:	50b12223          	sw	a1,1284(sp)

000013e8 <inst_340>:
    13e8:	55555537          	lui	a0,0x55555
    13ec:	55450513          	addi	a0,a0,1364 # 55555554 <_end+0x55552134>
    13f0:	66553593          	sltiu	a1,a0,1637
    13f4:	50b12423          	sw	a1,1288(sp)

000013f8 <inst_341>:
    13f8:	55555537          	lui	a0,0x55555
    13fc:	55450513          	addi	a0,a0,1364 # 55555554 <_end+0x55552134>
    1400:	02c53593          	sltiu	a1,a0,44
    1404:	50b12623          	sw	a1,1292(sp)

00001408 <inst_342>:
    1408:	55555537          	lui	a0,0x55555
    140c:	55450513          	addi	a0,a0,1364 # 55555554 <_end+0x55552134>
    1410:	03e53593          	sltiu	a1,a0,62
    1414:	50b12823          	sw	a1,1296(sp)

00001418 <inst_343>:
    1418:	55555537          	lui	a0,0x55555
    141c:	55450513          	addi	a0,a0,1364 # 55555554 <_end+0x55552134>
    1420:	55653593          	sltiu	a1,a0,1366
    1424:	50b12a23          	sw	a1,1300(sp)

00001428 <inst_344>:
    1428:	55555537          	lui	a0,0x55555
    142c:	55450513          	addi	a0,a0,1364 # 55555554 <_end+0x55552134>
    1430:	aab53593          	sltiu	a1,a0,-1365
    1434:	50b12c23          	sw	a1,1304(sp)

00001438 <inst_345>:
    1438:	55555537          	lui	a0,0x55555
    143c:	55450513          	addi	a0,a0,1364 # 55555554 <_end+0x55552134>
    1440:	00653593          	sltiu	a1,a0,6
    1444:	50b12e23          	sw	a1,1308(sp)

00001448 <inst_346>:
    1448:	55555537          	lui	a0,0x55555
    144c:	55450513          	addi	a0,a0,1364 # 55555554 <_end+0x55552134>
    1450:	33453593          	sltiu	a1,a0,820
    1454:	52b12023          	sw	a1,1312(sp)

00001458 <inst_347>:
    1458:	55555537          	lui	a0,0x55555
    145c:	55450513          	addi	a0,a0,1364 # 55555554 <_end+0x55552134>
    1460:	66753593          	sltiu	a1,a0,1639
    1464:	52b12223          	sw	a1,1316(sp)

00001468 <inst_348>:
    1468:	55555537          	lui	a0,0x55555
    146c:	55450513          	addi	a0,a0,1364 # 55555554 <_end+0x55552134>
    1470:	02e53593          	sltiu	a1,a0,46
    1474:	52b12423          	sw	a1,1320(sp)

00001478 <inst_349>:
    1478:	55555537          	lui	a0,0x55555
    147c:	55450513          	addi	a0,a0,1364 # 55555554 <_end+0x55552134>
    1480:	00153593          	seqz	a1,a0
    1484:	52b12623          	sw	a1,1324(sp)

00001488 <inst_350>:
    1488:	55555537          	lui	a0,0x55555
    148c:	55450513          	addi	a0,a0,1364 # 55555554 <_end+0x55552134>
    1490:	04053593          	sltiu	a1,a0,64
    1494:	52b12823          	sw	a1,1328(sp)

00001498 <inst_351>:
    1498:	aaaab537          	lui	a0,0xaaaab
    149c:	aa950513          	addi	a0,a0,-1367 # aaaaaaa9 <_end+0xaaaa7689>
    14a0:	00353593          	sltiu	a1,a0,3
    14a4:	52b12a23          	sw	a1,1332(sp)

000014a8 <inst_352>:
    14a8:	aaaab537          	lui	a0,0xaaaab
    14ac:	aa950513          	addi	a0,a0,-1367 # aaaaaaa9 <_end+0xaaaa7689>
    14b0:	55553593          	sltiu	a1,a0,1365
    14b4:	52b12c23          	sw	a1,1336(sp)

000014b8 <inst_353>:
    14b8:	aaaab537          	lui	a0,0xaaaab
    14bc:	aa950513          	addi	a0,a0,-1367 # aaaaaaa9 <_end+0xaaaa7689>
    14c0:	aaa53593          	sltiu	a1,a0,-1366
    14c4:	52b12e23          	sw	a1,1340(sp)

000014c8 <inst_354>:
    14c8:	aaaab537          	lui	a0,0xaaaab
    14cc:	aa950513          	addi	a0,a0,-1367 # aaaaaaa9 <_end+0xaaaa7689>
    14d0:	00553593          	sltiu	a1,a0,5
    14d4:	54b12023          	sw	a1,1344(sp)

000014d8 <inst_355>:
    14d8:	aaaab537          	lui	a0,0xaaaab
    14dc:	aa950513          	addi	a0,a0,-1367 # aaaaaaa9 <_end+0xaaaa7689>
    14e0:	33353593          	sltiu	a1,a0,819
    14e4:	54b12223          	sw	a1,1348(sp)

000014e8 <inst_356>:
    14e8:	aaaab537          	lui	a0,0xaaaab
    14ec:	aa950513          	addi	a0,a0,-1367 # aaaaaaa9 <_end+0xaaaa7689>
    14f0:	66653593          	sltiu	a1,a0,1638
    14f4:	54b12423          	sw	a1,1352(sp)

000014f8 <inst_357>:
    14f8:	aaaab537          	lui	a0,0xaaaab
    14fc:	aa950513          	addi	a0,a0,-1367 # aaaaaaa9 <_end+0xaaaa7689>
    1500:	02d53593          	sltiu	a1,a0,45
    1504:	54b12623          	sw	a1,1356(sp)

00001508 <inst_358>:
    1508:	aaaab537          	lui	a0,0xaaaab
    150c:	aa950513          	addi	a0,a0,-1367 # aaaaaaa9 <_end+0xaaaa7689>
    1510:	00053593          	sltiu	a1,a0,0
    1514:	54b12823          	sw	a1,1360(sp)

00001518 <inst_359>:
    1518:	aaaab537          	lui	a0,0xaaaab
    151c:	aa950513          	addi	a0,a0,-1367 # aaaaaaa9 <_end+0xaaaa7689>
    1520:	03f53593          	sltiu	a1,a0,63
    1524:	54b12a23          	sw	a1,1364(sp)

00001528 <inst_360>:
    1528:	aaaab537          	lui	a0,0xaaaab
    152c:	aa950513          	addi	a0,a0,-1367 # aaaaaaa9 <_end+0xaaaa7689>
    1530:	00253593          	sltiu	a1,a0,2
    1534:	54b12c23          	sw	a1,1368(sp)

00001538 <inst_361>:
    1538:	aaaab537          	lui	a0,0xaaaab
    153c:	aa950513          	addi	a0,a0,-1367 # aaaaaaa9 <_end+0xaaaa7689>
    1540:	55453593          	sltiu	a1,a0,1364
    1544:	54b12e23          	sw	a1,1372(sp)

00001548 <inst_362>:
    1548:	aaaab537          	lui	a0,0xaaaab
    154c:	aa950513          	addi	a0,a0,-1367 # aaaaaaa9 <_end+0xaaaa7689>
    1550:	aa953593          	sltiu	a1,a0,-1367
    1554:	56b12023          	sw	a1,1376(sp)

00001558 <inst_363>:
    1558:	aaaab537          	lui	a0,0xaaaab
    155c:	aa950513          	addi	a0,a0,-1367 # aaaaaaa9 <_end+0xaaaa7689>
    1560:	00453593          	sltiu	a1,a0,4
    1564:	56b12223          	sw	a1,1380(sp)

00001568 <inst_364>:
    1568:	aaaab537          	lui	a0,0xaaaab
    156c:	aa950513          	addi	a0,a0,-1367 # aaaaaaa9 <_end+0xaaaa7689>
    1570:	33253593          	sltiu	a1,a0,818
    1574:	56b12423          	sw	a1,1384(sp)

00001578 <inst_365>:
    1578:	aaaab537          	lui	a0,0xaaaab
    157c:	aa950513          	addi	a0,a0,-1367 # aaaaaaa9 <_end+0xaaaa7689>
    1580:	66553593          	sltiu	a1,a0,1637
    1584:	56b12623          	sw	a1,1388(sp)

00001588 <inst_366>:
    1588:	aaaab537          	lui	a0,0xaaaab
    158c:	aa950513          	addi	a0,a0,-1367 # aaaaaaa9 <_end+0xaaaa7689>
    1590:	02c53593          	sltiu	a1,a0,44
    1594:	56b12823          	sw	a1,1392(sp)

00001598 <inst_367>:
    1598:	aaaab537          	lui	a0,0xaaaab
    159c:	aa950513          	addi	a0,a0,-1367 # aaaaaaa9 <_end+0xaaaa7689>
    15a0:	03e53593          	sltiu	a1,a0,62
    15a4:	56b12a23          	sw	a1,1396(sp)

000015a8 <inst_368>:
    15a8:	aaaab537          	lui	a0,0xaaaab
    15ac:	aa950513          	addi	a0,a0,-1367 # aaaaaaa9 <_end+0xaaaa7689>
    15b0:	55653593          	sltiu	a1,a0,1366
    15b4:	56b12c23          	sw	a1,1400(sp)

000015b8 <inst_369>:
    15b8:	aaaab537          	lui	a0,0xaaaab
    15bc:	aa950513          	addi	a0,a0,-1367 # aaaaaaa9 <_end+0xaaaa7689>
    15c0:	aab53593          	sltiu	a1,a0,-1365
    15c4:	56b12e23          	sw	a1,1404(sp)

000015c8 <inst_370>:
    15c8:	aaaab537          	lui	a0,0xaaaab
    15cc:	aa950513          	addi	a0,a0,-1367 # aaaaaaa9 <_end+0xaaaa7689>
    15d0:	00653593          	sltiu	a1,a0,6
    15d4:	58b12023          	sw	a1,1408(sp)

000015d8 <inst_371>:
    15d8:	aaaab537          	lui	a0,0xaaaab
    15dc:	aa950513          	addi	a0,a0,-1367 # aaaaaaa9 <_end+0xaaaa7689>
    15e0:	33453593          	sltiu	a1,a0,820
    15e4:	58b12223          	sw	a1,1412(sp)

000015e8 <inst_372>:
    15e8:	aaaab537          	lui	a0,0xaaaab
    15ec:	aa950513          	addi	a0,a0,-1367 # aaaaaaa9 <_end+0xaaaa7689>
    15f0:	66753593          	sltiu	a1,a0,1639
    15f4:	58b12423          	sw	a1,1416(sp)

000015f8 <inst_373>:
    15f8:	aaaab537          	lui	a0,0xaaaab
    15fc:	aa950513          	addi	a0,a0,-1367 # aaaaaaa9 <_end+0xaaaa7689>
    1600:	02e53593          	sltiu	a1,a0,46
    1604:	58b12623          	sw	a1,1420(sp)

00001608 <inst_374>:
    1608:	aaaab537          	lui	a0,0xaaaab
    160c:	aa950513          	addi	a0,a0,-1367 # aaaaaaa9 <_end+0xaaaa7689>
    1610:	00153593          	seqz	a1,a0
    1614:	58b12823          	sw	a1,1424(sp)

00001618 <inst_375>:
    1618:	aaaab537          	lui	a0,0xaaaab
    161c:	aa950513          	addi	a0,a0,-1367 # aaaaaaa9 <_end+0xaaaa7689>
    1620:	04053593          	sltiu	a1,a0,64
    1624:	58b12a23          	sw	a1,1428(sp)

00001628 <inst_376>:
    1628:	00400513          	li	a0,4
    162c:	00353593          	sltiu	a1,a0,3
    1630:	58b12c23          	sw	a1,1432(sp)

00001634 <inst_377>:
    1634:	00400513          	li	a0,4
    1638:	55553593          	sltiu	a1,a0,1365
    163c:	58b12e23          	sw	a1,1436(sp)

00001640 <inst_378>:
    1640:	00400513          	li	a0,4
    1644:	aaa53593          	sltiu	a1,a0,-1366
    1648:	5ab12023          	sw	a1,1440(sp)

0000164c <inst_379>:
    164c:	00400513          	li	a0,4
    1650:	00553593          	sltiu	a1,a0,5
    1654:	5ab12223          	sw	a1,1444(sp)

00001658 <inst_380>:
    1658:	00400513          	li	a0,4
    165c:	33353593          	sltiu	a1,a0,819
    1660:	5ab12423          	sw	a1,1448(sp)

00001664 <inst_381>:
    1664:	00400513          	li	a0,4
    1668:	66653593          	sltiu	a1,a0,1638
    166c:	5ab12623          	sw	a1,1452(sp)

00001670 <inst_382>:
    1670:	00400513          	li	a0,4
    1674:	02d53593          	sltiu	a1,a0,45
    1678:	5ab12823          	sw	a1,1456(sp)

0000167c <inst_383>:
    167c:	00400513          	li	a0,4
    1680:	00053593          	sltiu	a1,a0,0
    1684:	5ab12a23          	sw	a1,1460(sp)

00001688 <inst_384>:
    1688:	00400513          	li	a0,4
    168c:	03f53593          	sltiu	a1,a0,63
    1690:	5ab12c23          	sw	a1,1464(sp)

00001694 <inst_385>:
    1694:	00400513          	li	a0,4
    1698:	00253593          	sltiu	a1,a0,2
    169c:	5ab12e23          	sw	a1,1468(sp)

000016a0 <inst_386>:
    16a0:	00400513          	li	a0,4
    16a4:	55453593          	sltiu	a1,a0,1364
    16a8:	5cb12023          	sw	a1,1472(sp)

000016ac <inst_387>:
    16ac:	00400513          	li	a0,4
    16b0:	aa953593          	sltiu	a1,a0,-1367
    16b4:	5cb12223          	sw	a1,1476(sp)

000016b8 <inst_388>:
    16b8:	00400513          	li	a0,4
    16bc:	00453593          	sltiu	a1,a0,4
    16c0:	5cb12423          	sw	a1,1480(sp)

000016c4 <inst_389>:
    16c4:	00400513          	li	a0,4
    16c8:	33253593          	sltiu	a1,a0,818
    16cc:	5cb12623          	sw	a1,1484(sp)

000016d0 <inst_390>:
    16d0:	00400513          	li	a0,4
    16d4:	66553593          	sltiu	a1,a0,1637
    16d8:	5cb12823          	sw	a1,1488(sp)

000016dc <inst_391>:
    16dc:	00400513          	li	a0,4
    16e0:	02c53593          	sltiu	a1,a0,44
    16e4:	5cb12a23          	sw	a1,1492(sp)

000016e8 <inst_392>:
    16e8:	00400513          	li	a0,4
    16ec:	03e53593          	sltiu	a1,a0,62
    16f0:	5cb12c23          	sw	a1,1496(sp)

000016f4 <inst_393>:
    16f4:	00400513          	li	a0,4
    16f8:	55653593          	sltiu	a1,a0,1366
    16fc:	5cb12e23          	sw	a1,1500(sp)

00001700 <inst_394>:
    1700:	00400513          	li	a0,4
    1704:	aab53593          	sltiu	a1,a0,-1365
    1708:	5eb12023          	sw	a1,1504(sp)

0000170c <inst_395>:
    170c:	00400513          	li	a0,4
    1710:	00653593          	sltiu	a1,a0,6
    1714:	5eb12223          	sw	a1,1508(sp)

00001718 <inst_396>:
    1718:	00400513          	li	a0,4
    171c:	33453593          	sltiu	a1,a0,820
    1720:	5eb12423          	sw	a1,1512(sp)

00001724 <inst_397>:
    1724:	00400513          	li	a0,4
    1728:	66753593          	sltiu	a1,a0,1639
    172c:	5eb12623          	sw	a1,1516(sp)

00001730 <inst_398>:
    1730:	00400513          	li	a0,4
    1734:	02e53593          	sltiu	a1,a0,46
    1738:	5eb12823          	sw	a1,1520(sp)

0000173c <inst_399>:
    173c:	00400513          	li	a0,4
    1740:	04053593          	sltiu	a1,a0,64
    1744:	5eb12a23          	sw	a1,1524(sp)

00001748 <inst_400>:
    1748:	33333537          	lui	a0,0x33333
    174c:	33250513          	addi	a0,a0,818 # 33333332 <_end+0x3332ff12>
    1750:	00353593          	sltiu	a1,a0,3
    1754:	5eb12c23          	sw	a1,1528(sp)

00001758 <inst_401>:
    1758:	33333537          	lui	a0,0x33333
    175c:	33250513          	addi	a0,a0,818 # 33333332 <_end+0x3332ff12>
    1760:	55553593          	sltiu	a1,a0,1365
    1764:	5eb12e23          	sw	a1,1532(sp)

00001768 <inst_402>:
    1768:	33333537          	lui	a0,0x33333
    176c:	33250513          	addi	a0,a0,818 # 33333332 <_end+0x3332ff12>
    1770:	aaa53593          	sltiu	a1,a0,-1366
    1774:	60b12023          	sw	a1,1536(sp)

00001778 <inst_403>:
    1778:	33333537          	lui	a0,0x33333
    177c:	33250513          	addi	a0,a0,818 # 33333332 <_end+0x3332ff12>
    1780:	00553593          	sltiu	a1,a0,5
    1784:	60b12223          	sw	a1,1540(sp)

00001788 <inst_404>:
    1788:	33333537          	lui	a0,0x33333
    178c:	33250513          	addi	a0,a0,818 # 33333332 <_end+0x3332ff12>
    1790:	33353593          	sltiu	a1,a0,819
    1794:	60b12423          	sw	a1,1544(sp)

00001798 <inst_405>:
    1798:	33333537          	lui	a0,0x33333
    179c:	33250513          	addi	a0,a0,818 # 33333332 <_end+0x3332ff12>
    17a0:	66653593          	sltiu	a1,a0,1638
    17a4:	60b12623          	sw	a1,1548(sp)

000017a8 <inst_406>:
    17a8:	33333537          	lui	a0,0x33333
    17ac:	33250513          	addi	a0,a0,818 # 33333332 <_end+0x3332ff12>
    17b0:	02d53593          	sltiu	a1,a0,45
    17b4:	60b12823          	sw	a1,1552(sp)

000017b8 <inst_407>:
    17b8:	33333537          	lui	a0,0x33333
    17bc:	33250513          	addi	a0,a0,818 # 33333332 <_end+0x3332ff12>
    17c0:	00053593          	sltiu	a1,a0,0
    17c4:	60b12a23          	sw	a1,1556(sp)

000017c8 <inst_408>:
    17c8:	33333537          	lui	a0,0x33333
    17cc:	33250513          	addi	a0,a0,818 # 33333332 <_end+0x3332ff12>
    17d0:	03f53593          	sltiu	a1,a0,63
    17d4:	60b12c23          	sw	a1,1560(sp)

000017d8 <inst_409>:
    17d8:	33333537          	lui	a0,0x33333
    17dc:	33250513          	addi	a0,a0,818 # 33333332 <_end+0x3332ff12>
    17e0:	00253593          	sltiu	a1,a0,2
    17e4:	60b12e23          	sw	a1,1564(sp)

000017e8 <inst_410>:
    17e8:	33333537          	lui	a0,0x33333
    17ec:	33250513          	addi	a0,a0,818 # 33333332 <_end+0x3332ff12>
    17f0:	55453593          	sltiu	a1,a0,1364
    17f4:	62b12023          	sw	a1,1568(sp)

000017f8 <inst_411>:
    17f8:	33333537          	lui	a0,0x33333
    17fc:	33250513          	addi	a0,a0,818 # 33333332 <_end+0x3332ff12>
    1800:	aa953593          	sltiu	a1,a0,-1367
    1804:	62b12223          	sw	a1,1572(sp)

00001808 <inst_412>:
    1808:	33333537          	lui	a0,0x33333
    180c:	33250513          	addi	a0,a0,818 # 33333332 <_end+0x3332ff12>
    1810:	00453593          	sltiu	a1,a0,4
    1814:	62b12423          	sw	a1,1576(sp)

00001818 <inst_413>:
    1818:	33333537          	lui	a0,0x33333
    181c:	33250513          	addi	a0,a0,818 # 33333332 <_end+0x3332ff12>
    1820:	33253593          	sltiu	a1,a0,818
    1824:	62b12623          	sw	a1,1580(sp)

00001828 <inst_414>:
    1828:	33333537          	lui	a0,0x33333
    182c:	33250513          	addi	a0,a0,818 # 33333332 <_end+0x3332ff12>
    1830:	66553593          	sltiu	a1,a0,1637
    1834:	62b12823          	sw	a1,1584(sp)

00001838 <inst_415>:
    1838:	33333537          	lui	a0,0x33333
    183c:	33250513          	addi	a0,a0,818 # 33333332 <_end+0x3332ff12>
    1840:	02c53593          	sltiu	a1,a0,44
    1844:	62b12a23          	sw	a1,1588(sp)

00001848 <inst_416>:
    1848:	33333537          	lui	a0,0x33333
    184c:	33250513          	addi	a0,a0,818 # 33333332 <_end+0x3332ff12>
    1850:	03e53593          	sltiu	a1,a0,62
    1854:	62b12c23          	sw	a1,1592(sp)

00001858 <inst_417>:
    1858:	33333537          	lui	a0,0x33333
    185c:	33250513          	addi	a0,a0,818 # 33333332 <_end+0x3332ff12>
    1860:	55653593          	sltiu	a1,a0,1366
    1864:	62b12e23          	sw	a1,1596(sp)

00001868 <inst_418>:
    1868:	33333537          	lui	a0,0x33333
    186c:	33250513          	addi	a0,a0,818 # 33333332 <_end+0x3332ff12>
    1870:	aab53593          	sltiu	a1,a0,-1365
    1874:	64b12023          	sw	a1,1600(sp)

00001878 <inst_419>:
    1878:	33333537          	lui	a0,0x33333
    187c:	33250513          	addi	a0,a0,818 # 33333332 <_end+0x3332ff12>
    1880:	00653593          	sltiu	a1,a0,6
    1884:	64b12223          	sw	a1,1604(sp)

00001888 <inst_420>:
    1888:	33333537          	lui	a0,0x33333
    188c:	33250513          	addi	a0,a0,818 # 33333332 <_end+0x3332ff12>
    1890:	33453593          	sltiu	a1,a0,820
    1894:	64b12423          	sw	a1,1608(sp)

00001898 <inst_421>:
    1898:	33333537          	lui	a0,0x33333
    189c:	33250513          	addi	a0,a0,818 # 33333332 <_end+0x3332ff12>
    18a0:	66753593          	sltiu	a1,a0,1639
    18a4:	64b12623          	sw	a1,1612(sp)

000018a8 <inst_422>:
    18a8:	33333537          	lui	a0,0x33333
    18ac:	33250513          	addi	a0,a0,818 # 33333332 <_end+0x3332ff12>
    18b0:	02e53593          	sltiu	a1,a0,46
    18b4:	64b12823          	sw	a1,1616(sp)

000018b8 <inst_423>:
    18b8:	33333537          	lui	a0,0x33333
    18bc:	33250513          	addi	a0,a0,818 # 33333332 <_end+0x3332ff12>
    18c0:	00153593          	seqz	a1,a0
    18c4:	64b12a23          	sw	a1,1620(sp)

000018c8 <inst_424>:
    18c8:	33333537          	lui	a0,0x33333
    18cc:	33250513          	addi	a0,a0,818 # 33333332 <_end+0x3332ff12>
    18d0:	04053593          	sltiu	a1,a0,64
    18d4:	64b12c23          	sw	a1,1624(sp)

000018d8 <inst_425>:
    18d8:	66666537          	lui	a0,0x66666
    18dc:	66550513          	addi	a0,a0,1637 # 66666665 <_end+0x66663245>
    18e0:	00353593          	sltiu	a1,a0,3
    18e4:	64b12e23          	sw	a1,1628(sp)

000018e8 <inst_426>:
    18e8:	66666537          	lui	a0,0x66666
    18ec:	66550513          	addi	a0,a0,1637 # 66666665 <_end+0x66663245>
    18f0:	55553593          	sltiu	a1,a0,1365
    18f4:	66b12023          	sw	a1,1632(sp)

000018f8 <inst_427>:
    18f8:	66666537          	lui	a0,0x66666
    18fc:	66550513          	addi	a0,a0,1637 # 66666665 <_end+0x66663245>
    1900:	aaa53593          	sltiu	a1,a0,-1366
    1904:	66b12223          	sw	a1,1636(sp)

00001908 <inst_428>:
    1908:	66666537          	lui	a0,0x66666
    190c:	66550513          	addi	a0,a0,1637 # 66666665 <_end+0x66663245>
    1910:	00553593          	sltiu	a1,a0,5
    1914:	66b12423          	sw	a1,1640(sp)

00001918 <inst_429>:
    1918:	66666537          	lui	a0,0x66666
    191c:	66550513          	addi	a0,a0,1637 # 66666665 <_end+0x66663245>
    1920:	33353593          	sltiu	a1,a0,819
    1924:	66b12623          	sw	a1,1644(sp)

00001928 <inst_430>:
    1928:	66666537          	lui	a0,0x66666
    192c:	66550513          	addi	a0,a0,1637 # 66666665 <_end+0x66663245>
    1930:	66653593          	sltiu	a1,a0,1638
    1934:	66b12823          	sw	a1,1648(sp)

00001938 <inst_431>:
    1938:	66666537          	lui	a0,0x66666
    193c:	66550513          	addi	a0,a0,1637 # 66666665 <_end+0x66663245>
    1940:	02d53593          	sltiu	a1,a0,45
    1944:	66b12a23          	sw	a1,1652(sp)

00001948 <inst_432>:
    1948:	66666537          	lui	a0,0x66666
    194c:	66550513          	addi	a0,a0,1637 # 66666665 <_end+0x66663245>
    1950:	00053593          	sltiu	a1,a0,0
    1954:	66b12c23          	sw	a1,1656(sp)

00001958 <inst_433>:
    1958:	66666537          	lui	a0,0x66666
    195c:	66550513          	addi	a0,a0,1637 # 66666665 <_end+0x66663245>
    1960:	03f53593          	sltiu	a1,a0,63
    1964:	66b12e23          	sw	a1,1660(sp)

00001968 <inst_434>:
    1968:	66666537          	lui	a0,0x66666
    196c:	66550513          	addi	a0,a0,1637 # 66666665 <_end+0x66663245>
    1970:	00253593          	sltiu	a1,a0,2
    1974:	68b12023          	sw	a1,1664(sp)

00001978 <inst_435>:
    1978:	66666537          	lui	a0,0x66666
    197c:	66550513          	addi	a0,a0,1637 # 66666665 <_end+0x66663245>
    1980:	55453593          	sltiu	a1,a0,1364
    1984:	68b12223          	sw	a1,1668(sp)

00001988 <inst_436>:
    1988:	66666537          	lui	a0,0x66666
    198c:	66550513          	addi	a0,a0,1637 # 66666665 <_end+0x66663245>
    1990:	aa953593          	sltiu	a1,a0,-1367
    1994:	68b12423          	sw	a1,1672(sp)

00001998 <inst_437>:
    1998:	66666537          	lui	a0,0x66666
    199c:	66550513          	addi	a0,a0,1637 # 66666665 <_end+0x66663245>
    19a0:	00453593          	sltiu	a1,a0,4
    19a4:	68b12623          	sw	a1,1676(sp)

000019a8 <inst_438>:
    19a8:	66666537          	lui	a0,0x66666
    19ac:	66550513          	addi	a0,a0,1637 # 66666665 <_end+0x66663245>
    19b0:	33253593          	sltiu	a1,a0,818
    19b4:	68b12823          	sw	a1,1680(sp)

000019b8 <inst_439>:
    19b8:	66666537          	lui	a0,0x66666
    19bc:	66550513          	addi	a0,a0,1637 # 66666665 <_end+0x66663245>
    19c0:	66553593          	sltiu	a1,a0,1637
    19c4:	68b12a23          	sw	a1,1684(sp)

000019c8 <inst_440>:
    19c8:	66666537          	lui	a0,0x66666
    19cc:	66550513          	addi	a0,a0,1637 # 66666665 <_end+0x66663245>
    19d0:	02c53593          	sltiu	a1,a0,44
    19d4:	68b12c23          	sw	a1,1688(sp)

000019d8 <inst_441>:
    19d8:	66666537          	lui	a0,0x66666
    19dc:	66550513          	addi	a0,a0,1637 # 66666665 <_end+0x66663245>
    19e0:	03e53593          	sltiu	a1,a0,62
    19e4:	68b12e23          	sw	a1,1692(sp)

000019e8 <inst_442>:
    19e8:	66666537          	lui	a0,0x66666
    19ec:	66550513          	addi	a0,a0,1637 # 66666665 <_end+0x66663245>
    19f0:	55653593          	sltiu	a1,a0,1366
    19f4:	6ab12023          	sw	a1,1696(sp)

000019f8 <inst_443>:
    19f8:	00010537          	lui	a0,0x10
    19fc:	ffe50513          	addi	a0,a0,-2 # fffe <_end+0xcbde>
    1a00:	66553593          	sltiu	a1,a0,1637
    1a04:	6ab12223          	sw	a1,1700(sp)

00001a08 <inst_444>:
    1a08:	00010537          	lui	a0,0x10
    1a0c:	ffe50513          	addi	a0,a0,-2 # fffe <_end+0xcbde>
    1a10:	02c53593          	sltiu	a1,a0,44
    1a14:	6ab12423          	sw	a1,1704(sp)

00001a18 <inst_445>:
    1a18:	00010537          	lui	a0,0x10
    1a1c:	ffe50513          	addi	a0,a0,-2 # fffe <_end+0xcbde>
    1a20:	03e53593          	sltiu	a1,a0,62
    1a24:	6ab12623          	sw	a1,1708(sp)

00001a28 <inst_446>:
    1a28:	00010537          	lui	a0,0x10
    1a2c:	ffe50513          	addi	a0,a0,-2 # fffe <_end+0xcbde>
    1a30:	55653593          	sltiu	a1,a0,1366
    1a34:	6ab12823          	sw	a1,1712(sp)

00001a38 <inst_447>:
    1a38:	00010537          	lui	a0,0x10
    1a3c:	ffe50513          	addi	a0,a0,-2 # fffe <_end+0xcbde>
    1a40:	aab53593          	sltiu	a1,a0,-1365
    1a44:	6ab12a23          	sw	a1,1716(sp)

00001a48 <inst_448>:
    1a48:	00010537          	lui	a0,0x10
    1a4c:	ffe50513          	addi	a0,a0,-2 # fffe <_end+0xcbde>
    1a50:	00653593          	sltiu	a1,a0,6
    1a54:	6ab12c23          	sw	a1,1720(sp)

00001a58 <inst_449>:
    1a58:	00010537          	lui	a0,0x10
    1a5c:	ffe50513          	addi	a0,a0,-2 # fffe <_end+0xcbde>
    1a60:	33453593          	sltiu	a1,a0,820
    1a64:	6ab12e23          	sw	a1,1724(sp)

00001a68 <inst_450>:
    1a68:	00010537          	lui	a0,0x10
    1a6c:	ffe50513          	addi	a0,a0,-2 # fffe <_end+0xcbde>
    1a70:	66753593          	sltiu	a1,a0,1639
    1a74:	6cb12023          	sw	a1,1728(sp)

00001a78 <inst_451>:
    1a78:	00010537          	lui	a0,0x10
    1a7c:	ffe50513          	addi	a0,a0,-2 # fffe <_end+0xcbde>
    1a80:	02e53593          	sltiu	a1,a0,46
    1a84:	6cb12223          	sw	a1,1732(sp)

00001a88 <inst_452>:
    1a88:	00010537          	lui	a0,0x10
    1a8c:	ffe50513          	addi	a0,a0,-2 # fffe <_end+0xcbde>
    1a90:	00153593          	seqz	a1,a0
    1a94:	6cb12423          	sw	a1,1736(sp)

00001a98 <inst_453>:
    1a98:	00010537          	lui	a0,0x10
    1a9c:	ffe50513          	addi	a0,a0,-2 # fffe <_end+0xcbde>
    1aa0:	04053593          	sltiu	a1,a0,64
    1aa4:	6cb12623          	sw	a1,1740(sp)

00001aa8 <inst_454>:
    1aa8:	55555537          	lui	a0,0x55555
    1aac:	55650513          	addi	a0,a0,1366 # 55555556 <_end+0x55552136>
    1ab0:	00353593          	sltiu	a1,a0,3
    1ab4:	6cb12823          	sw	a1,1744(sp)

00001ab8 <inst_455>:
    1ab8:	55555537          	lui	a0,0x55555
    1abc:	55650513          	addi	a0,a0,1366 # 55555556 <_end+0x55552136>
    1ac0:	55553593          	sltiu	a1,a0,1365
    1ac4:	6cb12a23          	sw	a1,1748(sp)

00001ac8 <inst_456>:
    1ac8:	55555537          	lui	a0,0x55555
    1acc:	55650513          	addi	a0,a0,1366 # 55555556 <_end+0x55552136>
    1ad0:	aaa53593          	sltiu	a1,a0,-1366
    1ad4:	6cb12c23          	sw	a1,1752(sp)

00001ad8 <inst_457>:
    1ad8:	55555537          	lui	a0,0x55555
    1adc:	55650513          	addi	a0,a0,1366 # 55555556 <_end+0x55552136>
    1ae0:	00553593          	sltiu	a1,a0,5
    1ae4:	6cb12e23          	sw	a1,1756(sp)

00001ae8 <inst_458>:
    1ae8:	55555537          	lui	a0,0x55555
    1aec:	55650513          	addi	a0,a0,1366 # 55555556 <_end+0x55552136>
    1af0:	33353593          	sltiu	a1,a0,819
    1af4:	6eb12023          	sw	a1,1760(sp)

00001af8 <inst_459>:
    1af8:	55555537          	lui	a0,0x55555
    1afc:	55650513          	addi	a0,a0,1366 # 55555556 <_end+0x55552136>
    1b00:	66653593          	sltiu	a1,a0,1638
    1b04:	6eb12223          	sw	a1,1764(sp)

00001b08 <inst_460>:
    1b08:	55555537          	lui	a0,0x55555
    1b0c:	55650513          	addi	a0,a0,1366 # 55555556 <_end+0x55552136>
    1b10:	02d53593          	sltiu	a1,a0,45
    1b14:	6eb12423          	sw	a1,1768(sp)

00001b18 <inst_461>:
    1b18:	55555537          	lui	a0,0x55555
    1b1c:	55650513          	addi	a0,a0,1366 # 55555556 <_end+0x55552136>
    1b20:	00053593          	sltiu	a1,a0,0
    1b24:	6eb12623          	sw	a1,1772(sp)

00001b28 <inst_462>:
    1b28:	55555537          	lui	a0,0x55555
    1b2c:	55650513          	addi	a0,a0,1366 # 55555556 <_end+0x55552136>
    1b30:	03f53593          	sltiu	a1,a0,63
    1b34:	6eb12823          	sw	a1,1776(sp)

00001b38 <inst_463>:
    1b38:	55555537          	lui	a0,0x55555
    1b3c:	55650513          	addi	a0,a0,1366 # 55555556 <_end+0x55552136>
    1b40:	00253593          	sltiu	a1,a0,2
    1b44:	6eb12a23          	sw	a1,1780(sp)

00001b48 <inst_464>:
    1b48:	55555537          	lui	a0,0x55555
    1b4c:	55650513          	addi	a0,a0,1366 # 55555556 <_end+0x55552136>
    1b50:	55453593          	sltiu	a1,a0,1364
    1b54:	6eb12c23          	sw	a1,1784(sp)

00001b58 <inst_465>:
    1b58:	55555537          	lui	a0,0x55555
    1b5c:	55650513          	addi	a0,a0,1366 # 55555556 <_end+0x55552136>
    1b60:	aa953593          	sltiu	a1,a0,-1367
    1b64:	6eb12e23          	sw	a1,1788(sp)

00001b68 <inst_466>:
    1b68:	55555537          	lui	a0,0x55555
    1b6c:	55650513          	addi	a0,a0,1366 # 55555556 <_end+0x55552136>
    1b70:	00453593          	sltiu	a1,a0,4
    1b74:	70b12023          	sw	a1,1792(sp)

00001b78 <inst_467>:
    1b78:	55555537          	lui	a0,0x55555
    1b7c:	55650513          	addi	a0,a0,1366 # 55555556 <_end+0x55552136>
    1b80:	33253593          	sltiu	a1,a0,818
    1b84:	70b12223          	sw	a1,1796(sp)

00001b88 <inst_468>:
    1b88:	55555537          	lui	a0,0x55555
    1b8c:	55650513          	addi	a0,a0,1366 # 55555556 <_end+0x55552136>
    1b90:	66553593          	sltiu	a1,a0,1637
    1b94:	70b12423          	sw	a1,1800(sp)

00001b98 <inst_469>:
    1b98:	55555537          	lui	a0,0x55555
    1b9c:	55650513          	addi	a0,a0,1366 # 55555556 <_end+0x55552136>
    1ba0:	02c53593          	sltiu	a1,a0,44
    1ba4:	70b12623          	sw	a1,1804(sp)

00001ba8 <inst_470>:
    1ba8:	55555537          	lui	a0,0x55555
    1bac:	55650513          	addi	a0,a0,1366 # 55555556 <_end+0x55552136>
    1bb0:	03e53593          	sltiu	a1,a0,62
    1bb4:	70b12823          	sw	a1,1808(sp)

00001bb8 <inst_471>:
    1bb8:	55555537          	lui	a0,0x55555
    1bbc:	55650513          	addi	a0,a0,1366 # 55555556 <_end+0x55552136>
    1bc0:	55653593          	sltiu	a1,a0,1366
    1bc4:	70b12a23          	sw	a1,1812(sp)

00001bc8 <inst_472>:
    1bc8:	55555537          	lui	a0,0x55555
    1bcc:	55650513          	addi	a0,a0,1366 # 55555556 <_end+0x55552136>
    1bd0:	aab53593          	sltiu	a1,a0,-1365
    1bd4:	70b12c23          	sw	a1,1816(sp)

00001bd8 <inst_473>:
    1bd8:	55555537          	lui	a0,0x55555
    1bdc:	55650513          	addi	a0,a0,1366 # 55555556 <_end+0x55552136>
    1be0:	00653593          	sltiu	a1,a0,6
    1be4:	70b12e23          	sw	a1,1820(sp)

00001be8 <inst_474>:
    1be8:	55555537          	lui	a0,0x55555
    1bec:	55650513          	addi	a0,a0,1366 # 55555556 <_end+0x55552136>
    1bf0:	33453593          	sltiu	a1,a0,820
    1bf4:	72b12023          	sw	a1,1824(sp)

00001bf8 <inst_475>:
    1bf8:	55555537          	lui	a0,0x55555
    1bfc:	55650513          	addi	a0,a0,1366 # 55555556 <_end+0x55552136>
    1c00:	66753593          	sltiu	a1,a0,1639
    1c04:	72b12223          	sw	a1,1828(sp)

00001c08 <inst_476>:
    1c08:	55555537          	lui	a0,0x55555
    1c0c:	55650513          	addi	a0,a0,1366 # 55555556 <_end+0x55552136>
    1c10:	02e53593          	sltiu	a1,a0,46
    1c14:	72b12423          	sw	a1,1832(sp)

00001c18 <inst_477>:
    1c18:	55555537          	lui	a0,0x55555
    1c1c:	55650513          	addi	a0,a0,1366 # 55555556 <_end+0x55552136>
    1c20:	00153593          	seqz	a1,a0
    1c24:	72b12623          	sw	a1,1836(sp)

00001c28 <inst_478>:
    1c28:	55555537          	lui	a0,0x55555
    1c2c:	55650513          	addi	a0,a0,1366 # 55555556 <_end+0x55552136>
    1c30:	04053593          	sltiu	a1,a0,64
    1c34:	72b12823          	sw	a1,1840(sp)

00001c38 <inst_479>:
    1c38:	aaaab537          	lui	a0,0xaaaab
    1c3c:	aab50513          	addi	a0,a0,-1365 # aaaaaaab <_end+0xaaaa768b>
    1c40:	00353593          	sltiu	a1,a0,3
    1c44:	72b12a23          	sw	a1,1844(sp)

00001c48 <inst_480>:
    1c48:	aaaab537          	lui	a0,0xaaaab
    1c4c:	aab50513          	addi	a0,a0,-1365 # aaaaaaab <_end+0xaaaa768b>
    1c50:	55553593          	sltiu	a1,a0,1365
    1c54:	72b12c23          	sw	a1,1848(sp)

00001c58 <inst_481>:
    1c58:	aaaab537          	lui	a0,0xaaaab
    1c5c:	aab50513          	addi	a0,a0,-1365 # aaaaaaab <_end+0xaaaa768b>
    1c60:	aaa53593          	sltiu	a1,a0,-1366
    1c64:	72b12e23          	sw	a1,1852(sp)

00001c68 <inst_482>:
    1c68:	aaaab537          	lui	a0,0xaaaab
    1c6c:	aab50513          	addi	a0,a0,-1365 # aaaaaaab <_end+0xaaaa768b>
    1c70:	00553593          	sltiu	a1,a0,5
    1c74:	74b12023          	sw	a1,1856(sp)

00001c78 <inst_483>:
    1c78:	aaaab537          	lui	a0,0xaaaab
    1c7c:	aab50513          	addi	a0,a0,-1365 # aaaaaaab <_end+0xaaaa768b>
    1c80:	33353593          	sltiu	a1,a0,819
    1c84:	74b12223          	sw	a1,1860(sp)

00001c88 <inst_484>:
    1c88:	aaaab537          	lui	a0,0xaaaab
    1c8c:	aab50513          	addi	a0,a0,-1365 # aaaaaaab <_end+0xaaaa768b>
    1c90:	66653593          	sltiu	a1,a0,1638
    1c94:	74b12423          	sw	a1,1864(sp)

00001c98 <inst_485>:
    1c98:	aaaab537          	lui	a0,0xaaaab
    1c9c:	aab50513          	addi	a0,a0,-1365 # aaaaaaab <_end+0xaaaa768b>
    1ca0:	02d53593          	sltiu	a1,a0,45
    1ca4:	74b12623          	sw	a1,1868(sp)

00001ca8 <inst_486>:
    1ca8:	aaaab537          	lui	a0,0xaaaab
    1cac:	aab50513          	addi	a0,a0,-1365 # aaaaaaab <_end+0xaaaa768b>
    1cb0:	00053593          	sltiu	a1,a0,0
    1cb4:	74b12823          	sw	a1,1872(sp)

00001cb8 <inst_487>:
    1cb8:	aaaab537          	lui	a0,0xaaaab
    1cbc:	aab50513          	addi	a0,a0,-1365 # aaaaaaab <_end+0xaaaa768b>
    1cc0:	03f53593          	sltiu	a1,a0,63
    1cc4:	74b12a23          	sw	a1,1876(sp)

00001cc8 <inst_488>:
    1cc8:	aaaab537          	lui	a0,0xaaaab
    1ccc:	aab50513          	addi	a0,a0,-1365 # aaaaaaab <_end+0xaaaa768b>
    1cd0:	00253593          	sltiu	a1,a0,2
    1cd4:	74b12c23          	sw	a1,1880(sp)

00001cd8 <inst_489>:
    1cd8:	aaaab537          	lui	a0,0xaaaab
    1cdc:	aab50513          	addi	a0,a0,-1365 # aaaaaaab <_end+0xaaaa768b>
    1ce0:	55453593          	sltiu	a1,a0,1364
    1ce4:	74b12e23          	sw	a1,1884(sp)

00001ce8 <inst_490>:
    1ce8:	aaaab537          	lui	a0,0xaaaab
    1cec:	aab50513          	addi	a0,a0,-1365 # aaaaaaab <_end+0xaaaa768b>
    1cf0:	aa953593          	sltiu	a1,a0,-1367
    1cf4:	76b12023          	sw	a1,1888(sp)

00001cf8 <inst_491>:
    1cf8:	aaaab537          	lui	a0,0xaaaab
    1cfc:	aab50513          	addi	a0,a0,-1365 # aaaaaaab <_end+0xaaaa768b>
    1d00:	00453593          	sltiu	a1,a0,4
    1d04:	76b12223          	sw	a1,1892(sp)

00001d08 <inst_492>:
    1d08:	aaaab537          	lui	a0,0xaaaab
    1d0c:	aab50513          	addi	a0,a0,-1365 # aaaaaaab <_end+0xaaaa768b>
    1d10:	33253593          	sltiu	a1,a0,818
    1d14:	76b12423          	sw	a1,1896(sp)

00001d18 <inst_493>:
    1d18:	aaaab537          	lui	a0,0xaaaab
    1d1c:	aab50513          	addi	a0,a0,-1365 # aaaaaaab <_end+0xaaaa768b>
    1d20:	66553593          	sltiu	a1,a0,1637
    1d24:	76b12623          	sw	a1,1900(sp)

00001d28 <inst_494>:
    1d28:	aaaab537          	lui	a0,0xaaaab
    1d2c:	aab50513          	addi	a0,a0,-1365 # aaaaaaab <_end+0xaaaa768b>
    1d30:	02c53593          	sltiu	a1,a0,44
    1d34:	76b12823          	sw	a1,1904(sp)

00001d38 <inst_495>:
    1d38:	aaaab537          	lui	a0,0xaaaab
    1d3c:	aab50513          	addi	a0,a0,-1365 # aaaaaaab <_end+0xaaaa768b>
    1d40:	03e53593          	sltiu	a1,a0,62
    1d44:	76b12a23          	sw	a1,1908(sp)

00001d48 <inst_496>:
    1d48:	aaaab537          	lui	a0,0xaaaab
    1d4c:	aab50513          	addi	a0,a0,-1365 # aaaaaaab <_end+0xaaaa768b>
    1d50:	55653593          	sltiu	a1,a0,1366
    1d54:	76b12c23          	sw	a1,1912(sp)

00001d58 <inst_497>:
    1d58:	aaaab537          	lui	a0,0xaaaab
    1d5c:	aab50513          	addi	a0,a0,-1365 # aaaaaaab <_end+0xaaaa768b>
    1d60:	aab53593          	sltiu	a1,a0,-1365
    1d64:	76b12e23          	sw	a1,1916(sp)

00001d68 <inst_498>:
    1d68:	aaaab537          	lui	a0,0xaaaab
    1d6c:	aab50513          	addi	a0,a0,-1365 # aaaaaaab <_end+0xaaaa768b>
    1d70:	00653593          	sltiu	a1,a0,6
    1d74:	78b12023          	sw	a1,1920(sp)

00001d78 <inst_499>:
    1d78:	aaaab537          	lui	a0,0xaaaab
    1d7c:	aab50513          	addi	a0,a0,-1365 # aaaaaaab <_end+0xaaaa768b>
    1d80:	33453593          	sltiu	a1,a0,820
    1d84:	78b12223          	sw	a1,1924(sp)

00001d88 <inst_500>:
    1d88:	aaaab537          	lui	a0,0xaaaab
    1d8c:	aab50513          	addi	a0,a0,-1365 # aaaaaaab <_end+0xaaaa768b>
    1d90:	66753593          	sltiu	a1,a0,1639
    1d94:	78b12423          	sw	a1,1928(sp)

00001d98 <inst_501>:
    1d98:	aaaab537          	lui	a0,0xaaaab
    1d9c:	aab50513          	addi	a0,a0,-1365 # aaaaaaab <_end+0xaaaa768b>
    1da0:	02e53593          	sltiu	a1,a0,46
    1da4:	78b12623          	sw	a1,1932(sp)

00001da8 <inst_502>:
    1da8:	aaaab537          	lui	a0,0xaaaab
    1dac:	aab50513          	addi	a0,a0,-1365 # aaaaaaab <_end+0xaaaa768b>
    1db0:	00153593          	seqz	a1,a0
    1db4:	78b12823          	sw	a1,1936(sp)

00001db8 <inst_503>:
    1db8:	aaaab537          	lui	a0,0xaaaab
    1dbc:	aab50513          	addi	a0,a0,-1365 # aaaaaaab <_end+0xaaaa768b>
    1dc0:	04053593          	sltiu	a1,a0,64
    1dc4:	78b12a23          	sw	a1,1940(sp)

00001dc8 <inst_504>:
    1dc8:	00600513          	li	a0,6
    1dcc:	00353593          	sltiu	a1,a0,3
    1dd0:	78b12c23          	sw	a1,1944(sp)

00001dd4 <inst_505>:
    1dd4:	00600513          	li	a0,6
    1dd8:	55553593          	sltiu	a1,a0,1365
    1ddc:	78b12e23          	sw	a1,1948(sp)

00001de0 <inst_506>:
    1de0:	00600513          	li	a0,6
    1de4:	aaa53593          	sltiu	a1,a0,-1366
    1de8:	7ab12023          	sw	a1,1952(sp)

00001dec <inst_507>:
    1dec:	00600513          	li	a0,6
    1df0:	00553593          	sltiu	a1,a0,5
    1df4:	7ab12223          	sw	a1,1956(sp)

00001df8 <inst_508>:
    1df8:	00600513          	li	a0,6
    1dfc:	33353593          	sltiu	a1,a0,819
    1e00:	7ab12423          	sw	a1,1960(sp)

00001e04 <inst_509>:
    1e04:	00600513          	li	a0,6
    1e08:	66653593          	sltiu	a1,a0,1638
    1e0c:	7ab12623          	sw	a1,1964(sp)

00001e10 <inst_510>:
    1e10:	00600513          	li	a0,6
    1e14:	02d53593          	sltiu	a1,a0,45
    1e18:	7ab12823          	sw	a1,1968(sp)

00001e1c <inst_511>:
    1e1c:	00600513          	li	a0,6
    1e20:	00053593          	sltiu	a1,a0,0
    1e24:	7ab12a23          	sw	a1,1972(sp)

00001e28 <inst_512>:
    1e28:	00600513          	li	a0,6
    1e2c:	03f53593          	sltiu	a1,a0,63
    1e30:	7ab12c23          	sw	a1,1976(sp)

00001e34 <inst_513>:
    1e34:	00600513          	li	a0,6
    1e38:	00253593          	sltiu	a1,a0,2
    1e3c:	7ab12e23          	sw	a1,1980(sp)

00001e40 <inst_514>:
    1e40:	00600513          	li	a0,6
    1e44:	55453593          	sltiu	a1,a0,1364
    1e48:	7cb12023          	sw	a1,1984(sp)

00001e4c <inst_515>:
    1e4c:	00600513          	li	a0,6
    1e50:	aa953593          	sltiu	a1,a0,-1367
    1e54:	7cb12223          	sw	a1,1988(sp)

00001e58 <inst_516>:
    1e58:	00600513          	li	a0,6
    1e5c:	00453593          	sltiu	a1,a0,4
    1e60:	7cb12423          	sw	a1,1992(sp)

00001e64 <inst_517>:
    1e64:	00600513          	li	a0,6
    1e68:	33253593          	sltiu	a1,a0,818
    1e6c:	7cb12623          	sw	a1,1996(sp)

00001e70 <inst_518>:
    1e70:	00600513          	li	a0,6
    1e74:	66553593          	sltiu	a1,a0,1637
    1e78:	7cb12823          	sw	a1,2000(sp)

00001e7c <inst_519>:
    1e7c:	00600513          	li	a0,6
    1e80:	02c53593          	sltiu	a1,a0,44
    1e84:	7cb12a23          	sw	a1,2004(sp)

00001e88 <inst_520>:
    1e88:	00600513          	li	a0,6
    1e8c:	03e53593          	sltiu	a1,a0,62
    1e90:	7cb12c23          	sw	a1,2008(sp)

00001e94 <inst_521>:
    1e94:	00600513          	li	a0,6
    1e98:	55653593          	sltiu	a1,a0,1366
    1e9c:	7cb12e23          	sw	a1,2012(sp)

00001ea0 <inst_522>:
    1ea0:	00600513          	li	a0,6
    1ea4:	aab53593          	sltiu	a1,a0,-1365
    1ea8:	7eb12023          	sw	a1,2016(sp)

00001eac <inst_523>:
    1eac:	00600513          	li	a0,6
    1eb0:	00653593          	sltiu	a1,a0,6
    1eb4:	7eb12223          	sw	a1,2020(sp)

00001eb8 <inst_524>:
    1eb8:	00600513          	li	a0,6
    1ebc:	33453593          	sltiu	a1,a0,820
    1ec0:	7eb12423          	sw	a1,2024(sp)

00001ec4 <inst_525>:
    1ec4:	00600513          	li	a0,6
    1ec8:	66753593          	sltiu	a1,a0,1639
    1ecc:	7eb12623          	sw	a1,2028(sp)

00001ed0 <inst_526>:
    1ed0:	00600513          	li	a0,6
    1ed4:	02e53593          	sltiu	a1,a0,46
    1ed8:	7eb12823          	sw	a1,2032(sp)

00001edc <inst_527>:
    1edc:	00600513          	li	a0,6
    1ee0:	00153593          	seqz	a1,a0
    1ee4:	7eb12a23          	sw	a1,2036(sp)

00001ee8 <inst_528>:
    1ee8:	00600513          	li	a0,6
    1eec:	04053593          	sltiu	a1,a0,64
    1ef0:	7eb12c23          	sw	a1,2040(sp)

00001ef4 <inst_529>:
    1ef4:	33333537          	lui	a0,0x33333
    1ef8:	33450513          	addi	a0,a0,820 # 33333334 <_end+0x3332ff14>
    1efc:	00353593          	sltiu	a1,a0,3
    1f00:	7eb12e23          	sw	a1,2044(sp)
    1f04:	00001117          	auipc	sp,0x1
    1f08:	27410113          	addi	sp,sp,628 # 3178 <signature_x2_1>

00001f0c <inst_530>:
    1f0c:	33333537          	lui	a0,0x33333
    1f10:	33450513          	addi	a0,a0,820 # 33333334 <_end+0x3332ff14>
    1f14:	55553593          	sltiu	a1,a0,1365
    1f18:	00b12023          	sw	a1,0(sp)

00001f1c <inst_531>:
    1f1c:	33333537          	lui	a0,0x33333
    1f20:	33450513          	addi	a0,a0,820 # 33333334 <_end+0x3332ff14>
    1f24:	aaa53593          	sltiu	a1,a0,-1366
    1f28:	00b12223          	sw	a1,4(sp)

00001f2c <inst_532>:
    1f2c:	33333537          	lui	a0,0x33333
    1f30:	33450513          	addi	a0,a0,820 # 33333334 <_end+0x3332ff14>
    1f34:	00553593          	sltiu	a1,a0,5
    1f38:	00b12423          	sw	a1,8(sp)

00001f3c <inst_533>:
    1f3c:	33333537          	lui	a0,0x33333
    1f40:	33450513          	addi	a0,a0,820 # 33333334 <_end+0x3332ff14>
    1f44:	33353593          	sltiu	a1,a0,819
    1f48:	00b12623          	sw	a1,12(sp)

00001f4c <inst_534>:
    1f4c:	33333537          	lui	a0,0x33333
    1f50:	33450513          	addi	a0,a0,820 # 33333334 <_end+0x3332ff14>
    1f54:	66653593          	sltiu	a1,a0,1638
    1f58:	00b12823          	sw	a1,16(sp)

00001f5c <inst_535>:
    1f5c:	33333537          	lui	a0,0x33333
    1f60:	33450513          	addi	a0,a0,820 # 33333334 <_end+0x3332ff14>
    1f64:	02d53593          	sltiu	a1,a0,45
    1f68:	00b12a23          	sw	a1,20(sp)

00001f6c <inst_536>:
    1f6c:	33333537          	lui	a0,0x33333
    1f70:	33450513          	addi	a0,a0,820 # 33333334 <_end+0x3332ff14>
    1f74:	00053593          	sltiu	a1,a0,0
    1f78:	00b12c23          	sw	a1,24(sp)

00001f7c <inst_537>:
    1f7c:	33333537          	lui	a0,0x33333
    1f80:	33450513          	addi	a0,a0,820 # 33333334 <_end+0x3332ff14>
    1f84:	03f53593          	sltiu	a1,a0,63
    1f88:	00b12e23          	sw	a1,28(sp)

00001f8c <inst_538>:
    1f8c:	33333537          	lui	a0,0x33333
    1f90:	33450513          	addi	a0,a0,820 # 33333334 <_end+0x3332ff14>
    1f94:	00253593          	sltiu	a1,a0,2
    1f98:	02b12023          	sw	a1,32(sp)

00001f9c <inst_539>:
    1f9c:	33333537          	lui	a0,0x33333
    1fa0:	33450513          	addi	a0,a0,820 # 33333334 <_end+0x3332ff14>
    1fa4:	55453593          	sltiu	a1,a0,1364
    1fa8:	02b12223          	sw	a1,36(sp)

00001fac <inst_540>:
    1fac:	33333537          	lui	a0,0x33333
    1fb0:	33450513          	addi	a0,a0,820 # 33333334 <_end+0x3332ff14>
    1fb4:	aa953593          	sltiu	a1,a0,-1367
    1fb8:	02b12423          	sw	a1,40(sp)

00001fbc <inst_541>:
    1fbc:	33333537          	lui	a0,0x33333
    1fc0:	33450513          	addi	a0,a0,820 # 33333334 <_end+0x3332ff14>
    1fc4:	00453593          	sltiu	a1,a0,4
    1fc8:	02b12623          	sw	a1,44(sp)

00001fcc <inst_542>:
    1fcc:	33333537          	lui	a0,0x33333
    1fd0:	33450513          	addi	a0,a0,820 # 33333334 <_end+0x3332ff14>
    1fd4:	33253593          	sltiu	a1,a0,818
    1fd8:	02b12823          	sw	a1,48(sp)

00001fdc <inst_543>:
    1fdc:	33333537          	lui	a0,0x33333
    1fe0:	33450513          	addi	a0,a0,820 # 33333334 <_end+0x3332ff14>
    1fe4:	66553593          	sltiu	a1,a0,1637
    1fe8:	02b12a23          	sw	a1,52(sp)

00001fec <inst_544>:
    1fec:	33333537          	lui	a0,0x33333
    1ff0:	33450513          	addi	a0,a0,820 # 33333334 <_end+0x3332ff14>
    1ff4:	02c53593          	sltiu	a1,a0,44
    1ff8:	02b12c23          	sw	a1,56(sp)

00001ffc <inst_545>:
    1ffc:	33333537          	lui	a0,0x33333
    2000:	33450513          	addi	a0,a0,820 # 33333334 <_end+0x3332ff14>
    2004:	03e53593          	sltiu	a1,a0,62
    2008:	02b12e23          	sw	a1,60(sp)

0000200c <inst_546>:
    200c:	33333537          	lui	a0,0x33333
    2010:	33450513          	addi	a0,a0,820 # 33333334 <_end+0x3332ff14>
    2014:	55653593          	sltiu	a1,a0,1366
    2018:	04b12023          	sw	a1,64(sp)

0000201c <inst_547>:
    201c:	33333537          	lui	a0,0x33333
    2020:	33450513          	addi	a0,a0,820 # 33333334 <_end+0x3332ff14>
    2024:	aab53593          	sltiu	a1,a0,-1365
    2028:	04b12223          	sw	a1,68(sp)

0000202c <inst_548>:
    202c:	33333537          	lui	a0,0x33333
    2030:	33450513          	addi	a0,a0,820 # 33333334 <_end+0x3332ff14>
    2034:	00653593          	sltiu	a1,a0,6
    2038:	04b12423          	sw	a1,72(sp)

0000203c <inst_549>:
    203c:	33333537          	lui	a0,0x33333
    2040:	33450513          	addi	a0,a0,820 # 33333334 <_end+0x3332ff14>
    2044:	33453593          	sltiu	a1,a0,820
    2048:	04b12623          	sw	a1,76(sp)

0000204c <inst_550>:
    204c:	33333537          	lui	a0,0x33333
    2050:	33450513          	addi	a0,a0,820 # 33333334 <_end+0x3332ff14>
    2054:	66753593          	sltiu	a1,a0,1639
    2058:	04b12823          	sw	a1,80(sp)

0000205c <inst_551>:
    205c:	33333537          	lui	a0,0x33333
    2060:	33450513          	addi	a0,a0,820 # 33333334 <_end+0x3332ff14>
    2064:	02e53593          	sltiu	a1,a0,46
    2068:	04b12a23          	sw	a1,84(sp)

0000206c <inst_552>:
    206c:	33333537          	lui	a0,0x33333
    2070:	33450513          	addi	a0,a0,820 # 33333334 <_end+0x3332ff14>
    2074:	00153593          	seqz	a1,a0
    2078:	04b12c23          	sw	a1,88(sp)

0000207c <inst_553>:
    207c:	33333537          	lui	a0,0x33333
    2080:	33450513          	addi	a0,a0,820 # 33333334 <_end+0x3332ff14>
    2084:	04053593          	sltiu	a1,a0,64
    2088:	04b12e23          	sw	a1,92(sp)

0000208c <inst_554>:
    208c:	66666537          	lui	a0,0x66666
    2090:	66750513          	addi	a0,a0,1639 # 66666667 <_end+0x66663247>
    2094:	00353593          	sltiu	a1,a0,3
    2098:	06b12023          	sw	a1,96(sp)

0000209c <inst_555>:
    209c:	66666537          	lui	a0,0x66666
    20a0:	66750513          	addi	a0,a0,1639 # 66666667 <_end+0x66663247>
    20a4:	55553593          	sltiu	a1,a0,1365
    20a8:	06b12223          	sw	a1,100(sp)

000020ac <inst_556>:
    20ac:	66666537          	lui	a0,0x66666
    20b0:	66750513          	addi	a0,a0,1639 # 66666667 <_end+0x66663247>
    20b4:	aaa53593          	sltiu	a1,a0,-1366
    20b8:	06b12423          	sw	a1,104(sp)

000020bc <inst_557>:
    20bc:	66666537          	lui	a0,0x66666
    20c0:	66750513          	addi	a0,a0,1639 # 66666667 <_end+0x66663247>
    20c4:	00553593          	sltiu	a1,a0,5
    20c8:	06b12623          	sw	a1,108(sp)

000020cc <inst_558>:
    20cc:	66666537          	lui	a0,0x66666
    20d0:	66750513          	addi	a0,a0,1639 # 66666667 <_end+0x66663247>
    20d4:	33353593          	sltiu	a1,a0,819
    20d8:	06b12823          	sw	a1,112(sp)

000020dc <inst_559>:
    20dc:	66666537          	lui	a0,0x66666
    20e0:	66750513          	addi	a0,a0,1639 # 66666667 <_end+0x66663247>
    20e4:	66653593          	sltiu	a1,a0,1638
    20e8:	06b12a23          	sw	a1,116(sp)

000020ec <inst_560>:
    20ec:	66666537          	lui	a0,0x66666
    20f0:	66750513          	addi	a0,a0,1639 # 66666667 <_end+0x66663247>
    20f4:	02d53593          	sltiu	a1,a0,45
    20f8:	06b12c23          	sw	a1,120(sp)

000020fc <inst_561>:
    20fc:	66666537          	lui	a0,0x66666
    2100:	66750513          	addi	a0,a0,1639 # 66666667 <_end+0x66663247>
    2104:	00053593          	sltiu	a1,a0,0
    2108:	06b12e23          	sw	a1,124(sp)

0000210c <inst_562>:
    210c:	66666537          	lui	a0,0x66666
    2110:	66750513          	addi	a0,a0,1639 # 66666667 <_end+0x66663247>
    2114:	03f53593          	sltiu	a1,a0,63
    2118:	08b12023          	sw	a1,128(sp)

0000211c <inst_563>:
    211c:	66666537          	lui	a0,0x66666
    2120:	66750513          	addi	a0,a0,1639 # 66666667 <_end+0x66663247>
    2124:	00253593          	sltiu	a1,a0,2
    2128:	08b12223          	sw	a1,132(sp)

0000212c <inst_564>:
    212c:	66666537          	lui	a0,0x66666
    2130:	66750513          	addi	a0,a0,1639 # 66666667 <_end+0x66663247>
    2134:	55453593          	sltiu	a1,a0,1364
    2138:	08b12423          	sw	a1,136(sp)

0000213c <inst_565>:
    213c:	66666537          	lui	a0,0x66666
    2140:	66750513          	addi	a0,a0,1639 # 66666667 <_end+0x66663247>
    2144:	aa953593          	sltiu	a1,a0,-1367
    2148:	08b12623          	sw	a1,140(sp)

0000214c <inst_566>:
    214c:	66666537          	lui	a0,0x66666
    2150:	66750513          	addi	a0,a0,1639 # 66666667 <_end+0x66663247>
    2154:	00453593          	sltiu	a1,a0,4
    2158:	08b12823          	sw	a1,144(sp)

0000215c <inst_567>:
    215c:	66666537          	lui	a0,0x66666
    2160:	66750513          	addi	a0,a0,1639 # 66666667 <_end+0x66663247>
    2164:	33253593          	sltiu	a1,a0,818
    2168:	08b12a23          	sw	a1,148(sp)

0000216c <inst_568>:
    216c:	66666537          	lui	a0,0x66666
    2170:	66750513          	addi	a0,a0,1639 # 66666667 <_end+0x66663247>
    2174:	66553593          	sltiu	a1,a0,1637
    2178:	08b12c23          	sw	a1,152(sp)

0000217c <inst_569>:
    217c:	66666537          	lui	a0,0x66666
    2180:	66750513          	addi	a0,a0,1639 # 66666667 <_end+0x66663247>
    2184:	02c53593          	sltiu	a1,a0,44
    2188:	08b12e23          	sw	a1,156(sp)

0000218c <inst_570>:
    218c:	66666537          	lui	a0,0x66666
    2190:	66750513          	addi	a0,a0,1639 # 66666667 <_end+0x66663247>
    2194:	03e53593          	sltiu	a1,a0,62
    2198:	0ab12023          	sw	a1,160(sp)

0000219c <inst_571>:
    219c:	00010537          	lui	a0,0x10
    21a0:	ffe50513          	addi	a0,a0,-2 # fffe <_end+0xcbde>
    21a4:	66653593          	sltiu	a1,a0,1638
    21a8:	0ab12223          	sw	a1,164(sp)

000021ac <inst_572>:
    21ac:	66666537          	lui	a0,0x66666
    21b0:	66750513          	addi	a0,a0,1639 # 66666667 <_end+0x66663247>
    21b4:	55653593          	sltiu	a1,a0,1366
    21b8:	0ab12423          	sw	a1,168(sp)

000021bc <inst_573>:
    21bc:	66666537          	lui	a0,0x66666
    21c0:	66750513          	addi	a0,a0,1639 # 66666667 <_end+0x66663247>
    21c4:	aab53593          	sltiu	a1,a0,-1365
    21c8:	0ab12623          	sw	a1,172(sp)

000021cc <inst_574>:
    21cc:	66666537          	lui	a0,0x66666
    21d0:	66750513          	addi	a0,a0,1639 # 66666667 <_end+0x66663247>
    21d4:	00653593          	sltiu	a1,a0,6
    21d8:	0ab12823          	sw	a1,176(sp)

000021dc <inst_575>:
    21dc:	66666537          	lui	a0,0x66666
    21e0:	66750513          	addi	a0,a0,1639 # 66666667 <_end+0x66663247>
    21e4:	33453593          	sltiu	a1,a0,820
    21e8:	0ab12a23          	sw	a1,180(sp)

000021ec <inst_576>:
    21ec:	66666537          	lui	a0,0x66666
    21f0:	66750513          	addi	a0,a0,1639 # 66666667 <_end+0x66663247>
    21f4:	66753593          	sltiu	a1,a0,1639
    21f8:	0ab12c23          	sw	a1,184(sp)

000021fc <inst_577>:
    21fc:	66666537          	lui	a0,0x66666
    2200:	66750513          	addi	a0,a0,1639 # 66666667 <_end+0x66663247>
    2204:	02e53593          	sltiu	a1,a0,46
    2208:	0ab12e23          	sw	a1,188(sp)

0000220c <inst_578>:
    220c:	66666537          	lui	a0,0x66666
    2210:	66750513          	addi	a0,a0,1639 # 66666667 <_end+0x66663247>
    2214:	00153593          	seqz	a1,a0
    2218:	0cb12023          	sw	a1,192(sp)

0000221c <inst_579>:
    221c:	66666537          	lui	a0,0x66666
    2220:	66750513          	addi	a0,a0,1639 # 66666667 <_end+0x66663247>
    2224:	04053593          	sltiu	a1,a0,64
    2228:	0cb12223          	sw	a1,196(sp)

0000222c <inst_580>:
    222c:	0000b537          	lui	a0,0xb
    2230:	50550513          	addi	a0,a0,1285 # b505 <_end+0x80e5>
    2234:	00353593          	sltiu	a1,a0,3
    2238:	0cb12423          	sw	a1,200(sp)

0000223c <inst_581>:
    223c:	0000b537          	lui	a0,0xb
    2240:	50550513          	addi	a0,a0,1285 # b505 <_end+0x80e5>
    2244:	55553593          	sltiu	a1,a0,1365
    2248:	0cb12623          	sw	a1,204(sp)

0000224c <inst_582>:
    224c:	0000b537          	lui	a0,0xb
    2250:	50550513          	addi	a0,a0,1285 # b505 <_end+0x80e5>
    2254:	aaa53593          	sltiu	a1,a0,-1366
    2258:	0cb12823          	sw	a1,208(sp)

0000225c <inst_583>:
    225c:	0000b537          	lui	a0,0xb
    2260:	50550513          	addi	a0,a0,1285 # b505 <_end+0x80e5>
    2264:	00553593          	sltiu	a1,a0,5
    2268:	0cb12a23          	sw	a1,212(sp)

0000226c <inst_584>:
    226c:	0000b537          	lui	a0,0xb
    2270:	50550513          	addi	a0,a0,1285 # b505 <_end+0x80e5>
    2274:	33353593          	sltiu	a1,a0,819
    2278:	0cb12c23          	sw	a1,216(sp)

0000227c <inst_585>:
    227c:	0000b537          	lui	a0,0xb
    2280:	50550513          	addi	a0,a0,1285 # b505 <_end+0x80e5>
    2284:	66653593          	sltiu	a1,a0,1638
    2288:	0cb12e23          	sw	a1,220(sp)

0000228c <inst_586>:
    228c:	0000b537          	lui	a0,0xb
    2290:	50550513          	addi	a0,a0,1285 # b505 <_end+0x80e5>
    2294:	02d53593          	sltiu	a1,a0,45
    2298:	0eb12023          	sw	a1,224(sp)

0000229c <inst_587>:
    229c:	0000b537          	lui	a0,0xb
    22a0:	50550513          	addi	a0,a0,1285 # b505 <_end+0x80e5>
    22a4:	00053593          	sltiu	a1,a0,0
    22a8:	0eb12223          	sw	a1,228(sp)

000022ac <inst_588>:
    22ac:	0000b537          	lui	a0,0xb
    22b0:	50550513          	addi	a0,a0,1285 # b505 <_end+0x80e5>
    22b4:	03f53593          	sltiu	a1,a0,63
    22b8:	0eb12423          	sw	a1,232(sp)

000022bc <inst_589>:
    22bc:	0000b537          	lui	a0,0xb
    22c0:	50550513          	addi	a0,a0,1285 # b505 <_end+0x80e5>
    22c4:	00253593          	sltiu	a1,a0,2
    22c8:	0eb12623          	sw	a1,236(sp)

000022cc <inst_590>:
    22cc:	0000b537          	lui	a0,0xb
    22d0:	50550513          	addi	a0,a0,1285 # b505 <_end+0x80e5>
    22d4:	55453593          	sltiu	a1,a0,1364
    22d8:	0eb12823          	sw	a1,240(sp)

000022dc <inst_591>:
    22dc:	0000b537          	lui	a0,0xb
    22e0:	50550513          	addi	a0,a0,1285 # b505 <_end+0x80e5>
    22e4:	aa953593          	sltiu	a1,a0,-1367
    22e8:	0eb12a23          	sw	a1,244(sp)

000022ec <inst_592>:
    22ec:	0000b537          	lui	a0,0xb
    22f0:	50550513          	addi	a0,a0,1285 # b505 <_end+0x80e5>
    22f4:	00453593          	sltiu	a1,a0,4
    22f8:	0eb12c23          	sw	a1,248(sp)

000022fc <inst_593>:
    22fc:	0000b537          	lui	a0,0xb
    2300:	50550513          	addi	a0,a0,1285 # b505 <_end+0x80e5>
    2304:	33253593          	sltiu	a1,a0,818
    2308:	0eb12e23          	sw	a1,252(sp)

0000230c <inst_594>:
    230c:	0000b537          	lui	a0,0xb
    2310:	50550513          	addi	a0,a0,1285 # b505 <_end+0x80e5>
    2314:	66553593          	sltiu	a1,a0,1637
    2318:	10b12023          	sw	a1,256(sp)

0000231c <inst_595>:
    231c:	0000b537          	lui	a0,0xb
    2320:	50550513          	addi	a0,a0,1285 # b505 <_end+0x80e5>
    2324:	02c53593          	sltiu	a1,a0,44
    2328:	10b12223          	sw	a1,260(sp)

0000232c <inst_596>:
    232c:	0000b537          	lui	a0,0xb
    2330:	50550513          	addi	a0,a0,1285 # b505 <_end+0x80e5>
    2334:	03e53593          	sltiu	a1,a0,62
    2338:	10b12423          	sw	a1,264(sp)

0000233c <inst_597>:
    233c:	0000b537          	lui	a0,0xb
    2340:	50550513          	addi	a0,a0,1285 # b505 <_end+0x80e5>
    2344:	55653593          	sltiu	a1,a0,1366
    2348:	10b12623          	sw	a1,268(sp)

0000234c <inst_598>:
    234c:	0000b537          	lui	a0,0xb
    2350:	50550513          	addi	a0,a0,1285 # b505 <_end+0x80e5>
    2354:	aab53593          	sltiu	a1,a0,-1365
    2358:	10b12823          	sw	a1,272(sp)

0000235c <inst_599>:
    235c:	0000b537          	lui	a0,0xb
    2360:	50550513          	addi	a0,a0,1285 # b505 <_end+0x80e5>
    2364:	00653593          	sltiu	a1,a0,6
    2368:	10b12a23          	sw	a1,276(sp)

0000236c <inst_600>:
    236c:	0000b537          	lui	a0,0xb
    2370:	50550513          	addi	a0,a0,1285 # b505 <_end+0x80e5>
    2374:	33453593          	sltiu	a1,a0,820
    2378:	10b12c23          	sw	a1,280(sp)

0000237c <inst_601>:
    237c:	0000b537          	lui	a0,0xb
    2380:	50550513          	addi	a0,a0,1285 # b505 <_end+0x80e5>
    2384:	66753593          	sltiu	a1,a0,1639
    2388:	10b12e23          	sw	a1,284(sp)

0000238c <inst_602>:
    238c:	0000b537          	lui	a0,0xb
    2390:	50550513          	addi	a0,a0,1285 # b505 <_end+0x80e5>
    2394:	02e53593          	sltiu	a1,a0,46
    2398:	12b12023          	sw	a1,288(sp)

0000239c <inst_603>:
    239c:	0000b537          	lui	a0,0xb
    23a0:	50550513          	addi	a0,a0,1285 # b505 <_end+0x80e5>
    23a4:	00153593          	seqz	a1,a0
    23a8:	12b12223          	sw	a1,292(sp)

000023ac <inst_604>:
    23ac:	0000b537          	lui	a0,0xb
    23b0:	50550513          	addi	a0,a0,1285 # b505 <_end+0x80e5>
    23b4:	04053593          	sltiu	a1,a0,64
    23b8:	12b12423          	sw	a1,296(sp)

000023bc <inst_605>:
    23bc:	00100513          	li	a0,1
    23c0:	00353593          	sltiu	a1,a0,3
    23c4:	12b12623          	sw	a1,300(sp)

000023c8 <inst_606>:
    23c8:	00100513          	li	a0,1
    23cc:	55553593          	sltiu	a1,a0,1365
    23d0:	12b12823          	sw	a1,304(sp)

000023d4 <inst_607>:
    23d4:	00100513          	li	a0,1
    23d8:	aaa53593          	sltiu	a1,a0,-1366
    23dc:	12b12a23          	sw	a1,308(sp)

000023e0 <inst_608>:
    23e0:	00100513          	li	a0,1
    23e4:	00553593          	sltiu	a1,a0,5
    23e8:	12b12c23          	sw	a1,312(sp)

000023ec <inst_609>:
    23ec:	00100513          	li	a0,1
    23f0:	33353593          	sltiu	a1,a0,819
    23f4:	12b12e23          	sw	a1,316(sp)

000023f8 <inst_610>:
    23f8:	00100513          	li	a0,1
    23fc:	66653593          	sltiu	a1,a0,1638
    2400:	14b12023          	sw	a1,320(sp)

00002404 <inst_611>:
    2404:	00100513          	li	a0,1
    2408:	02d53593          	sltiu	a1,a0,45
    240c:	14b12223          	sw	a1,324(sp)

00002410 <inst_612>:
    2410:	00100513          	li	a0,1
    2414:	03f53593          	sltiu	a1,a0,63
    2418:	14b12423          	sw	a1,328(sp)

0000241c <inst_613>:
    241c:	00100513          	li	a0,1
    2420:	00253593          	sltiu	a1,a0,2
    2424:	14b12623          	sw	a1,332(sp)

00002428 <inst_614>:
    2428:	00100513          	li	a0,1
    242c:	55453593          	sltiu	a1,a0,1364
    2430:	14b12823          	sw	a1,336(sp)

00002434 <inst_615>:
    2434:	00100513          	li	a0,1
    2438:	aa953593          	sltiu	a1,a0,-1367
    243c:	14b12a23          	sw	a1,340(sp)

00002440 <inst_616>:
    2440:	00100513          	li	a0,1
    2444:	00453593          	sltiu	a1,a0,4
    2448:	14b12c23          	sw	a1,344(sp)

0000244c <inst_617>:
    244c:	00100513          	li	a0,1
    2450:	33253593          	sltiu	a1,a0,818
    2454:	14b12e23          	sw	a1,348(sp)

00002458 <inst_618>:
    2458:	00100513          	li	a0,1
    245c:	66553593          	sltiu	a1,a0,1637
    2460:	16b12023          	sw	a1,352(sp)

00002464 <inst_619>:
    2464:	00100513          	li	a0,1
    2468:	02c53593          	sltiu	a1,a0,44
    246c:	16b12223          	sw	a1,356(sp)

00002470 <inst_620>:
    2470:	00100513          	li	a0,1
    2474:	03e53593          	sltiu	a1,a0,62
    2478:	16b12423          	sw	a1,360(sp)

0000247c <inst_621>:
    247c:	00100513          	li	a0,1
    2480:	55653593          	sltiu	a1,a0,1366
    2484:	16b12623          	sw	a1,364(sp)

00002488 <inst_622>:
    2488:	00100513          	li	a0,1
    248c:	aab53593          	sltiu	a1,a0,-1365
    2490:	16b12823          	sw	a1,368(sp)

00002494 <inst_623>:
    2494:	00100513          	li	a0,1
    2498:	00653593          	sltiu	a1,a0,6
    249c:	16b12a23          	sw	a1,372(sp)

000024a0 <inst_624>:
    24a0:	00100513          	li	a0,1
    24a4:	33453593          	sltiu	a1,a0,820
    24a8:	16b12c23          	sw	a1,376(sp)

000024ac <inst_625>:
    24ac:	00100513          	li	a0,1
    24b0:	66753593          	sltiu	a1,a0,1639
    24b4:	16b12e23          	sw	a1,380(sp)

000024b8 <inst_626>:
    24b8:	00100513          	li	a0,1
    24bc:	02e53593          	sltiu	a1,a0,46
    24c0:	18b12023          	sw	a1,384(sp)

000024c4 <inst_627>:
    24c4:	00100513          	li	a0,1
    24c8:	00153593          	seqz	a1,a0
    24cc:	18b12223          	sw	a1,388(sp)

000024d0 <inst_628>:
    24d0:	00100513          	li	a0,1
    24d4:	04053593          	sltiu	a1,a0,64
    24d8:	18b12423          	sw	a1,392(sp)

000024dc <inst_629>:
    24dc:	00010537          	lui	a0,0x10
    24e0:	00353593          	sltiu	a1,a0,3
    24e4:	18b12623          	sw	a1,396(sp)

000024e8 <inst_630>:
    24e8:	00010537          	lui	a0,0x10
    24ec:	55553593          	sltiu	a1,a0,1365
    24f0:	18b12823          	sw	a1,400(sp)

000024f4 <inst_631>:
    24f4:	00010537          	lui	a0,0x10
    24f8:	aaa53593          	sltiu	a1,a0,-1366
    24fc:	18b12a23          	sw	a1,404(sp)

00002500 <inst_632>:
    2500:	00010537          	lui	a0,0x10
    2504:	33353593          	sltiu	a1,a0,819
    2508:	18b12c23          	sw	a1,408(sp)

0000250c <inst_633>:
    250c:	00010537          	lui	a0,0x10
    2510:	66653593          	sltiu	a1,a0,1638
    2514:	18b12e23          	sw	a1,412(sp)

00002518 <inst_634>:
    2518:	00010537          	lui	a0,0x10
    251c:	02d53593          	sltiu	a1,a0,45
    2520:	1ab12023          	sw	a1,416(sp)

00002524 <inst_635>:
    2524:	00010537          	lui	a0,0x10
    2528:	00053593          	sltiu	a1,a0,0
    252c:	1ab12223          	sw	a1,420(sp)

00002530 <inst_636>:
    2530:	00010537          	lui	a0,0x10
    2534:	03f53593          	sltiu	a1,a0,63
    2538:	1ab12423          	sw	a1,424(sp)

0000253c <inst_637>:
    253c:	00010537          	lui	a0,0x10
    2540:	00253593          	sltiu	a1,a0,2
    2544:	1ab12623          	sw	a1,428(sp)

00002548 <inst_638>:
    2548:	00010537          	lui	a0,0x10
    254c:	55453593          	sltiu	a1,a0,1364
    2550:	1ab12823          	sw	a1,432(sp)

00002554 <inst_639>:
    2554:	00010537          	lui	a0,0x10
    2558:	aa953593          	sltiu	a1,a0,-1367
    255c:	1ab12a23          	sw	a1,436(sp)

00002560 <inst_640>:
    2560:	00010537          	lui	a0,0x10
    2564:	00453593          	sltiu	a1,a0,4
    2568:	1ab12c23          	sw	a1,440(sp)

0000256c <inst_641>:
    256c:	00010537          	lui	a0,0x10
    2570:	33253593          	sltiu	a1,a0,818
    2574:	1ab12e23          	sw	a1,444(sp)

00002578 <inst_642>:
    2578:	00010537          	lui	a0,0x10
    257c:	66553593          	sltiu	a1,a0,1637
    2580:	1cb12023          	sw	a1,448(sp)

00002584 <inst_643>:
    2584:	00010537          	lui	a0,0x10
    2588:	02c53593          	sltiu	a1,a0,44
    258c:	1cb12223          	sw	a1,452(sp)

00002590 <inst_644>:
    2590:	00010537          	lui	a0,0x10
    2594:	03e53593          	sltiu	a1,a0,62
    2598:	1cb12423          	sw	a1,456(sp)

0000259c <inst_645>:
    259c:	00010537          	lui	a0,0x10
    25a0:	55653593          	sltiu	a1,a0,1366
    25a4:	1cb12623          	sw	a1,460(sp)

000025a8 <inst_646>:
    25a8:	00010537          	lui	a0,0x10
    25ac:	aab53593          	sltiu	a1,a0,-1365
    25b0:	1cb12823          	sw	a1,464(sp)

000025b4 <inst_647>:
    25b4:	00010537          	lui	a0,0x10
    25b8:	00653593          	sltiu	a1,a0,6
    25bc:	1cb12a23          	sw	a1,468(sp)

000025c0 <inst_648>:
    25c0:	00010537          	lui	a0,0x10
    25c4:	33453593          	sltiu	a1,a0,820
    25c8:	1cb12c23          	sw	a1,472(sp)

000025cc <inst_649>:
    25cc:	00010537          	lui	a0,0x10
    25d0:	66753593          	sltiu	a1,a0,1639
    25d4:	1cb12e23          	sw	a1,476(sp)

000025d8 <inst_650>:
    25d8:	00010537          	lui	a0,0x10
    25dc:	02e53593          	sltiu	a1,a0,46
    25e0:	1eb12023          	sw	a1,480(sp)

000025e4 <inst_651>:
    25e4:	00010537          	lui	a0,0x10
    25e8:	00153593          	seqz	a1,a0
    25ec:	1eb12223          	sw	a1,484(sp)

000025f0 <inst_652>:
    25f0:	00010537          	lui	a0,0x10
    25f4:	04053593          	sltiu	a1,a0,64
    25f8:	1eb12423          	sw	a1,488(sp)

000025fc <inst_653>:
    25fc:	66666537          	lui	a0,0x66666
    2600:	66550513          	addi	a0,a0,1637 # 66666665 <_end+0x66663245>
    2604:	aab53593          	sltiu	a1,a0,-1365
    2608:	1eb12623          	sw	a1,492(sp)

0000260c <inst_654>:
    260c:	66666537          	lui	a0,0x66666
    2610:	66550513          	addi	a0,a0,1637 # 66666665 <_end+0x66663245>
    2614:	00653593          	sltiu	a1,a0,6
    2618:	1eb12823          	sw	a1,496(sp)

0000261c <inst_655>:
    261c:	66666537          	lui	a0,0x66666
    2620:	66550513          	addi	a0,a0,1637 # 66666665 <_end+0x66663245>
    2624:	33453593          	sltiu	a1,a0,820
    2628:	1eb12a23          	sw	a1,500(sp)

0000262c <inst_656>:
    262c:	66666537          	lui	a0,0x66666
    2630:	66550513          	addi	a0,a0,1637 # 66666665 <_end+0x66663245>
    2634:	66753593          	sltiu	a1,a0,1639
    2638:	1eb12c23          	sw	a1,504(sp)

0000263c <inst_657>:
    263c:	66666537          	lui	a0,0x66666
    2640:	66550513          	addi	a0,a0,1637 # 66666665 <_end+0x66663245>
    2644:	02e53593          	sltiu	a1,a0,46
    2648:	1eb12e23          	sw	a1,508(sp)

0000264c <inst_658>:
    264c:	66666537          	lui	a0,0x66666
    2650:	66550513          	addi	a0,a0,1637 # 66666665 <_end+0x66663245>
    2654:	00153593          	seqz	a1,a0
    2658:	20b12023          	sw	a1,512(sp)

0000265c <inst_659>:
    265c:	66666537          	lui	a0,0x66666
    2660:	66550513          	addi	a0,a0,1637 # 66666665 <_end+0x66663245>
    2664:	04053593          	sltiu	a1,a0,64
    2668:	20b12223          	sw	a1,516(sp)

0000266c <inst_660>:
    266c:	0000b537          	lui	a0,0xb
    2670:	50350513          	addi	a0,a0,1283 # b503 <_end+0x80e3>
    2674:	00353593          	sltiu	a1,a0,3
    2678:	20b12423          	sw	a1,520(sp)

0000267c <inst_661>:
    267c:	0000b537          	lui	a0,0xb
    2680:	50350513          	addi	a0,a0,1283 # b503 <_end+0x80e3>
    2684:	55553593          	sltiu	a1,a0,1365
    2688:	20b12623          	sw	a1,524(sp)

0000268c <inst_662>:
    268c:	0000b537          	lui	a0,0xb
    2690:	50350513          	addi	a0,a0,1283 # b503 <_end+0x80e3>
    2694:	aaa53593          	sltiu	a1,a0,-1366
    2698:	20b12823          	sw	a1,528(sp)

0000269c <inst_663>:
    269c:	0000b537          	lui	a0,0xb
    26a0:	50350513          	addi	a0,a0,1283 # b503 <_end+0x80e3>
    26a4:	00553593          	sltiu	a1,a0,5
    26a8:	20b12a23          	sw	a1,532(sp)

000026ac <inst_664>:
    26ac:	0000b537          	lui	a0,0xb
    26b0:	50350513          	addi	a0,a0,1283 # b503 <_end+0x80e3>
    26b4:	33353593          	sltiu	a1,a0,819
    26b8:	20b12c23          	sw	a1,536(sp)

000026bc <inst_665>:
    26bc:	0000b537          	lui	a0,0xb
    26c0:	50350513          	addi	a0,a0,1283 # b503 <_end+0x80e3>
    26c4:	66653593          	sltiu	a1,a0,1638
    26c8:	20b12e23          	sw	a1,540(sp)

000026cc <inst_666>:
    26cc:	0000b537          	lui	a0,0xb
    26d0:	50350513          	addi	a0,a0,1283 # b503 <_end+0x80e3>
    26d4:	02d53593          	sltiu	a1,a0,45
    26d8:	22b12023          	sw	a1,544(sp)

000026dc <inst_667>:
    26dc:	0000b537          	lui	a0,0xb
    26e0:	50350513          	addi	a0,a0,1283 # b503 <_end+0x80e3>
    26e4:	00053593          	sltiu	a1,a0,0
    26e8:	22b12223          	sw	a1,548(sp)

000026ec <inst_668>:
    26ec:	0000b537          	lui	a0,0xb
    26f0:	50350513          	addi	a0,a0,1283 # b503 <_end+0x80e3>
    26f4:	03f53593          	sltiu	a1,a0,63
    26f8:	22b12423          	sw	a1,552(sp)

000026fc <inst_669>:
    26fc:	0000b537          	lui	a0,0xb
    2700:	50350513          	addi	a0,a0,1283 # b503 <_end+0x80e3>
    2704:	00253593          	sltiu	a1,a0,2
    2708:	22b12623          	sw	a1,556(sp)

0000270c <inst_670>:
    270c:	0000b537          	lui	a0,0xb
    2710:	50350513          	addi	a0,a0,1283 # b503 <_end+0x80e3>
    2714:	55453593          	sltiu	a1,a0,1364
    2718:	22b12823          	sw	a1,560(sp)

0000271c <inst_671>:
    271c:	0000b537          	lui	a0,0xb
    2720:	50350513          	addi	a0,a0,1283 # b503 <_end+0x80e3>
    2724:	aa953593          	sltiu	a1,a0,-1367
    2728:	22b12a23          	sw	a1,564(sp)

0000272c <inst_672>:
    272c:	0000b537          	lui	a0,0xb
    2730:	50350513          	addi	a0,a0,1283 # b503 <_end+0x80e3>
    2734:	00453593          	sltiu	a1,a0,4
    2738:	22b12c23          	sw	a1,568(sp)

0000273c <inst_673>:
    273c:	0000b537          	lui	a0,0xb
    2740:	50350513          	addi	a0,a0,1283 # b503 <_end+0x80e3>
    2744:	33253593          	sltiu	a1,a0,818
    2748:	22b12e23          	sw	a1,572(sp)

0000274c <inst_674>:
    274c:	0000b537          	lui	a0,0xb
    2750:	50350513          	addi	a0,a0,1283 # b503 <_end+0x80e3>
    2754:	66553593          	sltiu	a1,a0,1637
    2758:	24b12023          	sw	a1,576(sp)

0000275c <inst_675>:
    275c:	0000b537          	lui	a0,0xb
    2760:	50350513          	addi	a0,a0,1283 # b503 <_end+0x80e3>
    2764:	02c53593          	sltiu	a1,a0,44
    2768:	24b12223          	sw	a1,580(sp)

0000276c <inst_676>:
    276c:	0000b537          	lui	a0,0xb
    2770:	50350513          	addi	a0,a0,1283 # b503 <_end+0x80e3>
    2774:	03e53593          	sltiu	a1,a0,62
    2778:	24b12423          	sw	a1,584(sp)

0000277c <inst_677>:
    277c:	0000b537          	lui	a0,0xb
    2780:	50350513          	addi	a0,a0,1283 # b503 <_end+0x80e3>
    2784:	55653593          	sltiu	a1,a0,1366
    2788:	24b12623          	sw	a1,588(sp)

0000278c <inst_678>:
    278c:	0000b537          	lui	a0,0xb
    2790:	50350513          	addi	a0,a0,1283 # b503 <_end+0x80e3>
    2794:	aab53593          	sltiu	a1,a0,-1365
    2798:	24b12823          	sw	a1,592(sp)

0000279c <inst_679>:
    279c:	0000b537          	lui	a0,0xb
    27a0:	50350513          	addi	a0,a0,1283 # b503 <_end+0x80e3>
    27a4:	00653593          	sltiu	a1,a0,6
    27a8:	24b12a23          	sw	a1,596(sp)

000027ac <inst_680>:
    27ac:	0000b537          	lui	a0,0xb
    27b0:	50350513          	addi	a0,a0,1283 # b503 <_end+0x80e3>
    27b4:	33453593          	sltiu	a1,a0,820
    27b8:	24b12c23          	sw	a1,600(sp)

000027bc <inst_681>:
    27bc:	0000b537          	lui	a0,0xb
    27c0:	50350513          	addi	a0,a0,1283 # b503 <_end+0x80e3>
    27c4:	66753593          	sltiu	a1,a0,1639
    27c8:	24b12e23          	sw	a1,604(sp)

000027cc <inst_682>:
    27cc:	0000b537          	lui	a0,0xb
    27d0:	50350513          	addi	a0,a0,1283 # b503 <_end+0x80e3>
    27d4:	02e53593          	sltiu	a1,a0,46
    27d8:	26b12023          	sw	a1,608(sp)

000027dc <inst_683>:
    27dc:	0000b537          	lui	a0,0xb
    27e0:	50350513          	addi	a0,a0,1283 # b503 <_end+0x80e3>
    27e4:	00153593          	seqz	a1,a0
    27e8:	26b12223          	sw	a1,612(sp)

000027ec <inst_684>:
    27ec:	0000b537          	lui	a0,0xb
    27f0:	50350513          	addi	a0,a0,1283 # b503 <_end+0x80e3>
    27f4:	04053593          	sltiu	a1,a0,64
    27f8:	26b12423          	sw	a1,616(sp)

000027fc <inst_685>:
    27fc:	00010537          	lui	a0,0x10
    2800:	ffe50513          	addi	a0,a0,-2 # fffe <_end+0xcbde>
    2804:	00353593          	sltiu	a1,a0,3
    2808:	26b12623          	sw	a1,620(sp)

0000280c <inst_686>:
    280c:	00010537          	lui	a0,0x10
    2810:	ffe50513          	addi	a0,a0,-2 # fffe <_end+0xcbde>
    2814:	55553593          	sltiu	a1,a0,1365
    2818:	26b12823          	sw	a1,624(sp)

0000281c <inst_687>:
    281c:	00010537          	lui	a0,0x10
    2820:	ffe50513          	addi	a0,a0,-2 # fffe <_end+0xcbde>
    2824:	aaa53593          	sltiu	a1,a0,-1366
    2828:	26b12a23          	sw	a1,628(sp)

0000282c <inst_688>:
    282c:	00010537          	lui	a0,0x10
    2830:	ffe50513          	addi	a0,a0,-2 # fffe <_end+0xcbde>
    2834:	00553593          	sltiu	a1,a0,5
    2838:	26b12c23          	sw	a1,632(sp)

0000283c <inst_689>:
    283c:	00010537          	lui	a0,0x10
    2840:	ffe50513          	addi	a0,a0,-2 # fffe <_end+0xcbde>
    2844:	33353593          	sltiu	a1,a0,819
    2848:	26b12e23          	sw	a1,636(sp)

0000284c <inst_690>:
    284c:	00010537          	lui	a0,0x10
    2850:	ffe50513          	addi	a0,a0,-2 # fffe <_end+0xcbde>
    2854:	02d53593          	sltiu	a1,a0,45
    2858:	28b12023          	sw	a1,640(sp)

0000285c <inst_691>:
    285c:	00010537          	lui	a0,0x10
    2860:	ffe50513          	addi	a0,a0,-2 # fffe <_end+0xcbde>
    2864:	00053593          	sltiu	a1,a0,0
    2868:	28b12223          	sw	a1,644(sp)

0000286c <inst_692>:
    286c:	00010537          	lui	a0,0x10
    2870:	ffe50513          	addi	a0,a0,-2 # fffe <_end+0xcbde>
    2874:	03f53593          	sltiu	a1,a0,63
    2878:	28b12423          	sw	a1,648(sp)

0000287c <inst_693>:
    287c:	00010537          	lui	a0,0x10
    2880:	ffe50513          	addi	a0,a0,-2 # fffe <_end+0xcbde>
    2884:	00253593          	sltiu	a1,a0,2
    2888:	28b12623          	sw	a1,652(sp)

0000288c <inst_694>:
    288c:	00010537          	lui	a0,0x10
    2890:	ffe50513          	addi	a0,a0,-2 # fffe <_end+0xcbde>
    2894:	55453593          	sltiu	a1,a0,1364
    2898:	28b12823          	sw	a1,656(sp)

0000289c <inst_695>:
    289c:	00010537          	lui	a0,0x10
    28a0:	ffe50513          	addi	a0,a0,-2 # fffe <_end+0xcbde>
    28a4:	aa953593          	sltiu	a1,a0,-1367
    28a8:	28b12a23          	sw	a1,660(sp)

000028ac <inst_696>:
    28ac:	00010537          	lui	a0,0x10
    28b0:	ffe50513          	addi	a0,a0,-2 # fffe <_end+0xcbde>
    28b4:	00453593          	sltiu	a1,a0,4
    28b8:	28b12c23          	sw	a1,664(sp)

000028bc <inst_697>:
    28bc:	00010537          	lui	a0,0x10
    28c0:	ffe50513          	addi	a0,a0,-2 # fffe <_end+0xcbde>
    28c4:	33253593          	sltiu	a1,a0,818
    28c8:	28b12e23          	sw	a1,668(sp)

000028cc <inst_698>:
    28cc:	01000513          	li	a0,16
    28d0:	ffe53593          	sltiu	a1,a0,-2
    28d4:	2ab12023          	sw	a1,672(sp)
    28d8:	00000013          	nop
    28dc:	00000013          	nop

000028e0 <rvtest_code_end>:
    28e0:	00000297          	auipc	t0,0x0
    28e4:	05028293          	addi	t0,t0,80 # 2930 <begin_signature>
    28e8:	00010337          	lui	t1,0x10
    28ec:	ff030313          	addi	t1,t1,-16 # fff0 <_end+0xcbd0>
    28f0:	00532023          	sw	t0,0(t1)
    28f4:	00001297          	auipc	t0,0x1
    28f8:	b2c28293          	addi	t0,t0,-1236 # 3420 <_end>
    28fc:	00010337          	lui	t1,0x10
    2900:	ff430313          	addi	t1,t1,-12 # fff4 <_end+0xcbd4>
    2904:	00532023          	sw	t0,0(t1)

00002908 <self_loop>:
    2908:	0000006f          	j	2908 <self_loop>
    290c:	0000                	unimp
    290e:	0000                	unimp
    2910:	0000                	unimp
    2912:	0000                	unimp
    2914:	0000                	unimp
    2916:	0000                	unimp
    2918:	0000                	unimp
    291a:	0000                	unimp
    291c:	0000                	unimp
    291e:	0000                	unimp
